SF:/Users/zool/RustroverProjects/open-lark/src/card.rs
FN:147,_RNCNvMs_NtCs532nfEa3ofR_9open_lark4cardNtB6_10FeishuCard6header0B8_
FN:168,_RNCNvMs_NtCs532nfEa3ofR_9open_lark4cardNtB6_10FeishuCard8elements0B8_
FN:244,_RNvMs0_NtCs532nfEa3ofR_9open_lark4cardNtB5_16FeishuCardConfig10width_mode
FN:235,_RNvMs0_NtCs532nfEa3ofR_9open_lark4cardNtB5_16FeishuCardConfig12update_multi
FN:226,_RNvMs0_NtCs532nfEa3ofR_9open_lark4cardNtB5_16FeishuCardConfig14enable_forward
FN:253,_RNvMs0_NtCs532nfEa3ofR_9open_lark4cardNtB5_16FeishuCardConfig22use_custom_translation
FN:262,_RNvMs0_NtCs532nfEa3ofR_9open_lark4cardNtB5_16FeishuCardConfig26enable_forward_interaction
FN:218,_RNvMs0_NtCs532nfEa3ofR_9open_lark4cardNtB5_16FeishuCardConfig3new
FN:271,_RNvMs0_NtCs532nfEa3ofR_9open_lark4cardNtB5_16FeishuCardConfig5style
FN:115,_RNvMs_NtCs532nfEa3ofR_9open_lark4cardNtB4_10FeishuCard3new
FN:132,_RNvMs_NtCs532nfEa3ofR_9open_lark4cardNtB4_10FeishuCard6config
FN:142,_RNvMs_NtCs532nfEa3ofR_9open_lark4cardNtB4_10FeishuCard6header
FN:163,_RNvMs_NtCs532nfEa3ofR_9open_lark4cardNtB4_10FeishuCard8elements
FN:106,_RNvXNtCs532nfEa3ofR_9open_lark4cardNtB2_10FeishuCardNtNtNtNtNtNtB4_7service2im2v17message5types16SendMessageTrait7content
FN:102,_RNvXNtCs532nfEa3ofR_9open_lark4cardNtB2_10FeishuCardNtNtNtNtNtNtB4_7service2im2v17message5types16SendMessageTrait8msg_type
FN:329,_RNvXs1_NtCs532nfEa3ofR_9open_lark4cardNtB5_18FeishuCardLanguageNtNtNtCsaNl6UpbT7bw_4core3str6traits7FromStr8from_str
FN:365,_RNvMs3_NtCs532nfEa3ofR_9open_lark4cardNtB5_7TextTag3new
FN:373,_RNvMs3_NtCs532nfEa3ofR_9open_lark4cardNtB5_7TextTag4text
FN:382,_RNvMs3_NtCs532nfEa3ofR_9open_lark4cardNtB5_7TextTag5color
FN:354,_RNvXs2_NtCs532nfEa3ofR_9open_lark4cardNtB5_7TextTagNtNtCsaNl6UpbT7bw_4core7default7Default7default
FNDA:0,_RNCNvMs_NtCs532nfEa3ofR_9open_lark4cardNtB6_10FeishuCard6header0B8_
FNDA:0,_RNCNvMs_NtCs532nfEa3ofR_9open_lark4cardNtB6_10FeishuCard8elements0B8_
FNDA:0,_RNvMs0_NtCs532nfEa3ofR_9open_lark4cardNtB5_16FeishuCardConfig10width_mode
FNDA:0,_RNvMs0_NtCs532nfEa3ofR_9open_lark4cardNtB5_16FeishuCardConfig12update_multi
FNDA:0,_RNvMs0_NtCs532nfEa3ofR_9open_lark4cardNtB5_16FeishuCardConfig14enable_forward
FNDA:0,_RNvMs0_NtCs532nfEa3ofR_9open_lark4cardNtB5_16FeishuCardConfig22use_custom_translation
FNDA:0,_RNvMs0_NtCs532nfEa3ofR_9open_lark4cardNtB5_16FeishuCardConfig26enable_forward_interaction
FNDA:0,_RNvMs0_NtCs532nfEa3ofR_9open_lark4cardNtB5_16FeishuCardConfig3new
FNDA:0,_RNvMs0_NtCs532nfEa3ofR_9open_lark4cardNtB5_16FeishuCardConfig5style
FNDA:0,_RNvMs_NtCs532nfEa3ofR_9open_lark4cardNtB4_10FeishuCard3new
FNDA:0,_RNvMs_NtCs532nfEa3ofR_9open_lark4cardNtB4_10FeishuCard6config
FNDA:0,_RNvMs_NtCs532nfEa3ofR_9open_lark4cardNtB4_10FeishuCard6header
FNDA:0,_RNvMs_NtCs532nfEa3ofR_9open_lark4cardNtB4_10FeishuCard8elements
FNDA:0,_RNvXNtCs532nfEa3ofR_9open_lark4cardNtB2_10FeishuCardNtNtNtNtNtNtB4_7service2im2v17message5types16SendMessageTrait7content
FNDA:0,_RNvXNtCs532nfEa3ofR_9open_lark4cardNtB2_10FeishuCardNtNtNtNtNtNtB4_7service2im2v17message5types16SendMessageTrait8msg_type
FNDA:0,_RNvXs1_NtCs532nfEa3ofR_9open_lark4cardNtB5_18FeishuCardLanguageNtNtNtCsaNl6UpbT7bw_4core3str6traits7FromStr8from_str
FNDA:2,_RNvMs3_NtCs532nfEa3ofR_9open_lark4cardNtB5_7TextTag3new
FNDA:2,_RNvMs3_NtCs532nfEa3ofR_9open_lark4cardNtB5_7TextTag4text
FNDA:2,_RNvMs3_NtCs532nfEa3ofR_9open_lark4cardNtB5_7TextTag5color
FNDA:2,_RNvXs2_NtCs532nfEa3ofR_9open_lark4cardNtB5_7TextTagNtNtCsaNl6UpbT7bw_4core7default7Default7default
FNF:20
FNH:4
DA:102,0
DA:103,0
DA:104,0
DA:106,0
DA:107,0
DA:108,0
DA:115,0
DA:116,0
DA:117,0
DA:118,0
DA:119,0
DA:120,0
DA:121,0
DA:122,0
DA:123,0
DA:124,0
DA:125,0
DA:126,0
DA:132,0
DA:133,0
DA:134,0
DA:135,0
DA:142,0
DA:143,0
DA:144,0
DA:145,0
DA:146,0
DA:147,0
DA:148,0
DA:149,0
DA:151,0
DA:152,0
DA:153,0
DA:155,0
DA:156,0
DA:163,0
DA:164,0
DA:165,0
DA:166,0
DA:167,0
DA:168,0
DA:169,0
DA:170,0
DA:172,0
DA:173,0
DA:174,0
DA:175,0
DA:176,0
DA:218,0
DA:219,0
DA:220,0
DA:226,0
DA:227,0
DA:228,0
DA:229,0
DA:235,0
DA:236,0
DA:237,0
DA:238,0
DA:244,0
DA:245,0
DA:246,0
DA:247,0
DA:253,0
DA:254,0
DA:255,0
DA:256,0
DA:262,0
DA:263,0
DA:264,0
DA:265,0
DA:271,0
DA:272,0
DA:273,0
DA:274,0
DA:329,0
DA:330,0
DA:331,0
DA:332,0
DA:333,0
DA:334,0
DA:335,0
DA:336,0
DA:338,0
DA:354,2
DA:355,2
DA:356,2
DA:357,2
DA:358,2
DA:359,2
DA:360,2
DA:365,2
DA:366,2
DA:367,2
DA:373,2
DA:374,2
DA:375,2
DA:376,2
DA:382,2
DA:383,2
DA:384,2
DA:385,2
BRF:0
BRH:0
LF:106
LH:18
end_of_record
SF:/Users/zool/RustroverProjects/open-lark/src/card/components/containers/collapsible_panel.rs
FN:163,_RNvMs0_NtNtNtNtCs532nfEa3ofR_9open_lark4card10components10containers17collapsible_panelNtB5_17CollapsibleHeader16background_color
FN:146,_RNvMs0_NtNtNtNtCs532nfEa3ofR_9open_lark4card10components10containers17collapsible_panelNtB5_17CollapsibleHeader3new
FN:219,_RNvNtNtNtNtNtCs532nfEa3ofR_9open_lark4card10components10containers17collapsible_panel4tests_16test_collapsible
FN:183,_RNvMs0_NtNtNtNtCs532nfEa3ofR_9open_lark4card10components10containers17collapsible_panelNtB5_17CollapsibleHeader13icon_position
FN:168,_RNvMs0_NtNtNtNtCs532nfEa3ofR_9open_lark4card10components10containers17collapsible_panelNtB5_17CollapsibleHeader14vertical_align
FN:188,_RNvMs0_NtNtNtNtCs532nfEa3ofR_9open_lark4card10components10containers17collapsible_panelNtB5_17CollapsibleHeader19icon_expanded_angle
FN:178,_RNvMs0_NtNtNtNtCs532nfEa3ofR_9open_lark4card10components10containers17collapsible_panelNtB5_17CollapsibleHeader4icon
FN:158,_RNvMs0_NtNtNtNtCs532nfEa3ofR_9open_lark4card10components10containers17collapsible_panelNtB5_17CollapsibleHeader5title
FN:173,_RNvMs0_NtNtNtNtCs532nfEa3ofR_9open_lark4card10components10containers17collapsible_panelNtB5_17CollapsibleHeader7padding
FN:67,_RNvMs_NtNtNtNtCs532nfEa3ofR_9open_lark4card10components10containers17collapsible_panelNtB4_16CollapsiblePanel16background_color
FN:85,_RNvMs_NtNtNtNtCs532nfEa3ofR_9open_lark4card10components10containers17collapsible_panelNtB4_16CollapsiblePanel16vertical_spacing
FN:58,_RNvMs_NtNtNtNtCs532nfEa3ofR_9open_lark4card10components10containers17collapsible_panelNtB4_16CollapsiblePanel3new
FN:77,_RNvMs_NtNtNtNtCs532nfEa3ofR_9open_lark4card10components10containers17collapsible_panelNtB4_16CollapsiblePanel6border
FN:72,_RNvMs_NtNtNtNtCs532nfEa3ofR_9open_lark4card10components10containers17collapsible_panelNtB4_16CollapsiblePanel6header
FN:90,_RNvMs_NtNtNtNtCs532nfEa3ofR_9open_lark4card10components10containers17collapsible_panelNtB4_16CollapsiblePanel7padding
FN:95,_RNvMs_NtNtNtNtCs532nfEa3ofR_9open_lark4card10components10containers17collapsible_panelNtB4_16CollapsiblePanel8elements
FN:62,_RNvMs_NtNtNtNtCs532nfEa3ofR_9open_lark4card10components10containers17collapsible_panelNtB4_16CollapsiblePanel8expanded
FN:43,_RNvXNtNtNtNtCs532nfEa3ofR_9open_lark4card10components10containers17collapsible_panelNtB2_16CollapsiblePanelNtNtCsaNl6UpbT7bw_4core7default7Default7default
FNDA:0,_RNvMs0_NtNtNtNtCs532nfEa3ofR_9open_lark4card10components10containers17collapsible_panelNtB5_17CollapsibleHeader16background_color
FNDA:0,_RNvMs0_NtNtNtNtCs532nfEa3ofR_9open_lark4card10components10containers17collapsible_panelNtB5_17CollapsibleHeader3new
FNDA:1,_RNvNtNtNtNtNtCs532nfEa3ofR_9open_lark4card10components10containers17collapsible_panel4tests_16test_collapsible
FNDA:1,_RNvMs0_NtNtNtNtCs532nfEa3ofR_9open_lark4card10components10containers17collapsible_panelNtB5_17CollapsibleHeader13icon_position
FNDA:1,_RNvMs0_NtNtNtNtCs532nfEa3ofR_9open_lark4card10components10containers17collapsible_panelNtB5_17CollapsibleHeader14vertical_align
FNDA:1,_RNvMs0_NtNtNtNtCs532nfEa3ofR_9open_lark4card10components10containers17collapsible_panelNtB5_17CollapsibleHeader19icon_expanded_angle
FNDA:1,_RNvMs0_NtNtNtNtCs532nfEa3ofR_9open_lark4card10components10containers17collapsible_panelNtB5_17CollapsibleHeader4icon
FNDA:1,_RNvMs0_NtNtNtNtCs532nfEa3ofR_9open_lark4card10components10containers17collapsible_panelNtB5_17CollapsibleHeader5title
FNDA:1,_RNvMs0_NtNtNtNtCs532nfEa3ofR_9open_lark4card10components10containers17collapsible_panelNtB5_17CollapsibleHeader7padding
FNDA:1,_RNvMs_NtNtNtNtCs532nfEa3ofR_9open_lark4card10components10containers17collapsible_panelNtB4_16CollapsiblePanel16background_color
FNDA:1,_RNvMs_NtNtNtNtCs532nfEa3ofR_9open_lark4card10components10containers17collapsible_panelNtB4_16CollapsiblePanel16vertical_spacing
FNDA:1,_RNvMs_NtNtNtNtCs532nfEa3ofR_9open_lark4card10components10containers17collapsible_panelNtB4_16CollapsiblePanel3new
FNDA:1,_RNvMs_NtNtNtNtCs532nfEa3ofR_9open_lark4card10components10containers17collapsible_panelNtB4_16CollapsiblePanel6border
FNDA:1,_RNvMs_NtNtNtNtCs532nfEa3ofR_9open_lark4card10components10containers17collapsible_panelNtB4_16CollapsiblePanel6header
FNDA:1,_RNvMs_NtNtNtNtCs532nfEa3ofR_9open_lark4card10components10containers17collapsible_panelNtB4_16CollapsiblePanel7padding
FNDA:1,_RNvMs_NtNtNtNtCs532nfEa3ofR_9open_lark4card10components10containers17collapsible_panelNtB4_16CollapsiblePanel8elements
FNDA:1,_RNvMs_NtNtNtNtCs532nfEa3ofR_9open_lark4card10components10containers17collapsible_panelNtB4_16CollapsiblePanel8expanded
FNDA:1,_RNvXNtNtNtNtCs532nfEa3ofR_9open_lark4card10components10containers17collapsible_panelNtB2_16CollapsiblePanelNtNtCsaNl6UpbT7bw_4core7default7Default7default
FNF:18
FNH:16
DA:43,1
DA:44,1
DA:45,1
DA:46,1
DA:47,1
DA:48,1
DA:49,1
DA:50,1
DA:51,1
DA:52,1
DA:53,1
DA:54,1
DA:58,1
DA:59,1
DA:60,1
DA:62,1
DA:63,1
DA:64,1
DA:65,1
DA:67,1
DA:68,1
DA:69,1
DA:70,1
DA:72,1
DA:73,1
DA:74,1
DA:75,1
DA:77,1
DA:78,1
DA:79,1
DA:80,1
DA:81,1
DA:82,1
DA:83,1
DA:85,1
DA:86,1
DA:87,1
DA:88,1
DA:90,1
DA:91,1
DA:92,1
DA:93,1
DA:95,1
DA:96,1
DA:97,1
DA:98,1
DA:146,0
DA:147,0
DA:148,0
DA:149,0
DA:150,0
DA:151,0
DA:152,0
DA:153,0
DA:154,0
DA:155,0
DA:156,0
DA:158,1
DA:159,1
DA:160,1
DA:161,1
DA:163,0
DA:164,0
DA:165,0
DA:166,0
DA:168,1
DA:169,1
DA:170,1
DA:171,1
DA:173,1
DA:174,1
DA:175,1
DA:176,1
DA:178,1
DA:179,1
DA:180,1
DA:181,1
DA:183,1
DA:184,1
DA:185,1
DA:186,1
DA:188,1
DA:189,1
DA:190,1
DA:191,1
DA:219,1
DA:220,1
DA:221,1
DA:222,1
DA:223,1
DA:224,1
DA:225,1
DA:226,1
DA:227,1
DA:228,1
DA:229,1
DA:230,1
DA:231,1
DA:232,1
DA:233,1
DA:235,1
DA:236,1
DA:238,1
DA:239,1
DA:240,1
DA:241,1
DA:242,1
DA:243,1
DA:245,1
DA:246,1
DA:247,1
DA:248,1
DA:249,1
DA:251,1
DA:253,1
DA:254,1
DA:256,1
DA:257,1
DA:258,1
DA:260,1
DA:261,1
DA:262,1
DA:263,1
DA:264,1
DA:266,1
DA:267,1
DA:269,1
DA:271,1
DA:272,1
DA:274,1
DA:275,1
DA:276,1
DA:279,1
DA:280,1
DA:285,1
DA:286,1
BRF:0
BRH:0
LF:136
LH:121
end_of_record
SF:/Users/zool/RustroverProjects/open-lark/src/card/components/containers/column_set.rs
FN:217,_RNvMs1_NtNtNtNtCs532nfEa3ofR_9open_lark4card10components10containers10column_setNtB5_6Column8elements
FN:183,_RNvMs1_NtNtNtNtCs532nfEa3ofR_9open_lark4card10components10containers10column_setNtB5_6Column3new
FN:222,_RNvMs1_NtNtNtNtCs532nfEa3ofR_9open_lark4card10components10containers10column_setNtB5_6Column6action
FN:197,_RNvMs1_NtNtNtNtCs532nfEa3ofR_9open_lark4card10components10containers10column_setNtB5_6Column6weight
FN:238,_RNvMs2_NtNtNtNtCs532nfEa3ofR_9open_lark4card10components10containers10column_setNtB5_12ColumnAction3new
FN:242,_RNvMs2_NtNtNtNtCs532nfEa3ofR_9open_lark4card10components10containers10column_setNtB5_12ColumnAction9multi_url
FN:75,_RNvMs_NtNtNtNtCs532nfEa3ofR_9open_lark4card10components10containers10column_setNtB4_18ColumnSetContainer3new
FN:109,_RNvMs_NtNtNtNtCs532nfEa3ofR_9open_lark4card10components10containers10column_setNtB4_18ColumnSetContainer6action
FN:104,_RNvMs_NtNtNtNtCs532nfEa3ofR_9open_lark4card10components10containers10column_setNtB4_18ColumnSetContainer7columns
FN:60,_RNvXNtNtNtNtCs532nfEa3ofR_9open_lark4card10components10containers10column_setNtB2_18ColumnSetContainerNtNtCsaNl6UpbT7bw_4core7default7Default7default
FN:167,_RNvXs0_NtNtNtNtCs532nfEa3ofR_9open_lark4card10components10containers10column_setNtB5_6ColumnNtNtCsaNl6UpbT7bw_4core7default7Default7default
FN:258,_RNvNtNtNtNtNtCs532nfEa3ofR_9open_lark4card10components10containers10column_set4tests_15test_column_set
FN:202,_RINvMs1_NtNtNtNtCs532nfEa3ofR_9open_lark4card10components10containers10column_setNtB6_6Column14vertical_alignReEBe_
FN:187,_RINvMs1_NtNtNtNtCs532nfEa3ofR_9open_lark4card10components10containers10column_setNtB6_6Column16background_styleReEBe_
FN:207,_RINvMs1_NtNtNtNtCs532nfEa3ofR_9open_lark4card10components10containers10column_setNtB6_6Column16vertical_spacingReEBe_
FN:192,_RINvMs1_NtNtNtNtCs532nfEa3ofR_9open_lark4card10components10containers10column_setNtB6_6Column5widthReEBe_
FN:212,_RINvMs1_NtNtNtNtCs532nfEa3ofR_9open_lark4card10components10containers10column_setNtB6_6Column7paddingReEBe_
FN:99,_RINvMs_NtNtNtNtCs532nfEa3ofR_9open_lark4card10components10containers10column_setNtB5_18ColumnSetContainer16background_styleReEBd_
FN:84,_RINvMs_NtNtNtNtCs532nfEa3ofR_9open_lark4card10components10containers10column_setNtB5_18ColumnSetContainer16horizontal_alignReEBd_
FN:79,_RINvMs_NtNtNtNtCs532nfEa3ofR_9open_lark4card10components10containers10column_setNtB5_18ColumnSetContainer18horizontal_spacingReEBd_
FN:89,_RINvMs_NtNtNtNtCs532nfEa3ofR_9open_lark4card10components10containers10column_setNtB5_18ColumnSetContainer6marginReEBd_
FN:94,_RINvMs_NtNtNtNtCs532nfEa3ofR_9open_lark4card10components10containers10column_setNtB5_18ColumnSetContainer9flex_modeReEBd_
FNDA:0,_RNvMs1_NtNtNtNtCs532nfEa3ofR_9open_lark4card10components10containers10column_setNtB5_6Column8elements
FNDA:1,_RNvMs1_NtNtNtNtCs532nfEa3ofR_9open_lark4card10components10containers10column_setNtB5_6Column3new
FNDA:1,_RNvMs1_NtNtNtNtCs532nfEa3ofR_9open_lark4card10components10containers10column_setNtB5_6Column6action
FNDA:1,_RNvMs1_NtNtNtNtCs532nfEa3ofR_9open_lark4card10components10containers10column_setNtB5_6Column6weight
FNDA:2,_RNvMs2_NtNtNtNtCs532nfEa3ofR_9open_lark4card10components10containers10column_setNtB5_12ColumnAction3new
FNDA:2,_RNvMs2_NtNtNtNtCs532nfEa3ofR_9open_lark4card10components10containers10column_setNtB5_12ColumnAction9multi_url
FNDA:1,_RNvMs_NtNtNtNtCs532nfEa3ofR_9open_lark4card10components10containers10column_setNtB4_18ColumnSetContainer3new
FNDA:1,_RNvMs_NtNtNtNtCs532nfEa3ofR_9open_lark4card10components10containers10column_setNtB4_18ColumnSetContainer6action
FNDA:1,_RNvMs_NtNtNtNtCs532nfEa3ofR_9open_lark4card10components10containers10column_setNtB4_18ColumnSetContainer7columns
FNDA:1,_RNvXNtNtNtNtCs532nfEa3ofR_9open_lark4card10components10containers10column_setNtB2_18ColumnSetContainerNtNtCsaNl6UpbT7bw_4core7default7Default7default
FNDA:1,_RNvXs0_NtNtNtNtCs532nfEa3ofR_9open_lark4card10components10containers10column_setNtB5_6ColumnNtNtCsaNl6UpbT7bw_4core7default7Default7default
FNDA:1,_RNvNtNtNtNtNtCs532nfEa3ofR_9open_lark4card10components10containers10column_set4tests_15test_column_set
FNDA:1,_RINvMs1_NtNtNtNtCs532nfEa3ofR_9open_lark4card10components10containers10column_setNtB6_6Column14vertical_alignReEBe_
FNDA:1,_RINvMs1_NtNtNtNtCs532nfEa3ofR_9open_lark4card10components10containers10column_setNtB6_6Column16background_styleReEBe_
FNDA:1,_RINvMs1_NtNtNtNtCs532nfEa3ofR_9open_lark4card10components10containers10column_setNtB6_6Column16vertical_spacingReEBe_
FNDA:1,_RINvMs1_NtNtNtNtCs532nfEa3ofR_9open_lark4card10components10containers10column_setNtB6_6Column5widthReEBe_
FNDA:1,_RINvMs1_NtNtNtNtCs532nfEa3ofR_9open_lark4card10components10containers10column_setNtB6_6Column7paddingReEBe_
FNDA:1,_RINvMs_NtNtNtNtCs532nfEa3ofR_9open_lark4card10components10containers10column_setNtB5_18ColumnSetContainer16background_styleReEBd_
FNDA:1,_RINvMs_NtNtNtNtCs532nfEa3ofR_9open_lark4card10components10containers10column_setNtB5_18ColumnSetContainer16horizontal_alignReEBd_
FNDA:1,_RINvMs_NtNtNtNtCs532nfEa3ofR_9open_lark4card10components10containers10column_setNtB5_18ColumnSetContainer18horizontal_spacingReEBd_
FNDA:1,_RINvMs_NtNtNtNtCs532nfEa3ofR_9open_lark4card10components10containers10column_setNtB5_18ColumnSetContainer6marginReEBd_
FNDA:1,_RINvMs_NtNtNtNtCs532nfEa3ofR_9open_lark4card10components10containers10column_setNtB5_18ColumnSetContainer9flex_modeReEBd_
FNF:22
FNH:21
DA:60,1
DA:61,1
DA:62,1
DA:63,1
DA:64,1
DA:65,1
DA:66,1
DA:67,1
DA:68,1
DA:69,1
DA:70,1
DA:71,1
DA:75,1
DA:76,1
DA:77,1
DA:79,1
DA:80,1
DA:81,1
DA:82,1
DA:84,1
DA:85,1
DA:86,1
DA:87,1
DA:89,1
DA:90,1
DA:91,1
DA:92,1
DA:94,1
DA:95,1
DA:96,1
DA:97,1
DA:99,1
DA:100,1
DA:101,1
DA:102,1
DA:104,1
DA:105,1
DA:106,1
DA:107,1
DA:109,1
DA:110,1
DA:111,1
DA:112,1
DA:167,1
DA:168,1
DA:169,1
DA:170,1
DA:171,1
DA:172,1
DA:173,1
DA:174,1
DA:175,1
DA:176,1
DA:177,1
DA:178,1
DA:179,1
DA:183,1
DA:184,1
DA:185,1
DA:187,1
DA:188,1
DA:189,1
DA:190,1
DA:192,1
DA:193,1
DA:194,1
DA:195,1
DA:197,1
DA:198,1
DA:199,1
DA:200,1
DA:202,1
DA:203,1
DA:204,1
DA:205,1
DA:207,1
DA:208,1
DA:209,1
DA:210,1
DA:212,1
DA:213,1
DA:214,1
DA:215,1
DA:217,0
DA:218,0
DA:219,0
DA:220,0
DA:222,1
DA:223,1
DA:224,1
DA:225,1
DA:238,2
DA:239,2
DA:240,2
DA:242,2
DA:243,2
DA:244,2
DA:245,2
DA:258,1
DA:259,1
DA:260,1
DA:261,1
DA:262,1
DA:263,1
DA:264,1
DA:265,1
DA:266,1
DA:267,1
DA:268,1
DA:269,1
DA:270,1
DA:271,1
DA:274,1
DA:275,1
DA:276,1
DA:277,1
DA:278,1
DA:279,1
DA:280,1
DA:281,1
DA:282,1
DA:283,1
DA:284,1
DA:285,1
DA:286,1
DA:287,1
DA:291,1
DA:292,1
DA:293,1
DA:294,1
DA:295,1
DA:296,1
DA:297,1
DA:298,1
DA:299,1
DA:300,1
DA:301,1
DA:302,1
DA:303,1
DA:306,1
DA:309,1
DA:310,1
DA:311,1
DA:312,1
DA:313,1
DA:314,1
DA:315,1
DA:316,1
DA:318,1
DA:319,1
DA:320,1
DA:321,1
DA:322,1
DA:325,1
DA:330,1
DA:331,1
BRF:0
BRH:0
LF:156
LH:152
end_of_record
SF:/Users/zool/RustroverProjects/open-lark/src/card/components/containers/form.rs
FN:64,_RNvMs_NtNtNtNtCs532nfEa3ofR_9open_lark4card10components10containers4formNtB4_13FormContainer4type
FN:69,_RNvMs_NtNtNtNtCs532nfEa3ofR_9open_lark4card10components10containers4formNtB4_13FormContainer7confirm
FN:50,_RNvMs_NtNtNtNtCs532nfEa3ofR_9open_lark4card10components10containers4formNtB4_13FormContainer3new
FN:54,_RNvMs_NtNtNtNtCs532nfEa3ofR_9open_lark4card10components10containers4formNtB4_13FormContainer4name
FN:59,_RNvMs_NtNtNtNtCs532nfEa3ofR_9open_lark4card10components10containers4formNtB4_13FormContainer8elements
FN:38,_RNvXNtNtNtNtCs532nfEa3ofR_9open_lark4card10components10containers4formNtB2_13FormContainerNtNtCsaNl6UpbT7bw_4core7default7Default7default
FN:88,_RNvNtNtNtNtNtCs532nfEa3ofR_9open_lark4card10components10containers4form4tests_19test_form_container
FNDA:0,_RNvMs_NtNtNtNtCs532nfEa3ofR_9open_lark4card10components10containers4formNtB4_13FormContainer4type
FNDA:0,_RNvMs_NtNtNtNtCs532nfEa3ofR_9open_lark4card10components10containers4formNtB4_13FormContainer7confirm
FNDA:1,_RNvMs_NtNtNtNtCs532nfEa3ofR_9open_lark4card10components10containers4formNtB4_13FormContainer3new
FNDA:1,_RNvMs_NtNtNtNtCs532nfEa3ofR_9open_lark4card10components10containers4formNtB4_13FormContainer4name
FNDA:1,_RNvMs_NtNtNtNtCs532nfEa3ofR_9open_lark4card10components10containers4formNtB4_13FormContainer8elements
FNDA:1,_RNvXNtNtNtNtCs532nfEa3ofR_9open_lark4card10components10containers4formNtB2_13FormContainerNtNtCsaNl6UpbT7bw_4core7default7Default7default
FNDA:1,_RNvNtNtNtNtNtCs532nfEa3ofR_9open_lark4card10components10containers4form4tests_19test_form_container
FNF:7
FNH:5
DA:38,1
DA:39,1
DA:40,1
DA:41,1
DA:42,1
DA:43,1
DA:44,1
DA:45,1
DA:46,1
DA:50,1
DA:51,1
DA:52,1
DA:54,1
DA:55,1
DA:56,1
DA:57,1
DA:59,1
DA:60,1
DA:61,1
DA:62,1
DA:64,0
DA:65,0
DA:66,0
DA:67,0
DA:69,0
DA:70,0
DA:71,0
DA:72,0
DA:88,1
DA:89,1
DA:90,1
DA:91,1
DA:92,1
DA:93,1
DA:94,1
DA:95,1
DA:96,1
DA:97,1
DA:100,1
DA:101,1
DA:102,1
DA:103,1
DA:105,1
DA:106,1
DA:107,1
DA:110,1
DA:111,1
DA:112,1
DA:113,1
DA:114,1
DA:115,1
DA:117,1
DA:122,1
DA:123,1
BRF:0
BRH:0
LF:54
LH:46
end_of_record
SF:/Users/zool/RustroverProjects/open-lark/src/card/components/containers/interactive.rs
FN:162,_RNvMs_NtNtNtNtCs532nfEa3ofR_9open_lark4card10components10containers11interactiveNtB4_20InteractiveContainer7confirm
FN:186,_RNvNtNtNtNtNtCs532nfEa3ofR_9open_lark4card10components10containers11interactive4tests_16test_interactive
FN:122,_RNvMs_NtNtNtNtCs532nfEa3ofR_9open_lark4card10components10containers11interactiveNtB4_20InteractiveContainer10has_border
FN:147,_RNvMs_NtNtNtNtCs532nfEa3ofR_9open_lark4card10components10containers11interactiveNtB4_20InteractiveContainer10hover_tips
FN:127,_RNvMs_NtNtNtNtCs532nfEa3ofR_9open_lark4card10components10containers11interactiveNtB4_20InteractiveContainer12border_color
FN:132,_RNvMs_NtNtNtNtCs532nfEa3ofR_9open_lark4card10components10containers11interactiveNtB4_20InteractiveContainer13corner_radius
FN:157,_RNvMs_NtNtNtNtCs532nfEa3ofR_9open_lark4card10components10containers11interactiveNtB4_20InteractiveContainer13disabled_tips
FN:117,_RNvMs_NtNtNtNtCs532nfEa3ofR_9open_lark4card10components10containers11interactiveNtB4_20InteractiveContainer16background_style
FN:103,_RNvMs_NtNtNtNtCs532nfEa3ofR_9open_lark4card10components10containers11interactiveNtB4_20InteractiveContainer3new
FN:107,_RNvMs_NtNtNtNtCs532nfEa3ofR_9open_lark4card10components10containers11interactiveNtB4_20InteractiveContainer5width
FN:112,_RNvMs_NtNtNtNtCs532nfEa3ofR_9open_lark4card10components10containers11interactiveNtB4_20InteractiveContainer6height
FN:137,_RNvMs_NtNtNtNtCs532nfEa3ofR_9open_lark4card10components10containers11interactiveNtB4_20InteractiveContainer7padding
FN:152,_RNvMs_NtNtNtNtCs532nfEa3ofR_9open_lark4card10components10containers11interactiveNtB4_20InteractiveContainer8disabled
FN:167,_RNvMs_NtNtNtNtCs532nfEa3ofR_9open_lark4card10components10containers11interactiveNtB4_20InteractiveContainer8elements
FN:142,_RNvMs_NtNtNtNtCs532nfEa3ofR_9open_lark4card10components10containers11interactiveNtB4_20InteractiveContainer9behaviors
FN:82,_RNvXNtNtNtNtCs532nfEa3ofR_9open_lark4card10components10containers11interactiveNtB2_20InteractiveContainerNtNtCsaNl6UpbT7bw_4core7default7Default7default
FNDA:0,_RNvMs_NtNtNtNtCs532nfEa3ofR_9open_lark4card10components10containers11interactiveNtB4_20InteractiveContainer7confirm
FNDA:1,_RNvNtNtNtNtNtCs532nfEa3ofR_9open_lark4card10components10containers11interactive4tests_16test_interactive
FNDA:1,_RNvMs_NtNtNtNtCs532nfEa3ofR_9open_lark4card10components10containers11interactiveNtB4_20InteractiveContainer10has_border
FNDA:1,_RNvMs_NtNtNtNtCs532nfEa3ofR_9open_lark4card10components10containers11interactiveNtB4_20InteractiveContainer10hover_tips
FNDA:1,_RNvMs_NtNtNtNtCs532nfEa3ofR_9open_lark4card10components10containers11interactiveNtB4_20InteractiveContainer12border_color
FNDA:1,_RNvMs_NtNtNtNtCs532nfEa3ofR_9open_lark4card10components10containers11interactiveNtB4_20InteractiveContainer13corner_radius
FNDA:1,_RNvMs_NtNtNtNtCs532nfEa3ofR_9open_lark4card10components10containers11interactiveNtB4_20InteractiveContainer13disabled_tips
FNDA:1,_RNvMs_NtNtNtNtCs532nfEa3ofR_9open_lark4card10components10containers11interactiveNtB4_20InteractiveContainer16background_style
FNDA:1,_RNvMs_NtNtNtNtCs532nfEa3ofR_9open_lark4card10components10containers11interactiveNtB4_20InteractiveContainer3new
FNDA:1,_RNvMs_NtNtNtNtCs532nfEa3ofR_9open_lark4card10components10containers11interactiveNtB4_20InteractiveContainer5width
FNDA:1,_RNvMs_NtNtNtNtCs532nfEa3ofR_9open_lark4card10components10containers11interactiveNtB4_20InteractiveContainer6height
FNDA:1,_RNvMs_NtNtNtNtCs532nfEa3ofR_9open_lark4card10components10containers11interactiveNtB4_20InteractiveContainer7padding
FNDA:1,_RNvMs_NtNtNtNtCs532nfEa3ofR_9open_lark4card10components10containers11interactiveNtB4_20InteractiveContainer8disabled
FNDA:1,_RNvMs_NtNtNtNtCs532nfEa3ofR_9open_lark4card10components10containers11interactiveNtB4_20InteractiveContainer8elements
FNDA:1,_RNvMs_NtNtNtNtCs532nfEa3ofR_9open_lark4card10components10containers11interactiveNtB4_20InteractiveContainer9behaviors
FNDA:1,_RNvXNtNtNtNtCs532nfEa3ofR_9open_lark4card10components10containers11interactiveNtB2_20InteractiveContainerNtNtCsaNl6UpbT7bw_4core7default7Default7default
FNF:16
FNH:15
DA:82,1
DA:83,1
DA:84,1
DA:85,1
DA:86,1
DA:87,1
DA:88,1
DA:89,1
DA:90,1
DA:91,1
DA:92,1
DA:93,1
DA:94,1
DA:95,1
DA:96,1
DA:97,1
DA:98,1
DA:99,1
DA:103,1
DA:104,1
DA:105,1
DA:107,1
DA:108,1
DA:109,1
DA:110,1
DA:112,1
DA:113,1
DA:114,1
DA:115,1
DA:117,1
DA:118,1
DA:119,1
DA:120,1
DA:122,1
DA:123,1
DA:124,1
DA:125,1
DA:127,1
DA:128,1
DA:129,1
DA:130,1
DA:132,1
DA:133,1
DA:134,1
DA:135,1
DA:137,1
DA:138,1
DA:139,1
DA:140,1
DA:142,1
DA:143,1
DA:144,1
DA:145,1
DA:147,1
DA:148,1
DA:149,1
DA:150,1
DA:152,1
DA:153,1
DA:154,1
DA:155,1
DA:157,1
DA:158,1
DA:159,1
DA:160,1
DA:162,0
DA:163,0
DA:164,0
DA:165,0
DA:167,1
DA:168,1
DA:169,1
DA:170,1
DA:186,1
DA:187,1
DA:188,1
DA:189,1
DA:190,1
DA:191,1
DA:192,1
DA:193,1
DA:194,1
DA:195,1
DA:196,1
DA:197,1
DA:198,1
DA:199,1
DA:200,1
DA:201,1
DA:202,1
DA:203,1
DA:204,1
DA:205,1
DA:207,1
DA:208,1
DA:209,1
DA:210,1
DA:212,1
DA:213,1
DA:214,1
DA:215,1
DA:216,1
DA:217,1
DA:218,1
DA:219,1
DA:220,1
DA:221,1
DA:223,1
DA:224,1
DA:225,1
DA:226,1
DA:227,1
DA:230,1
DA:231,1
DA:233,1
DA:237,1
DA:238,1
DA:241,1
DA:242,1
DA:243,1
DA:244,1
DA:245,1
DA:247,1
DA:250,1
DA:251,1
BRF:0
BRH:0
LF:125
LH:121
end_of_record
SF:/Users/zool/RustroverProjects/open-lark/src/card/components/content_components/chart.rs
FN:97,_RNvNtNtNtNtNtCs532nfEa3ofR_9open_lark4card10components18content_components5chart4tests_10test_chart
FN:74,_RNvMs_NtNtNtNtCs532nfEa3ofR_9open_lark4card10components18content_components5chartNtB4_15FeishuCardChart10chart_spec
FN:69,_RNvMs_NtNtNtNtCs532nfEa3ofR_9open_lark4card10components18content_components5chartNtB4_15FeishuCardChart11color_theme
FN:64,_RNvMs_NtNtNtNtCs532nfEa3ofR_9open_lark4card10components18content_components5chartNtB4_15FeishuCardChart12aspect_ratio
FN:60,_RNvMs_NtNtNtNtCs532nfEa3ofR_9open_lark4card10components18content_components5chartNtB4_15FeishuCardChart3new
FN:84,_RNvMs_NtNtNtNtCs532nfEa3ofR_9open_lark4card10components18content_components5chartNtB4_15FeishuCardChart6height
FN:79,_RNvMs_NtNtNtNtCs532nfEa3ofR_9open_lark4card10components18content_components5chartNtB4_15FeishuCardChart7preview
FN:47,_RNvXNtNtNtNtCs532nfEa3ofR_9open_lark4card10components18content_components5chartNtB2_15FeishuCardChartNtNtCsaNl6UpbT7bw_4core7default7Default7default
FNDA:1,_RNvNtNtNtNtNtCs532nfEa3ofR_9open_lark4card10components18content_components5chart4tests_10test_chart
FNDA:1,_RNvMs_NtNtNtNtCs532nfEa3ofR_9open_lark4card10components18content_components5chartNtB4_15FeishuCardChart10chart_spec
FNDA:1,_RNvMs_NtNtNtNtCs532nfEa3ofR_9open_lark4card10components18content_components5chartNtB4_15FeishuCardChart11color_theme
FNDA:1,_RNvMs_NtNtNtNtCs532nfEa3ofR_9open_lark4card10components18content_components5chartNtB4_15FeishuCardChart12aspect_ratio
FNDA:1,_RNvMs_NtNtNtNtCs532nfEa3ofR_9open_lark4card10components18content_components5chartNtB4_15FeishuCardChart3new
FNDA:1,_RNvMs_NtNtNtNtCs532nfEa3ofR_9open_lark4card10components18content_components5chartNtB4_15FeishuCardChart6height
FNDA:1,_RNvMs_NtNtNtNtCs532nfEa3ofR_9open_lark4card10components18content_components5chartNtB4_15FeishuCardChart7preview
FNDA:1,_RNvXNtNtNtNtCs532nfEa3ofR_9open_lark4card10components18content_components5chartNtB2_15FeishuCardChartNtNtCsaNl6UpbT7bw_4core7default7Default7default
FNF:8
FNH:8
DA:47,1
DA:48,1
DA:49,1
DA:50,1
DA:51,1
DA:52,1
DA:53,1
DA:54,1
DA:55,1
DA:56,1
DA:60,1
DA:61,1
DA:62,1
DA:64,1
DA:65,1
DA:66,1
DA:67,1
DA:69,1
DA:70,1
DA:71,1
DA:72,1
DA:74,1
DA:75,1
DA:76,1
DA:77,1
DA:79,1
DA:80,1
DA:81,1
DA:82,1
DA:84,1
DA:85,1
DA:86,1
DA:87,1
DA:97,1
DA:98,1
DA:99,1
DA:100,1
DA:101,1
DA:102,1
DA:104,1
DA:105,1
DA:109,1
DA:110,1
DA:111,1
DA:112,1
DA:113,1
DA:114,1
DA:115,1
DA:116,1
DA:118,1
DA:119,1
DA:123,1
DA:124,1
DA:126,1
DA:127,1
BRF:0
BRH:0
LF:55
LH:55
end_of_record
SF:/Users/zool/RustroverProjects/open-lark/src/card/components/content_components/divider.rs
FN:9,_RNvXNtNtNtNtCs532nfEa3ofR_9open_lark4card10components18content_components7dividerNtB2_17FeishuCardDividerNtNtCsaNl6UpbT7bw_4core7default7Default7default
FN:19,_RNvNtNtNtNtNtCs532nfEa3ofR_9open_lark4card10components18content_components7divider4tests_4test
FNDA:1,_RNvXNtNtNtNtCs532nfEa3ofR_9open_lark4card10components18content_components7dividerNtB2_17FeishuCardDividerNtNtCsaNl6UpbT7bw_4core7default7Default7default
FNDA:1,_RNvNtNtNtNtNtCs532nfEa3ofR_9open_lark4card10components18content_components7divider4tests_4test
FNF:2
FNH:2
DA:9,1
DA:10,1
DA:11,1
DA:12,1
DA:13,1
DA:19,1
DA:23,1
DA:24,1
DA:25,1
DA:28,1
DA:29,1
BRF:0
BRH:0
LF:11
LH:11
end_of_record
SF:/Users/zool/RustroverProjects/open-lark/src/card/components/content_components/image.rs
FN:106,_RNvMs_NtNtNtNtCs532nfEa3ofR_9open_lark4card10components18content_components5imageNtB4_15FeishuCardImage11transparent
FN:91,_RNvMs_NtNtNtNtCs532nfEa3ofR_9open_lark4card10components18content_components5imageNtB4_15FeishuCardImage13corner_radius
FN:86,_RNvMs_NtNtNtNtCs532nfEa3ofR_9open_lark4card10components18content_components5imageNtB4_15FeishuCardImage5title
FN:96,_RNvMs_NtNtNtNtCs532nfEa3ofR_9open_lark4card10components18content_components5imageNtB4_15FeishuCardImage10scale_type
FN:81,_RNvMs_NtNtNtNtCs532nfEa3ofR_9open_lark4card10components18content_components5imageNtB4_15FeishuCardImage3alt
FN:72,_RNvMs_NtNtNtNtCs532nfEa3ofR_9open_lark4card10components18content_components5imageNtB4_15FeishuCardImage3new
FN:101,_RNvMs_NtNtNtNtCs532nfEa3ofR_9open_lark4card10components18content_components5imageNtB4_15FeishuCardImage4size
FN:116,_RNvMs_NtNtNtNtCs532nfEa3ofR_9open_lark4card10components18content_components5imageNtB4_15FeishuCardImage5build
FN:76,_RNvMs_NtNtNtNtCs532nfEa3ofR_9open_lark4card10components18content_components5imageNtB4_15FeishuCardImage7img_key
FN:111,_RNvMs_NtNtNtNtCs532nfEa3ofR_9open_lark4card10components18content_components5imageNtB4_15FeishuCardImage7preview
FN:56,_RNvXNtNtNtNtCs532nfEa3ofR_9open_lark4card10components18content_components5imageNtB2_15FeishuCardImageNtNtCsaNl6UpbT7bw_4core7default7Default7default
FN:128,_RNvNtNtNtNtNtCs532nfEa3ofR_9open_lark4card10components18content_components5image4tests_10test_image
FNDA:0,_RNvMs_NtNtNtNtCs532nfEa3ofR_9open_lark4card10components18content_components5imageNtB4_15FeishuCardImage11transparent
FNDA:0,_RNvMs_NtNtNtNtCs532nfEa3ofR_9open_lark4card10components18content_components5imageNtB4_15FeishuCardImage13corner_radius
FNDA:0,_RNvMs_NtNtNtNtCs532nfEa3ofR_9open_lark4card10components18content_components5imageNtB4_15FeishuCardImage5title
FNDA:1,_RNvMs_NtNtNtNtCs532nfEa3ofR_9open_lark4card10components18content_components5imageNtB4_15FeishuCardImage10scale_type
FNDA:1,_RNvMs_NtNtNtNtCs532nfEa3ofR_9open_lark4card10components18content_components5imageNtB4_15FeishuCardImage3alt
FNDA:2,_RNvMs_NtNtNtNtCs532nfEa3ofR_9open_lark4card10components18content_components5imageNtB4_15FeishuCardImage3new
FNDA:1,_RNvMs_NtNtNtNtCs532nfEa3ofR_9open_lark4card10components18content_components5imageNtB4_15FeishuCardImage4size
FNDA:1,_RNvMs_NtNtNtNtCs532nfEa3ofR_9open_lark4card10components18content_components5imageNtB4_15FeishuCardImage5build
FNDA:2,_RNvMs_NtNtNtNtCs532nfEa3ofR_9open_lark4card10components18content_components5imageNtB4_15FeishuCardImage7img_key
FNDA:1,_RNvMs_NtNtNtNtCs532nfEa3ofR_9open_lark4card10components18content_components5imageNtB4_15FeishuCardImage7preview
FNDA:2,_RNvXNtNtNtNtCs532nfEa3ofR_9open_lark4card10components18content_components5imageNtB2_15FeishuCardImageNtNtCsaNl6UpbT7bw_4core7default7Default7default
FNDA:1,_RNvNtNtNtNtNtCs532nfEa3ofR_9open_lark4card10components18content_components5image4tests_10test_image
FNF:12
FNH:9
DA:56,2
DA:57,2
DA:58,2
DA:59,2
DA:60,2
DA:61,2
DA:62,2
DA:63,2
DA:64,2
DA:65,2
DA:66,2
DA:67,2
DA:68,2
DA:72,2
DA:73,2
DA:74,2
DA:76,2
DA:77,2
DA:78,2
DA:79,2
DA:81,1
DA:82,1
DA:83,1
DA:84,1
DA:86,0
DA:87,0
DA:88,0
DA:89,0
DA:91,0
DA:92,0
DA:93,0
DA:94,0
DA:96,1
DA:97,1
DA:98,1
DA:99,1
DA:101,1
DA:102,1
DA:103,1
DA:104,1
DA:106,0
DA:107,0
DA:108,0
DA:109,0
DA:111,1
DA:112,1
DA:113,1
DA:114,1
DA:116,1
DA:117,1
DA:118,1
DA:128,1
DA:129,1
DA:130,1
DA:131,1
DA:132,1
DA:133,1
DA:134,1
DA:135,1
DA:136,1
DA:137,1
DA:138,1
DA:139,1
DA:140,1
DA:141,1
DA:144,1
BRF:0
BRH:0
LF:66
LH:54
end_of_record
SF:/Users/zool/RustroverProjects/open-lark/src/card/components/content_components/multi_image_layout.rs
FN:56,_RNvMs_NtNtNtNtCs532nfEa3ofR_9open_lark4card10components18content_components18multi_image_layoutNtB4_26FeishuCardMultiImageLayout13corner_radius
FN:79,_RNvNtNtNtNtNtCs532nfEa3ofR_9open_lark4card10components18content_components18multi_image_layout4tests_23test_multi_image_layout
FN:65,_RNCNvMs_NtNtNtNtCs532nfEa3ofR_9open_lark4card10components18content_components18multi_image_layoutNtB6_26FeishuCardMultiImageLayout8img_list0Be_
FN:51,_RNvMs_NtNtNtNtCs532nfEa3ofR_9open_lark4card10components18content_components18multi_image_layoutNtB4_26FeishuCardMultiImageLayout16combination_mode
FN:47,_RNvMs_NtNtNtNtCs532nfEa3ofR_9open_lark4card10components18content_components18multi_image_layoutNtB4_26FeishuCardMultiImageLayout3new
FN:61,_RNvMs_NtNtNtNtCs532nfEa3ofR_9open_lark4card10components18content_components18multi_image_layoutNtB4_26FeishuCardMultiImageLayout8img_list
FN:31,_RNvXNtNtNtNtCs532nfEa3ofR_9open_lark4card10components18content_components18multi_image_layoutNtB2_26FeishuCardMultiImageLayoutNtNtCsaNl6UpbT7bw_4core7default7Default7default
FNDA:0,_RNvMs_NtNtNtNtCs532nfEa3ofR_9open_lark4card10components18content_components18multi_image_layoutNtB4_26FeishuCardMultiImageLayout13corner_radius
FNDA:1,_RNvNtNtNtNtNtCs532nfEa3ofR_9open_lark4card10components18content_components18multi_image_layout4tests_23test_multi_image_layout
FNDA:3,_RNCNvMs_NtNtNtNtCs532nfEa3ofR_9open_lark4card10components18content_components18multi_image_layoutNtB6_26FeishuCardMultiImageLayout8img_list0Be_
FNDA:1,_RNvMs_NtNtNtNtCs532nfEa3ofR_9open_lark4card10components18content_components18multi_image_layoutNtB4_26FeishuCardMultiImageLayout16combination_mode
FNDA:1,_RNvMs_NtNtNtNtCs532nfEa3ofR_9open_lark4card10components18content_components18multi_image_layoutNtB4_26FeishuCardMultiImageLayout3new
FNDA:1,_RNvMs_NtNtNtNtCs532nfEa3ofR_9open_lark4card10components18content_components18multi_image_layoutNtB4_26FeishuCardMultiImageLayout8img_list
FNDA:1,_RNvXNtNtNtNtCs532nfEa3ofR_9open_lark4card10components18content_components18multi_image_layoutNtB2_26FeishuCardMultiImageLayoutNtNtCsaNl6UpbT7bw_4core7default7Default7default
FNF:7
FNH:6
DA:31,1
DA:32,1
DA:33,1
DA:34,1
DA:35,1
DA:36,1
DA:37,1
DA:38,1
DA:47,1
DA:48,1
DA:49,1
DA:51,1
DA:52,1
DA:53,1
DA:54,1
DA:56,0
DA:57,0
DA:58,0
DA:59,0
DA:61,1
DA:62,1
DA:63,1
DA:64,1
DA:65,3
DA:66,3
DA:67,1
DA:68,1
DA:69,1
DA:79,1
DA:80,1
DA:81,1
DA:82,1
DA:83,1
DA:84,1
DA:85,1
DA:88,1
DA:89,1
DA:90,1
DA:91,1
DA:92,1
DA:93,1
DA:95,1
DA:98,1
DA:101,1
DA:106,1
BRF:0
BRH:0
LF:45
LH:41
end_of_record
SF:/Users/zool/RustroverProjects/open-lark/src/card/components/content_components/note.rs
FN:60,_RNvNtNtNtNtNtCs532nfEa3ofR_9open_lark4card10components18content_components4note4tests_9test_note
FN:36,_RNvMs_NtNtNtNtCs532nfEa3ofR_9open_lark4card10components18content_components4noteNtB4_14FeishuCardNote3new
FN:40,_RNvMs_NtNtNtNtCs532nfEa3ofR_9open_lark4card10components18content_components4noteNtB4_14FeishuCardNote4icon
FN:51,_RNvMs_NtNtNtNtCs532nfEa3ofR_9open_lark4card10components18content_components4noteNtB4_14FeishuCardNote4text
FN:45,_RNvMs_NtNtNtNtCs532nfEa3ofR_9open_lark4card10components18content_components4noteNtB4_14FeishuCardNote5image
FN:18,_RNvXNtNtNtNtCs532nfEa3ofR_9open_lark4card10components18content_components4noteNtB2_14FeishuCardNoteNtNtCsaNl6UpbT7bw_4core7default7Default7default
FNDA:1,_RNvNtNtNtNtNtCs532nfEa3ofR_9open_lark4card10components18content_components4note4tests_9test_note
FNDA:1,_RNvMs_NtNtNtNtCs532nfEa3ofR_9open_lark4card10components18content_components4noteNtB4_14FeishuCardNote3new
FNDA:1,_RNvMs_NtNtNtNtCs532nfEa3ofR_9open_lark4card10components18content_components4noteNtB4_14FeishuCardNote4icon
FNDA:2,_RNvMs_NtNtNtNtCs532nfEa3ofR_9open_lark4card10components18content_components4noteNtB4_14FeishuCardNote4text
FNDA:1,_RNvMs_NtNtNtNtCs532nfEa3ofR_9open_lark4card10components18content_components4noteNtB4_14FeishuCardNote5image
FNDA:1,_RNvXNtNtNtNtCs532nfEa3ofR_9open_lark4card10components18content_components4noteNtB2_14FeishuCardNoteNtNtCsaNl6UpbT7bw_4core7default7Default7default
FNF:6
FNH:6
DA:18,1
DA:19,1
DA:20,1
DA:21,1
DA:22,1
DA:23,1
DA:36,1
DA:37,1
DA:38,1
DA:40,1
DA:41,1
DA:42,1
DA:43,1
DA:45,1
DA:46,1
DA:47,1
DA:48,1
DA:49,1
DA:51,2
DA:52,2
DA:53,2
DA:54,2
DA:60,1
DA:64,1
DA:65,1
DA:66,1
DA:67,1
DA:68,1
DA:69,1
DA:71,1
DA:72,1
DA:73,1
DA:74,1
DA:75,1
DA:76,1
DA:78,1
DA:79,1
DA:80,1
DA:81,1
DA:83,1
DA:84,1
DA:85,1
DA:88,1
DA:89,1
DA:92,1
DA:93,1
DA:94,1
DA:95,1
DA:96,1
DA:100,1
DA:101,1
DA:106,1
DA:107,1
BRF:0
BRH:0
LF:53
LH:53
end_of_record
SF:/Users/zool/RustroverProjects/open-lark/src/card/components/content_components/plain_text.rs
FN:142,_RNvMs1_NtNtNtNtCs532nfEa3ofR_9open_lark4card10components18content_components10plain_textNtB5_9PlainText5lines
FN:122,_RNvMs1_NtNtNtNtCs532nfEa3ofR_9open_lark4card10components18content_components10plain_textNtB5_9PlainText7content
FN:101,_RNvMs1_NtNtNtNtCs532nfEa3ofR_9open_lark4card10components18content_components10plain_textNtB5_9PlainText8markdown
FN:153,_RNvNtNtNtNtNtCs532nfEa3ofR_9open_lark4card10components18content_components10plain_text4tests_22test_message_card_text
FN:137,_RNvMs1_NtNtNtNtCs532nfEa3ofR_9open_lark4card10components18content_components10plain_textNtB5_9PlainText10text_align
FN:132,_RNvMs1_NtNtNtNtCs532nfEa3ofR_9open_lark4card10components18content_components10plain_textNtB5_9PlainText10text_color
FN:116,_RNvMs1_NtNtNtNtCs532nfEa3ofR_9open_lark4card10components18content_components10plain_textNtB5_9PlainText3tag
FN:90,_RNvMs1_NtNtNtNtCs532nfEa3ofR_9open_lark4card10components18content_components10plain_textNtB5_9PlainText4text
FN:127,_RNvMs1_NtNtNtNtCs532nfEa3ofR_9open_lark4card10components18content_components10plain_textNtB5_9PlainText9text_size
FN:29,_RNvMs_NtNtNtNtCs532nfEa3ofR_9open_lark4card10components18content_components10plain_textNtB4_14FeishuCardText3new
FN:38,_RNvMs_NtNtNtNtCs532nfEa3ofR_9open_lark4card10components18content_components10plain_textNtB4_14FeishuCardText4icon
FN:33,_RNvMs_NtNtNtNtCs532nfEa3ofR_9open_lark4card10components18content_components10plain_textNtB4_14FeishuCardText4text
FN:19,_RNvXNtNtNtNtCs532nfEa3ofR_9open_lark4card10components18content_components10plain_textNtB2_14FeishuCardTextNtNtCsaNl6UpbT7bw_4core7default7Default7default
FN:77,_RNvXs0_NtNtNtNtCs532nfEa3ofR_9open_lark4card10components18content_components10plain_textNtB5_9PlainTextNtNtCsaNl6UpbT7bw_4core7default7Default7default
FNDA:0,_RNvMs1_NtNtNtNtCs532nfEa3ofR_9open_lark4card10components18content_components10plain_textNtB5_9PlainText5lines
FNDA:0,_RNvMs1_NtNtNtNtCs532nfEa3ofR_9open_lark4card10components18content_components10plain_textNtB5_9PlainText7content
FNDA:0,_RNvMs1_NtNtNtNtCs532nfEa3ofR_9open_lark4card10components18content_components10plain_textNtB5_9PlainText8markdown
FNDA:1,_RNvNtNtNtNtNtCs532nfEa3ofR_9open_lark4card10components18content_components10plain_text4tests_22test_message_card_text
FNDA:2,_RNvMs1_NtNtNtNtCs532nfEa3ofR_9open_lark4card10components18content_components10plain_textNtB5_9PlainText10text_align
FNDA:2,_RNvMs1_NtNtNtNtCs532nfEa3ofR_9open_lark4card10components18content_components10plain_textNtB5_9PlainText10text_color
FNDA:2,_RNvMs1_NtNtNtNtCs532nfEa3ofR_9open_lark4card10components18content_components10plain_textNtB5_9PlainText3tag
FNDA:45,_RNvMs1_NtNtNtNtCs532nfEa3ofR_9open_lark4card10components18content_components10plain_textNtB5_9PlainText4text
FNDA:2,_RNvMs1_NtNtNtNtCs532nfEa3ofR_9open_lark4card10components18content_components10plain_textNtB5_9PlainText9text_size
FNDA:1,_RNvMs_NtNtNtNtCs532nfEa3ofR_9open_lark4card10components18content_components10plain_textNtB4_14FeishuCardText3new
FNDA:1,_RNvMs_NtNtNtNtCs532nfEa3ofR_9open_lark4card10components18content_components10plain_textNtB4_14FeishuCardText4icon
FNDA:1,_RNvMs_NtNtNtNtCs532nfEa3ofR_9open_lark4card10components18content_components10plain_textNtB4_14FeishuCardText4text
FNDA:1,_RNvXNtNtNtNtCs532nfEa3ofR_9open_lark4card10components18content_components10plain_textNtB2_14FeishuCardTextNtNtCsaNl6UpbT7bw_4core7default7Default7default
FNDA:2,_RNvXs0_NtNtNtNtCs532nfEa3ofR_9open_lark4card10components18content_components10plain_textNtB5_9PlainTextNtNtCsaNl6UpbT7bw_4core7default7Default7default
FNF:14
FNH:11
DA:19,1
DA:20,1
DA:21,1
DA:22,1
DA:23,1
DA:24,1
DA:25,1
DA:29,1
DA:30,1
DA:31,1
DA:33,1
DA:34,1
DA:35,1
DA:36,1
DA:38,1
DA:39,1
DA:40,1
DA:41,1
DA:77,2
DA:78,2
DA:79,2
DA:80,2
DA:81,2
DA:82,2
DA:83,2
DA:84,2
DA:85,2
DA:86,2
DA:90,45
DA:91,45
DA:92,45
DA:93,45
DA:94,45
DA:95,45
DA:96,45
DA:97,45
DA:98,45
DA:99,45
DA:101,0
DA:102,0
DA:103,0
DA:104,0
DA:105,0
DA:106,0
DA:107,0
DA:108,0
DA:109,0
DA:110,0
DA:116,2
DA:117,2
DA:118,2
DA:119,2
DA:122,0
DA:123,0
DA:124,0
DA:125,0
DA:127,2
DA:128,2
DA:129,2
DA:130,2
DA:132,2
DA:133,2
DA:134,2
DA:135,2
DA:137,2
DA:138,2
DA:139,2
DA:140,2
DA:142,0
DA:143,0
DA:144,0
DA:145,0
DA:153,1
DA:155,1
DA:156,1
DA:157,1
DA:158,1
DA:159,1
DA:160,1
DA:162,1
DA:163,1
DA:164,1
DA:165,1
DA:167,1
DA:168,1
DA:169,1
DA:170,1
DA:171,1
DA:172,1
DA:173,1
DA:174,1
DA:176,1
DA:177,1
DA:178,1
DA:179,1
DA:183,1
DA:184,1
BRF:0
BRH:0
LF:97
LH:79
end_of_record
SF:/Users/zool/RustroverProjects/open-lark/src/card/components/content_components/rich_text.rs
FN:53,_RNvMs_NtNtNtNtCs532nfEa3ofR_9open_lark4card10components18content_components9rich_textNtB4_18FeishuCardMarkdown10text_align
FN:63,_RNvMs_NtNtNtNtCs532nfEa3ofR_9open_lark4card10components18content_components9rich_textNtB4_18FeishuCardMarkdown4icon
FN:84,_RNvMs_NtNtNtNtCs532nfEa3ofR_9open_lark4card10components18content_components9rich_textNtB4_18FeishuCardMarkdown7content
FN:58,_RNvMs_NtNtNtNtCs532nfEa3ofR_9open_lark4card10components18content_components9rich_textNtB4_18FeishuCardMarkdown9text_size
FN:99,_RNvNtNtNtNtNtCs532nfEa3ofR_9open_lark4card10components18content_components9rich_text4tests_13test_markdown
FN:46,_RNvMs_NtNtNtNtCs532nfEa3ofR_9open_lark4card10components18content_components9rich_textNtB4_18FeishuCardMarkdown3new
FN:68,_RNvMs_NtNtNtNtCs532nfEa3ofR_9open_lark4card10components18content_components9rich_textNtB4_18FeishuCardMarkdown4href
FN:33,_RNvXNtNtNtNtCs532nfEa3ofR_9open_lark4card10components18content_components9rich_textNtB2_18FeishuCardMarkdownNtNtCsaNl6UpbT7bw_4core7default7Default7default
FNDA:0,_RNvMs_NtNtNtNtCs532nfEa3ofR_9open_lark4card10components18content_components9rich_textNtB4_18FeishuCardMarkdown10text_align
FNDA:0,_RNvMs_NtNtNtNtCs532nfEa3ofR_9open_lark4card10components18content_components9rich_textNtB4_18FeishuCardMarkdown4icon
FNDA:0,_RNvMs_NtNtNtNtCs532nfEa3ofR_9open_lark4card10components18content_components9rich_textNtB4_18FeishuCardMarkdown7content
FNDA:0,_RNvMs_NtNtNtNtCs532nfEa3ofR_9open_lark4card10components18content_components9rich_textNtB4_18FeishuCardMarkdown9text_size
FNDA:1,_RNvNtNtNtNtNtCs532nfEa3ofR_9open_lark4card10components18content_components9rich_text4tests_13test_markdown
FNDA:2,_RNvMs_NtNtNtNtCs532nfEa3ofR_9open_lark4card10components18content_components9rich_textNtB4_18FeishuCardMarkdown3new
FNDA:1,_RNvMs_NtNtNtNtCs532nfEa3ofR_9open_lark4card10components18content_components9rich_textNtB4_18FeishuCardMarkdown4href
FNDA:2,_RNvXNtNtNtNtCs532nfEa3ofR_9open_lark4card10components18content_components9rich_textNtB2_18FeishuCardMarkdownNtNtCsaNl6UpbT7bw_4core7default7Default7default
FNF:8
FNH:4
DA:33,2
DA:34,2
DA:35,2
DA:36,2
DA:37,2
DA:38,2
DA:39,2
DA:40,2
DA:41,2
DA:42,2
DA:46,2
DA:47,2
DA:48,2
DA:49,2
DA:50,2
DA:51,2
DA:53,0
DA:54,0
DA:55,0
DA:56,0
DA:58,0
DA:59,0
DA:60,0
DA:61,0
DA:63,0
DA:64,0
DA:65,0
DA:66,0
DA:68,1
DA:69,1
DA:70,1
DA:71,1
DA:72,1
DA:73,1
DA:74,1
DA:75,0
DA:76,0
DA:77,0
DA:78,0
DA:81,1
DA:82,1
DA:84,0
DA:85,0
DA:86,0
DA:87,0
DA:99,1
DA:100,1
DA:101,1
DA:102,1
DA:103,1
DA:104,1
DA:105,1
DA:110,1
DA:111,1
DA:112,1
DA:113,1
DA:114,1
DA:115,1
DA:116,1
DA:117,1
DA:120,1
DA:123,1
DA:124,1
BRF:0
BRH:0
LF:63
LH:43
end_of_record
SF:/Users/zool/RustroverProjects/open-lark/src/card/components/content_components/table.rs
FN:184,_RNvMs0_NtNtNtNtCs532nfEa3ofR_9open_lark4card10components18content_components5tableNtB5_27FeishuCardTableColumnFormat9separator
FN:223,_RNvMs2_NtNtNtNtCs532nfEa3ofR_9open_lark4card10components18content_components5tableNtB5_21FeishuCardTableColumn16horizontal_align
FN:102,_RNvMs_NtNtNtNtCs532nfEa3ofR_9open_lark4card10components18content_components5tableNtB4_26FeishuCardTableHeaderStyle10text_color
FN:280,_RNvNtNtNtNtNtCs532nfEa3ofR_9open_lark4card10components18content_components5table4tests_10test_table
FN:170,_RNvMs0_NtNtNtNtCs532nfEa3ofR_9open_lark4card10components18content_components5tableNtB5_27FeishuCardTableColumnFormat3new
FN:179,_RNvMs0_NtNtNtNtCs532nfEa3ofR_9open_lark4card10components18content_components5tableNtB5_27FeishuCardTableColumnFormat6symbol
FN:174,_RNvMs0_NtNtNtNtCs532nfEa3ofR_9open_lark4card10components18content_components5tableNtB5_27FeishuCardTableColumnFormat9precision
FN:213,_RNvMs2_NtNtNtNtCs532nfEa3ofR_9open_lark4card10components18content_components5tableNtB5_21FeishuCardTableColumn12display_name
FN:204,_RNvMs2_NtNtNtNtCs532nfEa3ofR_9open_lark4card10components18content_components5tableNtB5_21FeishuCardTableColumn3new
FN:208,_RNvMs2_NtNtNtNtCs532nfEa3ofR_9open_lark4card10components18content_components5tableNtB5_21FeishuCardTableColumn4name
FN:218,_RNvMs2_NtNtNtNtCs532nfEa3ofR_9open_lark4card10components18content_components5tableNtB5_21FeishuCardTableColumn5width
FN:233,_RNvMs2_NtNtNtNtCs532nfEa3ofR_9open_lark4card10components18content_components5tableNtB5_21FeishuCardTableColumn6format
FN:228,_RNvMs2_NtNtNtNtCs532nfEa3ofR_9open_lark4card10components18content_components5tableNtB5_21FeishuCardTableColumn9data_type
FN:249,_RNvMs3_NtNtNtNtCs532nfEa3ofR_9open_lark4card10components18content_components5tableNtB5_15FeishuCardTable10row_height
FN:254,_RNvMs3_NtNtNtNtCs532nfEa3ofR_9open_lark4card10components18content_components5tableNtB5_15FeishuCardTable12header_style
FN:240,_RNvMs3_NtNtNtNtCs532nfEa3ofR_9open_lark4card10components18content_components5tableNtB5_15FeishuCardTable3new
FN:264,_RNvMs3_NtNtNtNtCs532nfEa3ofR_9open_lark4card10components18content_components5tableNtB5_15FeishuCardTable4rows
FN:259,_RNvMs3_NtNtNtNtCs532nfEa3ofR_9open_lark4card10components18content_components5tableNtB5_15FeishuCardTable7columns
FN:244,_RNvMs3_NtNtNtNtCs532nfEa3ofR_9open_lark4card10components18content_components5tableNtB5_15FeishuCardTable8page_zie
FN:87,_RNvMs_NtNtNtNtCs532nfEa3ofR_9open_lark4card10components18content_components5tableNtB4_26FeishuCardTableHeaderStyle10text_align
FN:97,_RNvMs_NtNtNtNtCs532nfEa3ofR_9open_lark4card10components18content_components5tableNtB4_26FeishuCardTableHeaderStyle16background_style
FN:83,_RNvMs_NtNtNtNtCs532nfEa3ofR_9open_lark4card10components18content_components5tableNtB4_26FeishuCardTableHeaderStyle3new
FN:107,_RNvMs_NtNtNtNtCs532nfEa3ofR_9open_lark4card10components18content_components5tableNtB4_26FeishuCardTableHeaderStyle4bold
FN:112,_RNvMs_NtNtNtNtCs532nfEa3ofR_9open_lark4card10components18content_components5tableNtB4_26FeishuCardTableHeaderStyle5lines
FN:92,_RNvMs_NtNtNtNtCs532nfEa3ofR_9open_lark4card10components18content_components5tableNtB4_26FeishuCardTableHeaderStyle9text_size
FN:30,_RNvXNtNtNtNtCs532nfEa3ofR_9open_lark4card10components18content_components5tableNtB2_15FeishuCardTableNtNtCsaNl6UpbT7bw_4core7default7Default7default
FN:191,_RNvXs1_NtNtNtNtCs532nfEa3ofR_9open_lark4card10components18content_components5tableNtB5_21FeishuCardTableColumnNtNtCsaNl6UpbT7bw_4core7default7Default7default
FNDA:0,_RNvMs0_NtNtNtNtCs532nfEa3ofR_9open_lark4card10components18content_components5tableNtB5_27FeishuCardTableColumnFormat9separator
FNDA:0,_RNvMs2_NtNtNtNtCs532nfEa3ofR_9open_lark4card10components18content_components5tableNtB5_21FeishuCardTableColumn16horizontal_align
FNDA:0,_RNvMs_NtNtNtNtCs532nfEa3ofR_9open_lark4card10components18content_components5tableNtB4_26FeishuCardTableHeaderStyle10text_color
FNDA:1,_RNvNtNtNtNtNtCs532nfEa3ofR_9open_lark4card10components18content_components5table4tests_10test_table
FNDA:1,_RNvMs0_NtNtNtNtCs532nfEa3ofR_9open_lark4card10components18content_components5tableNtB5_27FeishuCardTableColumnFormat3new
FNDA:1,_RNvMs0_NtNtNtNtCs532nfEa3ofR_9open_lark4card10components18content_components5tableNtB5_27FeishuCardTableColumnFormat6symbol
FNDA:1,_RNvMs0_NtNtNtNtCs532nfEa3ofR_9open_lark4card10components18content_components5tableNtB5_27FeishuCardTableColumnFormat9precision
FNDA:4,_RNvMs2_NtNtNtNtCs532nfEa3ofR_9open_lark4card10components18content_components5tableNtB5_21FeishuCardTableColumn12display_name
FNDA:4,_RNvMs2_NtNtNtNtCs532nfEa3ofR_9open_lark4card10components18content_components5tableNtB5_21FeishuCardTableColumn3new
FNDA:4,_RNvMs2_NtNtNtNtCs532nfEa3ofR_9open_lark4card10components18content_components5tableNtB5_21FeishuCardTableColumn4name
FNDA:2,_RNvMs2_NtNtNtNtCs532nfEa3ofR_9open_lark4card10components18content_components5tableNtB5_21FeishuCardTableColumn5width
FNDA:1,_RNvMs2_NtNtNtNtCs532nfEa3ofR_9open_lark4card10components18content_components5tableNtB5_21FeishuCardTableColumn6format
FNDA:4,_RNvMs2_NtNtNtNtCs532nfEa3ofR_9open_lark4card10components18content_components5tableNtB5_21FeishuCardTableColumn9data_type
FNDA:1,_RNvMs3_NtNtNtNtCs532nfEa3ofR_9open_lark4card10components18content_components5tableNtB5_15FeishuCardTable10row_height
FNDA:1,_RNvMs3_NtNtNtNtCs532nfEa3ofR_9open_lark4card10components18content_components5tableNtB5_15FeishuCardTable12header_style
FNDA:1,_RNvMs3_NtNtNtNtCs532nfEa3ofR_9open_lark4card10components18content_components5tableNtB5_15FeishuCardTable3new
FNDA:1,_RNvMs3_NtNtNtNtCs532nfEa3ofR_9open_lark4card10components18content_components5tableNtB5_15FeishuCardTable4rows
FNDA:1,_RNvMs3_NtNtNtNtCs532nfEa3ofR_9open_lark4card10components18content_components5tableNtB5_15FeishuCardTable7columns
FNDA:1,_RNvMs3_NtNtNtNtCs532nfEa3ofR_9open_lark4card10components18content_components5tableNtB5_15FeishuCardTable8page_zie
FNDA:1,_RNvMs_NtNtNtNtCs532nfEa3ofR_9open_lark4card10components18content_components5tableNtB4_26FeishuCardTableHeaderStyle10text_align
FNDA:1,_RNvMs_NtNtNtNtCs532nfEa3ofR_9open_lark4card10components18content_components5tableNtB4_26FeishuCardTableHeaderStyle16background_style
FNDA:1,_RNvMs_NtNtNtNtCs532nfEa3ofR_9open_lark4card10components18content_components5tableNtB4_26FeishuCardTableHeaderStyle3new
FNDA:1,_RNvMs_NtNtNtNtCs532nfEa3ofR_9open_lark4card10components18content_components5tableNtB4_26FeishuCardTableHeaderStyle4bold
FNDA:1,_RNvMs_NtNtNtNtCs532nfEa3ofR_9open_lark4card10components18content_components5tableNtB4_26FeishuCardTableHeaderStyle5lines
FNDA:1,_RNvMs_NtNtNtNtCs532nfEa3ofR_9open_lark4card10components18content_components5tableNtB4_26FeishuCardTableHeaderStyle9text_size
FNDA:1,_RNvXNtNtNtNtCs532nfEa3ofR_9open_lark4card10components18content_components5tableNtB2_15FeishuCardTableNtNtCsaNl6UpbT7bw_4core7default7Default7default
FNDA:4,_RNvXs1_NtNtNtNtCs532nfEa3ofR_9open_lark4card10components18content_components5tableNtB5_21FeishuCardTableColumnNtNtCsaNl6UpbT7bw_4core7default7Default7default
FNF:27
FNH:24
DA:30,1
DA:31,1
DA:32,1
DA:33,1
DA:34,1
DA:35,1
DA:36,1
DA:37,1
DA:38,1
DA:39,1
DA:83,1
DA:84,1
DA:85,1
DA:87,1
DA:88,1
DA:89,1
DA:90,1
DA:92,1
DA:93,1
DA:94,1
DA:95,1
DA:97,1
DA:98,1
DA:99,1
DA:100,1
DA:102,0
DA:103,0
DA:104,0
DA:105,0
DA:107,1
DA:108,1
DA:109,1
DA:110,1
DA:112,1
DA:113,1
DA:114,1
DA:115,1
DA:170,1
DA:171,1
DA:172,1
DA:174,1
DA:175,1
DA:176,1
DA:177,1
DA:179,1
DA:180,1
DA:181,1
DA:182,1
DA:184,0
DA:185,0
DA:186,0
DA:187,0
DA:191,4
DA:192,4
DA:193,4
DA:194,4
DA:195,4
DA:196,4
DA:197,4
DA:198,4
DA:199,4
DA:200,4
DA:204,4
DA:205,4
DA:206,4
DA:208,4
DA:209,4
DA:210,4
DA:211,4
DA:213,4
DA:214,4
DA:215,4
DA:216,4
DA:218,2
DA:219,2
DA:220,2
DA:221,2
DA:223,0
DA:224,0
DA:225,0
DA:226,0
DA:228,4
DA:229,4
DA:230,4
DA:231,4
DA:233,1
DA:234,1
DA:235,1
DA:236,1
DA:240,1
DA:241,1
DA:242,1
DA:244,1
DA:245,1
DA:246,1
DA:247,1
DA:249,1
DA:250,1
DA:251,1
DA:252,1
DA:254,1
DA:255,1
DA:256,1
DA:257,1
DA:259,1
DA:260,1
DA:261,1
DA:262,1
DA:264,1
DA:265,1
DA:266,1
DA:267,1
DA:280,1
DA:281,1
DA:282,1
DA:283,1
DA:284,1
DA:285,1
DA:286,1
DA:287,1
DA:288,1
DA:289,1
DA:290,1
DA:293,1
DA:294,1
DA:295,1
DA:296,1
DA:297,1
DA:298,1
DA:299,1
DA:300,1
DA:301,1
DA:302,1
DA:303,1
DA:304,1
DA:305,1
DA:306,1
DA:307,1
DA:308,1
DA:309,1
DA:310,1
DA:312,1
DA:313,1
DA:314,1
DA:315,1
DA:316,1
DA:318,1
DA:320,1
DA:321,1
DA:323,1
DA:324,1
DA:327,1
DA:328,1
DA:332,1
DA:333,1
DA:334,1
DA:335,1
DA:336,1
DA:337,1
DA:338,1
DA:339,1
DA:340,1
DA:341,1
DA:343,1
DA:345,1
DA:346,1
DA:347,1
DA:350,1
DA:351,1
DA:352,1
DA:353,1
DA:356,1
DA:357,1
DA:358,1
DA:359,1
DA:360,1
DA:361,1
DA:363,1
DA:366,1
DA:367,1
DA:368,1
DA:371,1
DA:373,1
DA:374,1
DA:376,1
DA:377,1
DA:380,1
DA:381,1
DA:386,1
DA:387,1
BRF:0
BRH:0
LF:190
LH:178
end_of_record
SF:/Users/zool/RustroverProjects/open-lark/src/card/components/content_components/title.rs
FN:79,_RNvMNtNtNtNtCs532nfEa3ofR_9open_lark4card10components18content_components5titleNtB2_15FeishuCardTitle18i18n_text_tag_list
FN:54,_RNvMNtNtNtNtCs532nfEa3ofR_9open_lark4card10components18content_components5titleNtB2_15FeishuCardTitle4icon
FN:155,_RNvMs2_NtNtNtNtCs532nfEa3ofR_9open_lark4card10components18content_components5titleNtB5_14FeishuCardIcon3new
FN:164,_RNvMs2_NtNtNtNtCs532nfEa3ofR_9open_lark4card10components18content_components5titleNtB5_14FeishuCardIcon5build
FN:159,_RNvMs2_NtNtNtNtCs532nfEa3ofR_9open_lark4card10components18content_components5titleNtB5_14FeishuCardIcon7img_key
FN:195,_RNvMs3_NtNtNtNtCs532nfEa3ofR_9open_lark4card10components18content_components5titleNtB5_16FeishuCardUdIcon5style
FN:190,_RNvMs3_NtNtNtNtCs532nfEa3ofR_9open_lark4card10components18content_components5titleNtB5_16FeishuCardUdIcon5token
FN:146,_RNvXs1_NtNtNtNtCs532nfEa3ofR_9open_lark4card10components18content_components5titleNtB5_14FeishuCardIconNtNtCsaNl6UpbT7bw_4core7default7Default7default
FN:73,_RNvMNtNtNtNtCs532nfEa3ofR_9open_lark4card10components18content_components5titleNtB2_15FeishuCardTitle13text_tag_list
FN:37,_RNvMNtNtNtNtCs532nfEa3ofR_9open_lark4card10components18content_components5titleNtB2_15FeishuCardTitle3new
FN:42,_RNvMNtNtNtNtCs532nfEa3ofR_9open_lark4card10components18content_components5titleNtB2_15FeishuCardTitle5title
FN:60,_RNvMNtNtNtNtCs532nfEa3ofR_9open_lark4card10components18content_components5titleNtB2_15FeishuCardTitle7ud_icon
FN:48,_RNvMNtNtNtNtCs532nfEa3ofR_9open_lark4card10components18content_components5titleNtB2_15FeishuCardTitle8subtitle
FN:66,_RNvMNtNtNtNtCs532nfEa3ofR_9open_lark4card10components18content_components5titleNtB2_15FeishuCardTitle8template
FN:120,_RNvMs0_NtNtNtNtCs532nfEa3ofR_9open_lark4card10components18content_components5titleNtB5_5Title3new
FN:129,_RNvMs0_NtNtNtNtCs532nfEa3ofR_9open_lark4card10components18content_components5titleNtB5_5Title4i18n
FN:124,_RNvMs0_NtNtNtNtCs532nfEa3ofR_9open_lark4card10components18content_components5titleNtB5_5Title7content
FN:182,_RNvMs3_NtNtNtNtCs532nfEa3ofR_9open_lark4card10components18content_components5titleNtB5_16FeishuCardUdIcon3new
FN:110,_RNvXs_NtNtNtNtCs532nfEa3ofR_9open_lark4card10components18content_components5titleNtB4_5TitleNtNtCsaNl6UpbT7bw_4core7default7Default7default
FN:210,_RNvNtNtNtNtNtCs532nfEa3ofR_9open_lark4card10components18content_components5title4tests_10test_title
FN:225,_RNvNtNtNtNtNtCs532nfEa3ofR_9open_lark4card10components18content_components5title4tests_22test_feishu_card_title
FNDA:0,_RNvMNtNtNtNtCs532nfEa3ofR_9open_lark4card10components18content_components5titleNtB2_15FeishuCardTitle18i18n_text_tag_list
FNDA:0,_RNvMNtNtNtNtCs532nfEa3ofR_9open_lark4card10components18content_components5titleNtB2_15FeishuCardTitle4icon
FNDA:0,_RNvMs2_NtNtNtNtCs532nfEa3ofR_9open_lark4card10components18content_components5titleNtB5_14FeishuCardIcon3new
FNDA:0,_RNvMs2_NtNtNtNtCs532nfEa3ofR_9open_lark4card10components18content_components5titleNtB5_14FeishuCardIcon5build
FNDA:0,_RNvMs2_NtNtNtNtCs532nfEa3ofR_9open_lark4card10components18content_components5titleNtB5_14FeishuCardIcon7img_key
FNDA:0,_RNvMs3_NtNtNtNtCs532nfEa3ofR_9open_lark4card10components18content_components5titleNtB5_16FeishuCardUdIcon5style
FNDA:0,_RNvMs3_NtNtNtNtCs532nfEa3ofR_9open_lark4card10components18content_components5titleNtB5_16FeishuCardUdIcon5token
FNDA:0,_RNvXs1_NtNtNtNtCs532nfEa3ofR_9open_lark4card10components18content_components5titleNtB5_14FeishuCardIconNtNtCsaNl6UpbT7bw_4core7default7Default7default
FNDA:1,_RNvMNtNtNtNtCs532nfEa3ofR_9open_lark4card10components18content_components5titleNtB2_15FeishuCardTitle13text_tag_list
FNDA:1,_RNvMNtNtNtNtCs532nfEa3ofR_9open_lark4card10components18content_components5titleNtB2_15FeishuCardTitle3new
FNDA:1,_RNvMNtNtNtNtCs532nfEa3ofR_9open_lark4card10components18content_components5titleNtB2_15FeishuCardTitle5title
FNDA:1,_RNvMNtNtNtNtCs532nfEa3ofR_9open_lark4card10components18content_components5titleNtB2_15FeishuCardTitle7ud_icon
FNDA:1,_RNvMNtNtNtNtCs532nfEa3ofR_9open_lark4card10components18content_components5titleNtB2_15FeishuCardTitle8subtitle
FNDA:1,_RNvMNtNtNtNtCs532nfEa3ofR_9open_lark4card10components18content_components5titleNtB2_15FeishuCardTitle8template
FNDA:3,_RNvMs0_NtNtNtNtCs532nfEa3ofR_9open_lark4card10components18content_components5titleNtB5_5Title3new
FNDA:1,_RNvMs0_NtNtNtNtCs532nfEa3ofR_9open_lark4card10components18content_components5titleNtB5_5Title4i18n
FNDA:3,_RNvMs0_NtNtNtNtCs532nfEa3ofR_9open_lark4card10components18content_components5titleNtB5_5Title7content
FNDA:1,_RNvMs3_NtNtNtNtCs532nfEa3ofR_9open_lark4card10components18content_components5titleNtB5_16FeishuCardUdIcon3new
FNDA:3,_RNvXs_NtNtNtNtCs532nfEa3ofR_9open_lark4card10components18content_components5titleNtB4_5TitleNtNtCsaNl6UpbT7bw_4core7default7Default7default
FNDA:1,_RNvNtNtNtNtNtCs532nfEa3ofR_9open_lark4card10components18content_components5title4tests_10test_title
FNDA:1,_RNvNtNtNtNtNtCs532nfEa3ofR_9open_lark4card10components18content_components5title4tests_22test_feishu_card_title
FNF:21
FNH:13
DA:37,1
DA:38,1
DA:39,1
DA:42,1
DA:43,1
DA:44,1
DA:45,1
DA:48,1
DA:49,1
DA:50,1
DA:51,1
DA:54,0
DA:55,0
DA:56,0
DA:57,0
DA:60,1
DA:61,1
DA:62,1
DA:63,1
DA:66,1
DA:67,1
DA:68,1
DA:69,1
DA:70,1
DA:73,1
DA:74,1
DA:75,1
DA:76,1
DA:79,0
DA:80,0
DA:81,0
DA:82,0
DA:83,0
DA:84,0
DA:85,0
DA:110,3
DA:111,3
DA:112,3
DA:113,3
DA:114,3
DA:115,3
DA:116,3
DA:120,3
DA:121,3
DA:122,3
DA:124,3
DA:125,3
DA:126,3
DA:127,3
DA:129,1
DA:130,1
DA:131,1
DA:132,1
DA:146,0
DA:147,0
DA:148,0
DA:149,0
DA:150,0
DA:151,0
DA:155,0
DA:156,0
DA:157,0
DA:159,0
DA:160,0
DA:161,0
DA:162,0
DA:164,0
DA:165,0
DA:166,0
DA:182,1
DA:183,1
DA:184,1
DA:185,1
DA:186,1
DA:187,1
DA:188,1
DA:190,0
DA:191,0
DA:192,0
DA:193,0
DA:195,0
DA:196,0
DA:197,0
DA:198,0
DA:210,1
DA:211,1
DA:212,1
DA:213,1
DA:214,1
DA:216,1
DA:217,1
DA:219,1
DA:221,1
DA:222,1
DA:225,1
DA:226,1
DA:227,1
DA:228,1
DA:229,1
DA:230,1
DA:231,1
DA:232,1
DA:233,1
DA:234,1
DA:235,1
DA:236,1
DA:238,1
DA:239,1
DA:241,1
DA:243,1
DA:244,1
DA:245,1
DA:246,1
DA:248,1
DA:249,1
DA:250,1
DA:252,1
DA:254,1
DA:255,1
DA:256,1
DA:257,1
DA:259,1
DA:262,1
DA:263,1
DA:264,1
DA:265,1
DA:267,1
DA:270,1
DA:271,1
DA:272,1
DA:273,1
DA:277,1
BRF:0
BRH:0
LF:132
LH:97
end_of_record
SF:/Users/zool/RustroverProjects/open-lark/src/card/components/content_components/user_list.rs
FN:90,_RNCNvMs_NtNtNtNtCs532nfEa3ofR_9open_lark4card10components18content_components9user_listNtB6_18FeishuCardUserList7persons0Be_
FN:77,_RNvMs_NtNtNtNtCs532nfEa3ofR_9open_lark4card10components18content_components9user_listNtB4_18FeishuCardUserList11show_avatar
FN:63,_RNvMs_NtNtNtNtCs532nfEa3ofR_9open_lark4card10components18content_components9user_listNtB4_18FeishuCardUserList3new
FN:95,_RNvMs_NtNtNtNtCs532nfEa3ofR_9open_lark4card10components18content_components9user_listNtB4_18FeishuCardUserList4icon
FN:82,_RNvMs_NtNtNtNtCs532nfEa3ofR_9open_lark4card10components18content_components9user_listNtB4_18FeishuCardUserList4size
FN:67,_RNvMs_NtNtNtNtCs532nfEa3ofR_9open_lark4card10components18content_components9user_listNtB4_18FeishuCardUserList5lines
FN:87,_RNvMs_NtNtNtNtCs532nfEa3ofR_9open_lark4card10components18content_components9user_listNtB4_18FeishuCardUserList7persons
FN:72,_RNvMs_NtNtNtNtCs532nfEa3ofR_9open_lark4card10components18content_components9user_listNtB4_18FeishuCardUserList9show_name
FN:35,_RNvXNtNtNtNtCs532nfEa3ofR_9open_lark4card10components18content_components9user_listNtB2_18FeishuCardUserListNtNtCsaNl6UpbT7bw_4core7default7Default7default
FN:110,_RNvNtNtNtNtNtCs532nfEa3ofR_9open_lark4card10components18content_components9user_list4tests_14test_user_list
FNDA:3,_RNCNvMs_NtNtNtNtCs532nfEa3ofR_9open_lark4card10components18content_components9user_listNtB6_18FeishuCardUserList7persons0Be_
FNDA:2,_RNvMs_NtNtNtNtCs532nfEa3ofR_9open_lark4card10components18content_components9user_listNtB4_18FeishuCardUserList11show_avatar
FNDA:2,_RNvMs_NtNtNtNtCs532nfEa3ofR_9open_lark4card10components18content_components9user_listNtB4_18FeishuCardUserList3new
FNDA:2,_RNvMs_NtNtNtNtCs532nfEa3ofR_9open_lark4card10components18content_components9user_listNtB4_18FeishuCardUserList4icon
FNDA:2,_RNvMs_NtNtNtNtCs532nfEa3ofR_9open_lark4card10components18content_components9user_listNtB4_18FeishuCardUserList4size
FNDA:2,_RNvMs_NtNtNtNtCs532nfEa3ofR_9open_lark4card10components18content_components9user_listNtB4_18FeishuCardUserList5lines
FNDA:2,_RNvMs_NtNtNtNtCs532nfEa3ofR_9open_lark4card10components18content_components9user_listNtB4_18FeishuCardUserList7persons
FNDA:2,_RNvMs_NtNtNtNtCs532nfEa3ofR_9open_lark4card10components18content_components9user_listNtB4_18FeishuCardUserList9show_name
FNDA:2,_RNvXNtNtNtNtCs532nfEa3ofR_9open_lark4card10components18content_components9user_listNtB2_18FeishuCardUserListNtNtCsaNl6UpbT7bw_4core7default7Default7default
FNDA:1,_RNvNtNtNtNtNtCs532nfEa3ofR_9open_lark4card10components18content_components9user_list4tests_14test_user_list
FNF:10
FNH:10
DA:35,2
DA:36,2
DA:37,2
DA:38,2
DA:39,2
DA:40,2
DA:41,2
DA:42,2
DA:43,2
DA:44,2
DA:45,2
DA:63,2
DA:64,2
DA:65,2
DA:67,2
DA:68,2
DA:69,2
DA:70,2
DA:72,2
DA:73,2
DA:74,2
DA:75,2
DA:77,2
DA:78,2
DA:79,2
DA:80,2
DA:82,2
DA:83,2
DA:84,2
DA:85,2
DA:87,2
DA:88,2
DA:89,2
DA:90,3
DA:91,2
DA:92,2
DA:93,2
DA:95,2
DA:96,2
DA:97,2
DA:98,2
DA:110,1
DA:111,1
DA:112,1
DA:113,1
DA:114,1
DA:115,1
DA:116,1
DA:117,1
DA:118,1
DA:119,1
DA:120,1
DA:121,1
DA:123,1
DA:124,1
DA:125,1
DA:126,1
DA:127,1
DA:128,1
DA:129,1
DA:130,1
DA:131,1
DA:132,1
DA:133,1
DA:136,1
DA:138,1
DA:139,1
DA:140,1
DA:141,1
DA:142,1
DA:143,1
DA:144,1
DA:145,1
DA:147,1
DA:148,1
DA:149,1
DA:150,1
DA:151,1
DA:154,1
DA:155,1
DA:156,1
DA:157,1
DA:158,1
DA:159,1
DA:160,1
DA:162,1
DA:163,1
DA:165,1
DA:167,1
DA:168,1
DA:169,1
DA:170,1
DA:174,1
DA:175,1
BRF:0
BRH:0
LF:95
LH:95
end_of_record
SF:/Users/zool/RustroverProjects/open-lark/src/card/components/content_components/user_profile.rs
FN:38,_RNvMs_NtNtNtNtCs532nfEa3ofR_9open_lark4card10components18content_components12user_profileNtB4_21FeishuCardUserProfile3new
FN:42,_RNvMs_NtNtNtNtCs532nfEa3ofR_9open_lark4card10components18content_components12user_profileNtB4_21FeishuCardUserProfile4size
FN:47,_RNvMs_NtNtNtNtCs532nfEa3ofR_9open_lark4card10components18content_components12user_profileNtB4_21FeishuCardUserProfile7user_id
FN:28,_RNvXNtNtNtNtCs532nfEa3ofR_9open_lark4card10components18content_components12user_profileNtB2_21FeishuCardUserProfileNtNtCsaNl6UpbT7bw_4core7default7Default7default
FN:60,_RNvNtNtNtNtNtCs532nfEa3ofR_9open_lark4card10components18content_components12user_profile4tests_4test
FNDA:1,_RNvMs_NtNtNtNtCs532nfEa3ofR_9open_lark4card10components18content_components12user_profileNtB4_21FeishuCardUserProfile3new
FNDA:1,_RNvMs_NtNtNtNtCs532nfEa3ofR_9open_lark4card10components18content_components12user_profileNtB4_21FeishuCardUserProfile4size
FNDA:1,_RNvMs_NtNtNtNtCs532nfEa3ofR_9open_lark4card10components18content_components12user_profileNtB4_21FeishuCardUserProfile7user_id
FNDA:1,_RNvXNtNtNtNtCs532nfEa3ofR_9open_lark4card10components18content_components12user_profileNtB2_21FeishuCardUserProfileNtNtCsaNl6UpbT7bw_4core7default7Default7default
FNDA:1,_RNvNtNtNtNtNtCs532nfEa3ofR_9open_lark4card10components18content_components12user_profile4tests_4test
FNF:5
FNH:5
DA:28,1
DA:29,1
DA:30,1
DA:31,1
DA:32,1
DA:33,1
DA:34,1
DA:38,1
DA:39,1
DA:40,1
DA:42,1
DA:43,1
DA:44,1
DA:45,1
DA:47,1
DA:48,1
DA:49,1
DA:50,1
DA:60,1
DA:61,1
DA:62,1
DA:63,1
DA:64,1
DA:65,1
DA:66,1
DA:67,1
DA:70,1
DA:71,1
BRF:0
BRH:0
LF:28
LH:28
end_of_record
SF:/Users/zool/RustroverProjects/open-lark/src/card/components/interactive_components/button.rs
FN:148,_RNvMs_NtNtNtNtCs532nfEa3ofR_9open_lark4card10components22interactive_components6buttonNtB4_16FeishuCardButton10hover_tips
FN:158,_RNvMs_NtNtNtNtCs532nfEa3ofR_9open_lark4card10components22interactive_components6buttonNtB4_16FeishuCardButton13disabled_tips
FN:178,_RNvMs_NtNtNtNtCs532nfEa3ofR_9open_lark4card10components22interactive_components6buttonNtB4_16FeishuCardButton8required
FN:203,_RNvNtNtNtNtNtCs532nfEa3ofR_9open_lark4card10components22interactive_components6button4tests_11test_button
FN:183,_RNvMs_NtNtNtNtCs532nfEa3ofR_9open_lark4card10components22interactive_components6buttonNtB4_16FeishuCardButton11action_type
FN:118,_RNvMs_NtNtNtNtCs532nfEa3ofR_9open_lark4card10components22interactive_components6buttonNtB4_16FeishuCardButton3new
FN:143,_RNvMs_NtNtNtNtCs532nfEa3ofR_9open_lark4card10components22interactive_components6buttonNtB4_16FeishuCardButton4icon
FN:173,_RNvMs_NtNtNtNtCs532nfEa3ofR_9open_lark4card10components22interactive_components6buttonNtB4_16FeishuCardButton4name
FN:128,_RNvMs_NtNtNtNtCs532nfEa3ofR_9open_lark4card10components22interactive_components6buttonNtB4_16FeishuCardButton4size
FN:138,_RNvMs_NtNtNtNtCs532nfEa3ofR_9open_lark4card10components22interactive_components6buttonNtB4_16FeishuCardButton4text
FN:123,_RNvMs_NtNtNtNtCs532nfEa3ofR_9open_lark4card10components22interactive_components6buttonNtB4_16FeishuCardButton4type
FN:133,_RNvMs_NtNtNtNtCs532nfEa3ofR_9open_lark4card10components22interactive_components6buttonNtB4_16FeishuCardButton5width
FN:163,_RNvMs_NtNtNtNtCs532nfEa3ofR_9open_lark4card10components22interactive_components6buttonNtB4_16FeishuCardButton7confirm
FN:153,_RNvMs_NtNtNtNtCs532nfEa3ofR_9open_lark4card10components22interactive_components6buttonNtB4_16FeishuCardButton8disabled
FN:168,_RNvMs_NtNtNtNtCs532nfEa3ofR_9open_lark4card10components22interactive_components6buttonNtB4_16FeishuCardButton9behaviors
FN:97,_RNvXNtNtNtNtCs532nfEa3ofR_9open_lark4card10components22interactive_components6buttonNtB2_16FeishuCardButtonNtNtCsaNl6UpbT7bw_4core7default7Default7default
FNDA:0,_RNvMs_NtNtNtNtCs532nfEa3ofR_9open_lark4card10components22interactive_components6buttonNtB4_16FeishuCardButton10hover_tips
FNDA:0,_RNvMs_NtNtNtNtCs532nfEa3ofR_9open_lark4card10components22interactive_components6buttonNtB4_16FeishuCardButton13disabled_tips
FNDA:0,_RNvMs_NtNtNtNtCs532nfEa3ofR_9open_lark4card10components22interactive_components6buttonNtB4_16FeishuCardButton8required
FNDA:1,_RNvNtNtNtNtNtCs532nfEa3ofR_9open_lark4card10components22interactive_components6button4tests_11test_button
FNDA:1,_RNvMs_NtNtNtNtCs532nfEa3ofR_9open_lark4card10components22interactive_components6buttonNtB4_16FeishuCardButton11action_type
FNDA:2,_RNvMs_NtNtNtNtCs532nfEa3ofR_9open_lark4card10components22interactive_components6buttonNtB4_16FeishuCardButton3new
FNDA:1,_RNvMs_NtNtNtNtCs532nfEa3ofR_9open_lark4card10components22interactive_components6buttonNtB4_16FeishuCardButton4icon
FNDA:1,_RNvMs_NtNtNtNtCs532nfEa3ofR_9open_lark4card10components22interactive_components6buttonNtB4_16FeishuCardButton4name
FNDA:1,_RNvMs_NtNtNtNtCs532nfEa3ofR_9open_lark4card10components22interactive_components6buttonNtB4_16FeishuCardButton4size
FNDA:2,_RNvMs_NtNtNtNtCs532nfEa3ofR_9open_lark4card10components22interactive_components6buttonNtB4_16FeishuCardButton4text
FNDA:2,_RNvMs_NtNtNtNtCs532nfEa3ofR_9open_lark4card10components22interactive_components6buttonNtB4_16FeishuCardButton4type
FNDA:1,_RNvMs_NtNtNtNtCs532nfEa3ofR_9open_lark4card10components22interactive_components6buttonNtB4_16FeishuCardButton5width
FNDA:1,_RNvMs_NtNtNtNtCs532nfEa3ofR_9open_lark4card10components22interactive_components6buttonNtB4_16FeishuCardButton7confirm
FNDA:1,_RNvMs_NtNtNtNtCs532nfEa3ofR_9open_lark4card10components22interactive_components6buttonNtB4_16FeishuCardButton8disabled
FNDA:1,_RNvMs_NtNtNtNtCs532nfEa3ofR_9open_lark4card10components22interactive_components6buttonNtB4_16FeishuCardButton9behaviors
FNDA:2,_RNvXNtNtNtNtCs532nfEa3ofR_9open_lark4card10components22interactive_components6buttonNtB2_16FeishuCardButtonNtNtCsaNl6UpbT7bw_4core7default7Default7default
FNF:16
FNH:13
DA:97,2
DA:98,2
DA:99,2
DA:100,2
DA:101,2
DA:102,2
DA:103,2
DA:104,2
DA:105,2
DA:106,2
DA:107,2
DA:108,2
DA:109,2
DA:110,2
DA:111,2
DA:112,2
DA:113,2
DA:114,2
DA:118,2
DA:119,2
DA:120,2
DA:123,2
DA:124,2
DA:125,2
DA:126,2
DA:128,1
DA:129,1
DA:130,1
DA:131,1
DA:133,1
DA:134,1
DA:135,1
DA:136,1
DA:138,2
DA:139,2
DA:140,2
DA:141,2
DA:143,1
DA:144,1
DA:145,1
DA:146,1
DA:148,0
DA:149,0
DA:150,0
DA:151,0
DA:153,1
DA:154,1
DA:155,1
DA:156,1
DA:158,0
DA:159,0
DA:160,0
DA:161,0
DA:163,1
DA:164,1
DA:165,1
DA:166,1
DA:168,1
DA:169,1
DA:170,1
DA:171,1
DA:173,1
DA:174,1
DA:175,1
DA:176,1
DA:178,0
DA:179,0
DA:180,0
DA:181,0
DA:183,1
DA:184,1
DA:185,1
DA:186,1
DA:203,1
DA:204,1
DA:205,1
DA:206,1
DA:207,1
DA:208,1
DA:209,1
DA:210,1
DA:211,1
DA:212,1
DA:213,1
DA:215,1
DA:216,1
DA:217,1
DA:218,1
DA:219,1
DA:220,1
DA:221,1
DA:222,1
DA:223,1
DA:224,1
DA:225,1
DA:228,1
DA:229,1
DA:230,1
DA:231,1
DA:232,1
DA:233,1
DA:235,1
DA:236,1
DA:238,1
DA:240,1
DA:241,1
DA:242,1
DA:243,1
DA:246,1
DA:248,1
DA:250,1
DA:251,1
DA:252,1
DA:254,1
DA:255,1
DA:256,1
DA:259,1
DA:261,1
DA:262,1
DA:263,1
DA:264,1
DA:265,1
DA:268,1
DA:269,1
DA:271,1
DA:275,1
DA:276,1
DA:281,1
DA:282,1
BRF:0
BRH:0
LF:129
LH:117
end_of_record
SF:/Users/zool/RustroverProjects/open-lark/src/card/components/interactive_components/checker.rs
FN:248,_RNvMs1_NtNtNtNtCs532nfEa3ofR_9open_lark4card10components22interactive_components7checkerNtB5_7Buttons4type
FN:273,_RNvMs1_NtNtNtNtCs532nfEa3ofR_9open_lark4card10components22interactive_components7checkerNtB5_7Buttons9behaviors
FN:156,_RNvMs_NtNtNtNtCs532nfEa3ofR_9open_lark4card10components22interactive_components7checkerNtB4_7Checker10hover_tips
FN:166,_RNvMs_NtNtNtNtCs532nfEa3ofR_9open_lark4card10components22interactive_components7checkerNtB4_7Checker13disabled_tips
FN:146,_RNvMs_NtNtNtNtCs532nfEa3ofR_9open_lark4card10components22interactive_components7checkerNtB4_7Checker7confirm
FN:189,_RNvMs0_NtNtNtNtCs532nfEa3ofR_9open_lark4card10components22interactive_components7checkerNtB5_10ButtonArea15pc_display_rule
FN:182,_RNvMs0_NtNtNtNtCs532nfEa3ofR_9open_lark4card10components22interactive_components7checkerNtB5_10ButtonArea3new
FN:194,_RNvMs0_NtNtNtNtCs532nfEa3ofR_9open_lark4card10components22interactive_components7checkerNtB5_10ButtonArea7buttons
FN:236,_RNvMs1_NtNtNtNtCs532nfEa3ofR_9open_lark4card10components22interactive_components7checkerNtB5_7Buttons3new
FN:263,_RNvMs1_NtNtNtNtCs532nfEa3ofR_9open_lark4card10components22interactive_components7checkerNtB5_7Buttons4icon
FN:253,_RNvMs1_NtNtNtNtCs532nfEa3ofR_9open_lark4card10components22interactive_components7checkerNtB5_7Buttons4size
FN:258,_RNvMs1_NtNtNtNtCs532nfEa3ofR_9open_lark4card10components22interactive_components7checkerNtB5_7Buttons4text
FN:268,_RNvMs1_NtNtNtNtCs532nfEa3ofR_9open_lark4card10components22interactive_components7checkerNtB5_7Buttons8disabled
FN:292,_RNvMs2_NtNtNtNtCs532nfEa3ofR_9open_lark4card10components22interactive_components7checkerNtB5_12CheckedStyle18show_strikethrough
FN:288,_RNvMs2_NtNtNtNtCs532nfEa3ofR_9open_lark4card10components22interactive_components7checkerNtB5_12CheckedStyle3new
FN:297,_RNvMs2_NtNtNtNtCs532nfEa3ofR_9open_lark4card10components22interactive_components7checkerNtB5_12CheckedStyle7opacity
FN:126,_RNvMs_NtNtNtNtCs532nfEa3ofR_9open_lark4card10components22interactive_components7checkerNtB4_7Checker11button_area
FN:131,_RNvMs_NtNtNtNtCs532nfEa3ofR_9open_lark4card10components22interactive_components7checkerNtB4_7Checker13checked_style
FN:121,_RNvMs_NtNtNtNtCs532nfEa3ofR_9open_lark4card10components22interactive_components7checkerNtB4_7Checker17overall_checkable
FN:102,_RNvMs_NtNtNtNtCs532nfEa3ofR_9open_lark4card10components22interactive_components7checkerNtB4_7Checker3new
FN:106,_RNvMs_NtNtNtNtCs532nfEa3ofR_9open_lark4card10components22interactive_components7checkerNtB4_7Checker4name
FN:116,_RNvMs_NtNtNtNtCs532nfEa3ofR_9open_lark4card10components22interactive_components7checkerNtB4_7Checker4text
FN:136,_RNvMs_NtNtNtNtCs532nfEa3ofR_9open_lark4card10components22interactive_components7checkerNtB4_7Checker6margin
FN:111,_RNvMs_NtNtNtNtCs532nfEa3ofR_9open_lark4card10components22interactive_components7checkerNtB4_7Checker7checked
FN:141,_RNvMs_NtNtNtNtCs532nfEa3ofR_9open_lark4card10components22interactive_components7checkerNtB4_7Checker7padding
FN:161,_RNvMs_NtNtNtNtCs532nfEa3ofR_9open_lark4card10components22interactive_components7checkerNtB4_7Checker8disabled
FN:151,_RNvMs_NtNtNtNtCs532nfEa3ofR_9open_lark4card10components22interactive_components7checkerNtB4_7Checker9behaviors
FN:81,_RNvXNtNtNtNtCs532nfEa3ofR_9open_lark4card10components22interactive_components7checkerNtB2_7CheckerNtNtCsaNl6UpbT7bw_4core7default7Default7default
FN:312,_RNvNtNtNtNtNtCs532nfEa3ofR_9open_lark4card10components22interactive_components7checker4tests_12test_checker
FNDA:0,_RNvMs1_NtNtNtNtCs532nfEa3ofR_9open_lark4card10components22interactive_components7checkerNtB5_7Buttons4type
FNDA:0,_RNvMs1_NtNtNtNtCs532nfEa3ofR_9open_lark4card10components22interactive_components7checkerNtB5_7Buttons9behaviors
FNDA:0,_RNvMs_NtNtNtNtCs532nfEa3ofR_9open_lark4card10components22interactive_components7checkerNtB4_7Checker10hover_tips
FNDA:0,_RNvMs_NtNtNtNtCs532nfEa3ofR_9open_lark4card10components22interactive_components7checkerNtB4_7Checker13disabled_tips
FNDA:0,_RNvMs_NtNtNtNtCs532nfEa3ofR_9open_lark4card10components22interactive_components7checkerNtB4_7Checker7confirm
FNDA:1,_RNvMs0_NtNtNtNtCs532nfEa3ofR_9open_lark4card10components22interactive_components7checkerNtB5_10ButtonArea15pc_display_rule
FNDA:1,_RNvMs0_NtNtNtNtCs532nfEa3ofR_9open_lark4card10components22interactive_components7checkerNtB5_10ButtonArea3new
FNDA:1,_RNvMs0_NtNtNtNtCs532nfEa3ofR_9open_lark4card10components22interactive_components7checkerNtB5_10ButtonArea7buttons
FNDA:1,_RNvMs1_NtNtNtNtCs532nfEa3ofR_9open_lark4card10components22interactive_components7checkerNtB5_7Buttons3new
FNDA:1,_RNvMs1_NtNtNtNtCs532nfEa3ofR_9open_lark4card10components22interactive_components7checkerNtB5_7Buttons4icon
FNDA:1,_RNvMs1_NtNtNtNtCs532nfEa3ofR_9open_lark4card10components22interactive_components7checkerNtB5_7Buttons4size
FNDA:1,_RNvMs1_NtNtNtNtCs532nfEa3ofR_9open_lark4card10components22interactive_components7checkerNtB5_7Buttons4text
FNDA:1,_RNvMs1_NtNtNtNtCs532nfEa3ofR_9open_lark4card10components22interactive_components7checkerNtB5_7Buttons8disabled
FNDA:1,_RNvMs2_NtNtNtNtCs532nfEa3ofR_9open_lark4card10components22interactive_components7checkerNtB5_12CheckedStyle18show_strikethrough
FNDA:1,_RNvMs2_NtNtNtNtCs532nfEa3ofR_9open_lark4card10components22interactive_components7checkerNtB5_12CheckedStyle3new
FNDA:1,_RNvMs2_NtNtNtNtCs532nfEa3ofR_9open_lark4card10components22interactive_components7checkerNtB5_12CheckedStyle7opacity
FNDA:1,_RNvMs_NtNtNtNtCs532nfEa3ofR_9open_lark4card10components22interactive_components7checkerNtB4_7Checker11button_area
FNDA:1,_RNvMs_NtNtNtNtCs532nfEa3ofR_9open_lark4card10components22interactive_components7checkerNtB4_7Checker13checked_style
FNDA:1,_RNvMs_NtNtNtNtCs532nfEa3ofR_9open_lark4card10components22interactive_components7checkerNtB4_7Checker17overall_checkable
FNDA:1,_RNvMs_NtNtNtNtCs532nfEa3ofR_9open_lark4card10components22interactive_components7checkerNtB4_7Checker3new
FNDA:1,_RNvMs_NtNtNtNtCs532nfEa3ofR_9open_lark4card10components22interactive_components7checkerNtB4_7Checker4name
FNDA:1,_RNvMs_NtNtNtNtCs532nfEa3ofR_9open_lark4card10components22interactive_components7checkerNtB4_7Checker4text
FNDA:1,_RNvMs_NtNtNtNtCs532nfEa3ofR_9open_lark4card10components22interactive_components7checkerNtB4_7Checker6margin
FNDA:1,_RNvMs_NtNtNtNtCs532nfEa3ofR_9open_lark4card10components22interactive_components7checkerNtB4_7Checker7checked
FNDA:1,_RNvMs_NtNtNtNtCs532nfEa3ofR_9open_lark4card10components22interactive_components7checkerNtB4_7Checker7padding
FNDA:1,_RNvMs_NtNtNtNtCs532nfEa3ofR_9open_lark4card10components22interactive_components7checkerNtB4_7Checker8disabled
FNDA:1,_RNvMs_NtNtNtNtCs532nfEa3ofR_9open_lark4card10components22interactive_components7checkerNtB4_7Checker9behaviors
FNDA:1,_RNvXNtNtNtNtCs532nfEa3ofR_9open_lark4card10components22interactive_components7checkerNtB2_7CheckerNtNtCsaNl6UpbT7bw_4core7default7Default7default
FNDA:1,_RNvNtNtNtNtNtCs532nfEa3ofR_9open_lark4card10components22interactive_components7checker4tests_12test_checker
FNF:29
FNH:24
DA:81,1
DA:82,1
DA:83,1
DA:84,1
DA:85,1
DA:86,1
DA:87,1
DA:88,1
DA:89,1
DA:90,1
DA:91,1
DA:92,1
DA:93,1
DA:94,1
DA:95,1
DA:96,1
DA:97,1
DA:98,1
DA:102,1
DA:103,1
DA:104,1
DA:106,1
DA:107,1
DA:108,1
DA:109,1
DA:111,1
DA:112,1
DA:113,1
DA:114,1
DA:116,1
DA:117,1
DA:118,1
DA:119,1
DA:121,1
DA:122,1
DA:123,1
DA:124,1
DA:126,1
DA:127,1
DA:128,1
DA:129,1
DA:131,1
DA:132,1
DA:133,1
DA:134,1
DA:136,1
DA:137,1
DA:138,1
DA:139,1
DA:141,1
DA:142,1
DA:143,1
DA:144,1
DA:146,0
DA:147,0
DA:148,0
DA:149,0
DA:151,1
DA:152,1
DA:153,1
DA:154,1
DA:156,0
DA:157,0
DA:158,0
DA:159,0
DA:161,1
DA:162,1
DA:163,1
DA:164,1
DA:166,0
DA:167,0
DA:168,0
DA:169,0
DA:182,1
DA:183,1
DA:184,1
DA:185,1
DA:186,1
DA:187,1
DA:189,1
DA:190,1
DA:191,1
DA:192,1
DA:194,1
DA:195,1
DA:196,1
DA:197,1
DA:236,1
DA:237,1
DA:238,1
DA:239,1
DA:240,1
DA:241,1
DA:242,1
DA:243,1
DA:244,1
DA:245,1
DA:246,1
DA:248,0
DA:249,0
DA:250,0
DA:251,0
DA:253,1
DA:254,1
DA:255,1
DA:256,1
DA:258,1
DA:259,1
DA:260,1
DA:261,1
DA:263,1
DA:264,1
DA:265,1
DA:266,1
DA:268,1
DA:269,1
DA:270,1
DA:271,1
DA:273,0
DA:274,0
DA:275,0
DA:276,0
DA:288,1
DA:289,1
DA:290,1
DA:292,1
DA:293,1
DA:294,1
DA:295,1
DA:297,1
DA:298,1
DA:299,1
DA:300,1
DA:312,1
DA:313,1
DA:314,1
DA:315,1
DA:316,1
DA:317,1
DA:318,1
DA:319,1
DA:320,1
DA:322,1
DA:323,1
DA:324,1
DA:325,1
DA:326,1
DA:327,1
DA:328,1
DA:329,1
DA:330,1
DA:331,1
DA:332,1
DA:334,1
DA:335,1
DA:336,1
DA:337,1
DA:338,1
DA:339,1
DA:340,1
DA:342,1
DA:343,1
DA:344,1
DA:345,1
DA:346,1
DA:347,1
DA:348,1
DA:349,1
DA:350,1
DA:351,1
DA:353,1
DA:354,1
DA:355,1
DA:356,1
DA:358,1
DA:359,1
DA:360,1
DA:361,1
DA:362,1
DA:363,1
DA:365,1
DA:366,1
DA:367,1
DA:368,1
DA:369,1
DA:371,1
DA:372,1
DA:376,1
DA:377,1
DA:378,1
DA:380,1
DA:381,1
DA:384,1
DA:386,1
DA:387,1
DA:389,1
DA:394,1
DA:398,1
DA:399,1
BRF:0
BRH:0
LF:199
LH:179
end_of_record
SF:/Users/zool/RustroverProjects/open-lark/src/card/components/interactive_components/date_picker.rs
FN:126,_RNvNtNtNtNtNtCs532nfEa3ofR_9open_lark4card10components22interactive_components11date_picker5testss_16test_date_picker
FN:93,_RNvMs_NtNtNtNtCs532nfEa3ofR_9open_lark4card10components22interactive_components11date_pickerNtB4_10DatePicker11placeholder
FN:103,_RNvMs_NtNtNtNtCs532nfEa3ofR_9open_lark4card10components22interactive_components11date_pickerNtB4_10DatePicker12initial_date
FN:74,_RNvMs_NtNtNtNtCs532nfEa3ofR_9open_lark4card10components22interactive_components11date_pickerNtB4_10DatePicker3new
FN:78,_RNvMs_NtNtNtNtCs532nfEa3ofR_9open_lark4card10components22interactive_components11date_pickerNtB4_10DatePicker4name
FN:108,_RNvMs_NtNtNtNtCs532nfEa3ofR_9open_lark4card10components22interactive_components11date_pickerNtB4_10DatePicker5value
FN:98,_RNvMs_NtNtNtNtCs532nfEa3ofR_9open_lark4card10components22interactive_components11date_pickerNtB4_10DatePicker5width
FN:113,_RNvMs_NtNtNtNtCs532nfEa3ofR_9open_lark4card10components22interactive_components11date_pickerNtB4_10DatePicker7confirm
FN:88,_RNvMs_NtNtNtNtCs532nfEa3ofR_9open_lark4card10components22interactive_components11date_pickerNtB4_10DatePicker8disabled
FN:83,_RNvMs_NtNtNtNtCs532nfEa3ofR_9open_lark4card10components22interactive_components11date_pickerNtB4_10DatePicker8required
FN:58,_RNvXNtNtNtNtCs532nfEa3ofR_9open_lark4card10components22interactive_components11date_pickerNtB2_10DatePickerNtNtCsaNl6UpbT7bw_4core7default7Default7default
FNDA:1,_RNvNtNtNtNtNtCs532nfEa3ofR_9open_lark4card10components22interactive_components11date_picker5testss_16test_date_picker
FNDA:1,_RNvMs_NtNtNtNtCs532nfEa3ofR_9open_lark4card10components22interactive_components11date_pickerNtB4_10DatePicker11placeholder
FNDA:1,_RNvMs_NtNtNtNtCs532nfEa3ofR_9open_lark4card10components22interactive_components11date_pickerNtB4_10DatePicker12initial_date
FNDA:1,_RNvMs_NtNtNtNtCs532nfEa3ofR_9open_lark4card10components22interactive_components11date_pickerNtB4_10DatePicker3new
FNDA:1,_RNvMs_NtNtNtNtCs532nfEa3ofR_9open_lark4card10components22interactive_components11date_pickerNtB4_10DatePicker4name
FNDA:1,_RNvMs_NtNtNtNtCs532nfEa3ofR_9open_lark4card10components22interactive_components11date_pickerNtB4_10DatePicker5value
FNDA:1,_RNvMs_NtNtNtNtCs532nfEa3ofR_9open_lark4card10components22interactive_components11date_pickerNtB4_10DatePicker5width
FNDA:1,_RNvMs_NtNtNtNtCs532nfEa3ofR_9open_lark4card10components22interactive_components11date_pickerNtB4_10DatePicker7confirm
FNDA:1,_RNvMs_NtNtNtNtCs532nfEa3ofR_9open_lark4card10components22interactive_components11date_pickerNtB4_10DatePicker8disabled
FNDA:1,_RNvMs_NtNtNtNtCs532nfEa3ofR_9open_lark4card10components22interactive_components11date_pickerNtB4_10DatePicker8required
FNDA:1,_RNvXNtNtNtNtCs532nfEa3ofR_9open_lark4card10components22interactive_components11date_pickerNtB2_10DatePickerNtNtCsaNl6UpbT7bw_4core7default7Default7default
FNF:11
FNH:11
DA:58,1
DA:59,1
DA:60,1
DA:61,1
DA:62,1
DA:63,1
DA:64,1
DA:65,1
DA:66,1
DA:67,1
DA:68,1
DA:69,1
DA:70,1
DA:74,1
DA:75,1
DA:76,1
DA:78,1
DA:79,1
DA:80,1
DA:81,1
DA:83,1
DA:84,1
DA:85,1
DA:86,1
DA:88,1
DA:89,1
DA:90,1
DA:91,1
DA:93,1
DA:94,1
DA:95,1
DA:96,1
DA:98,1
DA:99,1
DA:100,1
DA:101,1
DA:103,1
DA:104,1
DA:105,1
DA:106,1
DA:108,1
DA:109,1
DA:110,1
DA:111,1
DA:113,1
DA:114,1
DA:115,1
DA:116,1
DA:126,1
DA:127,1
DA:128,1
DA:129,1
DA:130,1
DA:131,1
DA:132,1
DA:133,1
DA:134,1
DA:135,1
DA:137,1
DA:138,1
DA:139,1
DA:140,1
DA:141,1
DA:142,1
DA:143,1
DA:144,1
DA:146,1
DA:147,1
DA:149,1
DA:151,1
DA:153,1
DA:155,1
DA:156,1
DA:157,1
DA:159,1
DA:160,1
DA:161,1
DA:165,1
DA:166,1
BRF:0
BRH:0
LF:79
LH:79
end_of_record
SF:/Users/zool/RustroverProjects/open-lark/src/card/components/interactive_components/date_time_picker.rs
FN:136,_RNvNtNtNtNtNtCs532nfEa3ofR_9open_lark4card10components22interactive_components16date_time_picker5testss_4test
FN:105,_RNvMs_NtNtNtNtCs532nfEa3ofR_9open_lark4card10components22interactive_components16date_time_pickerNtB4_14DateTimePicker11placeholder
FN:100,_RNvMs_NtNtNtNtCs532nfEa3ofR_9open_lark4card10components22interactive_components16date_time_pickerNtB4_14DateTimePicker16initial_datetime
FN:81,_RNvMs_NtNtNtNtCs532nfEa3ofR_9open_lark4card10components22interactive_components16date_time_pickerNtB4_14DateTimePicker3new
FN:85,_RNvMs_NtNtNtNtCs532nfEa3ofR_9open_lark4card10components22interactive_components16date_time_pickerNtB4_14DateTimePicker4name
FN:115,_RNvMs_NtNtNtNtCs532nfEa3ofR_9open_lark4card10components22interactive_components16date_time_pickerNtB4_14DateTimePicker5value
FN:110,_RNvMs_NtNtNtNtCs532nfEa3ofR_9open_lark4card10components22interactive_components16date_time_pickerNtB4_14DateTimePicker5width
FN:120,_RNvMs_NtNtNtNtCs532nfEa3ofR_9open_lark4card10components22interactive_components16date_time_pickerNtB4_14DateTimePicker7confirm
FN:95,_RNvMs_NtNtNtNtCs532nfEa3ofR_9open_lark4card10components22interactive_components16date_time_pickerNtB4_14DateTimePicker8disabled
FN:90,_RNvMs_NtNtNtNtCs532nfEa3ofR_9open_lark4card10components22interactive_components16date_time_pickerNtB4_14DateTimePicker8required
FN:65,_RNvXNtNtNtNtCs532nfEa3ofR_9open_lark4card10components22interactive_components16date_time_pickerNtB2_14DateTimePickerNtNtCsaNl6UpbT7bw_4core7default7Default7default
FNDA:1,_RNvNtNtNtNtNtCs532nfEa3ofR_9open_lark4card10components22interactive_components16date_time_picker5testss_4test
FNDA:1,_RNvMs_NtNtNtNtCs532nfEa3ofR_9open_lark4card10components22interactive_components16date_time_pickerNtB4_14DateTimePicker11placeholder
FNDA:1,_RNvMs_NtNtNtNtCs532nfEa3ofR_9open_lark4card10components22interactive_components16date_time_pickerNtB4_14DateTimePicker16initial_datetime
FNDA:1,_RNvMs_NtNtNtNtCs532nfEa3ofR_9open_lark4card10components22interactive_components16date_time_pickerNtB4_14DateTimePicker3new
FNDA:1,_RNvMs_NtNtNtNtCs532nfEa3ofR_9open_lark4card10components22interactive_components16date_time_pickerNtB4_14DateTimePicker4name
FNDA:1,_RNvMs_NtNtNtNtCs532nfEa3ofR_9open_lark4card10components22interactive_components16date_time_pickerNtB4_14DateTimePicker5value
FNDA:1,_RNvMs_NtNtNtNtCs532nfEa3ofR_9open_lark4card10components22interactive_components16date_time_pickerNtB4_14DateTimePicker5width
FNDA:1,_RNvMs_NtNtNtNtCs532nfEa3ofR_9open_lark4card10components22interactive_components16date_time_pickerNtB4_14DateTimePicker7confirm
FNDA:1,_RNvMs_NtNtNtNtCs532nfEa3ofR_9open_lark4card10components22interactive_components16date_time_pickerNtB4_14DateTimePicker8disabled
FNDA:1,_RNvMs_NtNtNtNtCs532nfEa3ofR_9open_lark4card10components22interactive_components16date_time_pickerNtB4_14DateTimePicker8required
FNDA:1,_RNvXNtNtNtNtCs532nfEa3ofR_9open_lark4card10components22interactive_components16date_time_pickerNtB2_14DateTimePickerNtNtCsaNl6UpbT7bw_4core7default7Default7default
FNF:11
FNH:11
DA:65,1
DA:66,1
DA:67,1
DA:68,1
DA:69,1
DA:70,1
DA:71,1
DA:72,1
DA:73,1
DA:74,1
DA:75,1
DA:76,1
DA:77,1
DA:81,1
DA:82,1
DA:83,1
DA:85,1
DA:86,1
DA:87,1
DA:88,1
DA:90,1
DA:91,1
DA:92,1
DA:93,1
DA:95,1
DA:96,1
DA:97,1
DA:98,1
DA:100,1
DA:101,1
DA:102,1
DA:103,1
DA:105,1
DA:106,1
DA:107,1
DA:108,1
DA:110,1
DA:111,1
DA:112,1
DA:113,1
DA:115,1
DA:116,1
DA:117,1
DA:118,1
DA:120,1
DA:121,1
DA:122,1
DA:123,1
DA:136,1
DA:137,1
DA:138,1
DA:139,1
DA:140,1
DA:141,1
DA:142,1
DA:143,1
DA:144,1
DA:145,1
DA:147,1
DA:149,1
DA:150,1
DA:151,1
DA:152,1
DA:153,1
DA:154,1
DA:155,1
DA:156,1
DA:158,1
DA:159,1
DA:161,1
DA:163,1
DA:165,1
DA:167,1
DA:168,1
DA:169,1
DA:171,1
DA:172,1
DA:173,1
DA:178,1
DA:179,1
BRF:0
BRH:0
LF:80
LH:80
end_of_record
SF:/Users/zool/RustroverProjects/open-lark/src/card/components/interactive_components/image_picker.rs
FN:122,_RNvMNtNtNtNtCs532nfEa3ofR_9open_lark4card10components22interactive_components12image_pickerNtB2_17SelectImageOption10hover_tips
FN:117,_RNvMNtNtNtNtCs532nfEa3ofR_9open_lark4card10components22interactive_components12image_pickerNtB2_17SelectImageOption13disabled_tips
FN:97,_RNvMNtNtNtNtCs532nfEa3ofR_9open_lark4card10components22interactive_components12image_pickerNtB2_17SelectImageOption3new
FN:107,_RNvMNtNtNtNtCs532nfEa3ofR_9open_lark4card10components22interactive_components12image_pickerNtB2_17SelectImageOption5value
FN:112,_RNvMNtNtNtNtCs532nfEa3ofR_9open_lark4card10components22interactive_components12image_pickerNtB2_17SelectImageOption8disabled
FN:177,_RNvMs0_NtNtNtNtCs532nfEa3ofR_9open_lark4card10components22interactive_components12image_pickerNtB5_11ImagePicker11can_preview
FN:182,_RNvMs0_NtNtNtNtCs532nfEa3ofR_9open_lark4card10components22interactive_components12image_pickerNtB5_11ImagePicker12aspect_ratio
FN:157,_RNvMs0_NtNtNtNtCs532nfEa3ofR_9open_lark4card10components22interactive_components12image_pickerNtB5_11ImagePicker12multi_select
FN:192,_RNvMs0_NtNtNtNtCs532nfEa3ofR_9open_lark4card10components22interactive_components12image_pickerNtB5_11ImagePicker13disabled_tips
FN:148,_RNvMs0_NtNtNtNtCs532nfEa3ofR_9open_lark4card10components22interactive_components12image_pickerNtB5_11ImagePicker3new
FN:167,_RNvMs0_NtNtNtNtCs532nfEa3ofR_9open_lark4card10components22interactive_components12image_pickerNtB5_11ImagePicker4name
FN:152,_RNvMs0_NtNtNtNtCs532nfEa3ofR_9open_lark4card10components22interactive_components12image_pickerNtB5_11ImagePicker5style
FN:197,_RNvMs0_NtNtNtNtCs532nfEa3ofR_9open_lark4card10components22interactive_components12image_pickerNtB5_11ImagePicker5value
FN:162,_RNvMs0_NtNtNtNtCs532nfEa3ofR_9open_lark4card10components22interactive_components12image_pickerNtB5_11ImagePicker6layout
FN:202,_RNvMs0_NtNtNtNtCs532nfEa3ofR_9open_lark4card10components22interactive_components12image_pickerNtB5_11ImagePicker7options
FN:187,_RNvMs0_NtNtNtNtCs532nfEa3ofR_9open_lark4card10components22interactive_components12image_pickerNtB5_11ImagePicker8disabled
FN:172,_RNvMs0_NtNtNtNtCs532nfEa3ofR_9open_lark4card10components22interactive_components12image_pickerNtB5_11ImagePicker8required
FN:129,_RNvXs_NtNtNtNtCs532nfEa3ofR_9open_lark4card10components22interactive_components12image_pickerNtB4_11ImagePickerNtNtCsaNl6UpbT7bw_4core7default7Default7default
FN:215,_RNvNtNtNtNtNtCs532nfEa3ofR_9open_lark4card10components22interactive_components12image_picker4tests_17test_image_picker
FNDA:1,_RNvMNtNtNtNtCs532nfEa3ofR_9open_lark4card10components22interactive_components12image_pickerNtB2_17SelectImageOption10hover_tips
FNDA:1,_RNvMNtNtNtNtCs532nfEa3ofR_9open_lark4card10components22interactive_components12image_pickerNtB2_17SelectImageOption13disabled_tips
FNDA:1,_RNvMNtNtNtNtCs532nfEa3ofR_9open_lark4card10components22interactive_components12image_pickerNtB2_17SelectImageOption3new
FNDA:1,_RNvMNtNtNtNtCs532nfEa3ofR_9open_lark4card10components22interactive_components12image_pickerNtB2_17SelectImageOption5value
FNDA:1,_RNvMNtNtNtNtCs532nfEa3ofR_9open_lark4card10components22interactive_components12image_pickerNtB2_17SelectImageOption8disabled
FNDA:1,_RNvMs0_NtNtNtNtCs532nfEa3ofR_9open_lark4card10components22interactive_components12image_pickerNtB5_11ImagePicker11can_preview
FNDA:1,_RNvMs0_NtNtNtNtCs532nfEa3ofR_9open_lark4card10components22interactive_components12image_pickerNtB5_11ImagePicker12aspect_ratio
FNDA:1,_RNvMs0_NtNtNtNtCs532nfEa3ofR_9open_lark4card10components22interactive_components12image_pickerNtB5_11ImagePicker12multi_select
FNDA:1,_RNvMs0_NtNtNtNtCs532nfEa3ofR_9open_lark4card10components22interactive_components12image_pickerNtB5_11ImagePicker13disabled_tips
FNDA:1,_RNvMs0_NtNtNtNtCs532nfEa3ofR_9open_lark4card10components22interactive_components12image_pickerNtB5_11ImagePicker3new
FNDA:1,_RNvMs0_NtNtNtNtCs532nfEa3ofR_9open_lark4card10components22interactive_components12image_pickerNtB5_11ImagePicker4name
FNDA:1,_RNvMs0_NtNtNtNtCs532nfEa3ofR_9open_lark4card10components22interactive_components12image_pickerNtB5_11ImagePicker5style
FNDA:1,_RNvMs0_NtNtNtNtCs532nfEa3ofR_9open_lark4card10components22interactive_components12image_pickerNtB5_11ImagePicker5value
FNDA:1,_RNvMs0_NtNtNtNtCs532nfEa3ofR_9open_lark4card10components22interactive_components12image_pickerNtB5_11ImagePicker6layout
FNDA:1,_RNvMs0_NtNtNtNtCs532nfEa3ofR_9open_lark4card10components22interactive_components12image_pickerNtB5_11ImagePicker7options
FNDA:1,_RNvMs0_NtNtNtNtCs532nfEa3ofR_9open_lark4card10components22interactive_components12image_pickerNtB5_11ImagePicker8disabled
FNDA:1,_RNvMs0_NtNtNtNtCs532nfEa3ofR_9open_lark4card10components22interactive_components12image_pickerNtB5_11ImagePicker8required
FNDA:1,_RNvXs_NtNtNtNtCs532nfEa3ofR_9open_lark4card10components22interactive_components12image_pickerNtB4_11ImagePickerNtNtCsaNl6UpbT7bw_4core7default7Default7default
FNDA:1,_RNvNtNtNtNtNtCs532nfEa3ofR_9open_lark4card10components22interactive_components12image_picker4tests_17test_image_picker
FNF:19
FNH:19
DA:97,1
DA:98,1
DA:99,1
DA:100,1
DA:101,1
DA:102,1
DA:103,1
DA:104,1
DA:105,1
DA:107,1
DA:108,1
DA:109,1
DA:110,1
DA:112,1
DA:113,1
DA:114,1
DA:115,1
DA:117,1
DA:118,1
DA:119,1
DA:120,1
DA:122,1
DA:123,1
DA:124,1
DA:125,1
DA:129,1
DA:130,1
DA:131,1
DA:132,1
DA:133,1
DA:134,1
DA:135,1
DA:136,1
DA:137,1
DA:138,1
DA:139,1
DA:140,1
DA:141,1
DA:142,1
DA:143,1
DA:144,1
DA:148,1
DA:149,1
DA:150,1
DA:152,1
DA:153,1
DA:154,1
DA:155,1
DA:157,1
DA:158,1
DA:159,1
DA:160,1
DA:162,1
DA:163,1
DA:164,1
DA:165,1
DA:167,1
DA:168,1
DA:169,1
DA:170,1
DA:172,1
DA:173,1
DA:174,1
DA:175,1
DA:177,1
DA:178,1
DA:179,1
DA:180,1
DA:182,1
DA:183,1
DA:184,1
DA:185,1
DA:187,1
DA:188,1
DA:189,1
DA:190,1
DA:192,1
DA:193,1
DA:194,1
DA:195,1
DA:197,1
DA:198,1
DA:199,1
DA:200,1
DA:202,1
DA:203,1
DA:204,1
DA:205,1
DA:215,1
DA:216,1
DA:217,1
DA:218,1
DA:219,1
DA:220,1
DA:221,1
DA:222,1
DA:223,1
DA:224,1
DA:225,1
DA:226,1
DA:227,1
DA:228,1
DA:229,1
DA:230,1
DA:231,1
DA:233,1
DA:234,1
DA:235,1
DA:236,1
DA:237,1
DA:238,1
DA:239,1
DA:240,1
DA:241,1
DA:242,1
DA:243,1
DA:244,1
DA:245,1
DA:247,1
DA:248,1
DA:251,1
DA:253,1
DA:254,1
DA:255,1
DA:256,1
DA:257,1
DA:258,1
DA:260,1
DA:261,1
DA:262,1
DA:268,1
DA:269,1
BRF:0
BRH:0
LF:132
LH:132
end_of_record
SF:/Users/zool/RustroverProjects/open-lark/src/card/components/interactive_components/input.rs
FN:215,_RNvMs2_NtNtNtNtCs532nfEa3ofR_9open_lark4card10components22interactive_components5inputNtB5_15FeishuCardInput5build
FN:116,_RNvMs_NtNtNtNtCs532nfEa3ofR_9open_lark4card10components22interactive_components5inputNtB4_12InputConfirm4text
FN:111,_RNvMs_NtNtNtNtCs532nfEa3ofR_9open_lark4card10components22interactive_components5inputNtB4_12InputConfirm5title
FN:229,_RNvNtNtNtNtNtCs532nfEa3ofR_9open_lark4card10components22interactive_components5input5testss_18test_input_builder
FN:140,_RNvMs1_NtNtNtNtCs532nfEa3ofR_9open_lark4card10components22interactive_components5inputNtB5_13InputFallback3new
FN:144,_RNvMs1_NtNtNtNtCs532nfEa3ofR_9open_lark4card10components22interactive_components5inputNtB5_13InputFallback4text
FN:185,_RNvMs2_NtNtNtNtCs532nfEa3ofR_9open_lark4card10components22interactive_components5inputNtB5_15FeishuCardInput10max_length
FN:170,_RNvMs2_NtNtNtNtCs532nfEa3ofR_9open_lark4card10components22interactive_components5inputNtB5_15FeishuCardInput11placeholder
FN:175,_RNvMs2_NtNtNtNtCs532nfEa3ofR_9open_lark4card10components22interactive_components5inputNtB5_15FeishuCardInput13default_value
FN:195,_RNvMs2_NtNtNtNtCs532nfEa3ofR_9open_lark4card10components22interactive_components5inputNtB5_15FeishuCardInput14label_position
FN:151,_RNvMs2_NtNtNtNtCs532nfEa3ofR_9open_lark4card10components22interactive_components5inputNtB5_15FeishuCardInput3new
FN:155,_RNvMs2_NtNtNtNtCs532nfEa3ofR_9open_lark4card10components22interactive_components5inputNtB5_15FeishuCardInput4name
FN:190,_RNvMs2_NtNtNtNtCs532nfEa3ofR_9open_lark4card10components22interactive_components5inputNtB5_15FeishuCardInput5label
FN:200,_RNvMs2_NtNtNtNtCs532nfEa3ofR_9open_lark4card10components22interactive_components5inputNtB5_15FeishuCardInput5value
FN:180,_RNvMs2_NtNtNtNtCs532nfEa3ofR_9open_lark4card10components22interactive_components5inputNtB5_15FeishuCardInput5width
FN:205,_RNvMs2_NtNtNtNtCs532nfEa3ofR_9open_lark4card10components22interactive_components5inputNtB5_15FeishuCardInput7confirm
FN:165,_RNvMs2_NtNtNtNtCs532nfEa3ofR_9open_lark4card10components22interactive_components5inputNtB5_15FeishuCardInput8disabled
FN:210,_RNvMs2_NtNtNtNtCs532nfEa3ofR_9open_lark4card10components22interactive_components5inputNtB5_15FeishuCardInput8fallback
FN:160,_RNvMs2_NtNtNtNtCs532nfEa3ofR_9open_lark4card10components22interactive_components5inputNtB5_15FeishuCardInput8required
FN:104,_RNvMs_NtNtNtNtCs532nfEa3ofR_9open_lark4card10components22interactive_components5inputNtB4_12InputConfirm3new
FN:78,_RNvXNtNtNtNtCs532nfEa3ofR_9open_lark4card10components22interactive_components5inputNtB2_15FeishuCardInputNtNtCsaNl6UpbT7bw_4core7default7Default7default
FN:131,_RNvXs0_NtNtNtNtCs532nfEa3ofR_9open_lark4card10components22interactive_components5inputNtB5_13InputFallbackNtNtCsaNl6UpbT7bw_4core7default7Default7default
FNDA:0,_RNvMs2_NtNtNtNtCs532nfEa3ofR_9open_lark4card10components22interactive_components5inputNtB5_15FeishuCardInput5build
FNDA:0,_RNvMs_NtNtNtNtCs532nfEa3ofR_9open_lark4card10components22interactive_components5inputNtB4_12InputConfirm4text
FNDA:0,_RNvMs_NtNtNtNtCs532nfEa3ofR_9open_lark4card10components22interactive_components5inputNtB4_12InputConfirm5title
FNDA:1,_RNvNtNtNtNtNtCs532nfEa3ofR_9open_lark4card10components22interactive_components5input5testss_18test_input_builder
FNDA:1,_RNvMs1_NtNtNtNtCs532nfEa3ofR_9open_lark4card10components22interactive_components5inputNtB5_13InputFallback3new
FNDA:1,_RNvMs1_NtNtNtNtCs532nfEa3ofR_9open_lark4card10components22interactive_components5inputNtB5_13InputFallback4text
FNDA:1,_RNvMs2_NtNtNtNtCs532nfEa3ofR_9open_lark4card10components22interactive_components5inputNtB5_15FeishuCardInput10max_length
FNDA:1,_RNvMs2_NtNtNtNtCs532nfEa3ofR_9open_lark4card10components22interactive_components5inputNtB5_15FeishuCardInput11placeholder
FNDA:1,_RNvMs2_NtNtNtNtCs532nfEa3ofR_9open_lark4card10components22interactive_components5inputNtB5_15FeishuCardInput13default_value
FNDA:1,_RNvMs2_NtNtNtNtCs532nfEa3ofR_9open_lark4card10components22interactive_components5inputNtB5_15FeishuCardInput14label_position
FNDA:2,_RNvMs2_NtNtNtNtCs532nfEa3ofR_9open_lark4card10components22interactive_components5inputNtB5_15FeishuCardInput3new
FNDA:2,_RNvMs2_NtNtNtNtCs532nfEa3ofR_9open_lark4card10components22interactive_components5inputNtB5_15FeishuCardInput4name
FNDA:1,_RNvMs2_NtNtNtNtCs532nfEa3ofR_9open_lark4card10components22interactive_components5inputNtB5_15FeishuCardInput5label
FNDA:1,_RNvMs2_NtNtNtNtCs532nfEa3ofR_9open_lark4card10components22interactive_components5inputNtB5_15FeishuCardInput5value
FNDA:1,_RNvMs2_NtNtNtNtCs532nfEa3ofR_9open_lark4card10components22interactive_components5inputNtB5_15FeishuCardInput5width
FNDA:1,_RNvMs2_NtNtNtNtCs532nfEa3ofR_9open_lark4card10components22interactive_components5inputNtB5_15FeishuCardInput7confirm
FNDA:1,_RNvMs2_NtNtNtNtCs532nfEa3ofR_9open_lark4card10components22interactive_components5inputNtB5_15FeishuCardInput8disabled
FNDA:1,_RNvMs2_NtNtNtNtCs532nfEa3ofR_9open_lark4card10components22interactive_components5inputNtB5_15FeishuCardInput8fallback
FNDA:2,_RNvMs2_NtNtNtNtCs532nfEa3ofR_9open_lark4card10components22interactive_components5inputNtB5_15FeishuCardInput8required
FNDA:8,_RNvMs_NtNtNtNtCs532nfEa3ofR_9open_lark4card10components22interactive_components5inputNtB4_12InputConfirm3new
FNDA:2,_RNvXNtNtNtNtCs532nfEa3ofR_9open_lark4card10components22interactive_components5inputNtB2_15FeishuCardInputNtNtCsaNl6UpbT7bw_4core7default7Default7default
FNDA:1,_RNvXs0_NtNtNtNtCs532nfEa3ofR_9open_lark4card10components22interactive_components5inputNtB5_13InputFallbackNtNtCsaNl6UpbT7bw_4core7default7Default7default
FNF:22
FNH:19
DA:78,2
DA:79,2
DA:80,2
DA:81,2
DA:82,2
DA:83,2
DA:84,2
DA:85,2
DA:86,2
DA:87,2
DA:88,2
DA:89,2
DA:90,2
DA:91,2
DA:92,2
DA:93,2
DA:94,2
DA:104,8
DA:105,8
DA:106,8
DA:107,8
DA:108,8
DA:109,8
DA:111,0
DA:112,0
DA:113,0
DA:114,0
DA:116,0
DA:117,0
DA:118,0
DA:119,0
DA:131,1
DA:132,1
DA:133,1
DA:134,1
DA:135,1
DA:136,1
DA:140,1
DA:141,1
DA:142,1
DA:144,1
DA:145,1
DA:146,1
DA:147,1
DA:151,2
DA:152,2
DA:153,2
DA:155,2
DA:156,2
DA:157,2
DA:158,2
DA:160,2
DA:161,2
DA:162,2
DA:163,2
DA:165,1
DA:166,1
DA:167,1
DA:168,1
DA:170,1
DA:171,1
DA:172,1
DA:173,1
DA:175,1
DA:176,1
DA:177,1
DA:178,1
DA:180,1
DA:181,1
DA:182,1
DA:183,1
DA:185,1
DA:186,1
DA:187,1
DA:188,1
DA:190,1
DA:191,1
DA:192,1
DA:193,1
DA:195,1
DA:196,1
DA:197,1
DA:198,1
DA:200,1
DA:201,1
DA:202,1
DA:203,1
DA:205,1
DA:206,1
DA:207,1
DA:208,1
DA:210,1
DA:211,1
DA:212,1
DA:213,1
DA:215,0
DA:216,0
DA:217,0
DA:229,1
DA:230,1
DA:231,1
DA:232,1
DA:233,1
DA:234,1
DA:235,1
DA:236,1
DA:237,1
DA:238,1
DA:239,1
DA:240,1
DA:241,1
DA:242,1
DA:244,1
DA:245,1
DA:246,1
DA:247,1
DA:248,1
DA:249,1
DA:251,1
DA:252,1
DA:254,1
DA:255,1
DA:256,1
DA:257,1
DA:259,1
DA:260,1
DA:262,1
DA:263,1
DA:265,1
DA:267,1
DA:269,1
DA:270,1
DA:271,1
DA:273,1
DA:274,1
DA:275,1
DA:278,1
DA:280,1
DA:281,1
DA:282,1
DA:283,1
DA:288,1
DA:289,1
BRF:0
BRH:0
LF:143
LH:132
end_of_record
SF:/Users/zool/RustroverProjects/open-lark/src/card/components/interactive_components/multi_select_person.rs
FN:91,_RNvMs_NtNtNtNtCs532nfEa3ofR_9open_lark4card10components22interactive_components19multi_select_personNtB4_17MultiSelectPerson11placeholder
FN:111,_RNvMs_NtNtNtNtCs532nfEa3ofR_9open_lark4card10components22interactive_components19multi_select_personNtB4_17MultiSelectPerson15selected_values
FN:72,_RNvMs_NtNtNtNtCs532nfEa3ofR_9open_lark4card10components22interactive_components19multi_select_personNtB4_17MultiSelectPerson3new
FN:106,_RNvMs_NtNtNtNtCs532nfEa3ofR_9open_lark4card10components22interactive_components19multi_select_personNtB4_17MultiSelectPerson4name
FN:76,_RNvMs_NtNtNtNtCs532nfEa3ofR_9open_lark4card10components22interactive_components19multi_select_personNtB4_17MultiSelectPerson4type
FN:96,_RNvMs_NtNtNtNtCs532nfEa3ofR_9open_lark4card10components22interactive_components19multi_select_personNtB4_17MultiSelectPerson5width
FN:101,_RNvMs_NtNtNtNtCs532nfEa3ofR_9open_lark4card10components22interactive_components19multi_select_personNtB4_17MultiSelectPerson7options
FN:86,_RNvMs_NtNtNtNtCs532nfEa3ofR_9open_lark4card10components22interactive_components19multi_select_personNtB4_17MultiSelectPerson8disabled
FN:81,_RNvMs_NtNtNtNtCs532nfEa3ofR_9open_lark4card10components22interactive_components19multi_select_personNtB4_17MultiSelectPerson8required
FN:56,_RNvXNtNtNtNtCs532nfEa3ofR_9open_lark4card10components22interactive_components19multi_select_personNtB2_17MultiSelectPersonNtNtCsaNl6UpbT7bw_4core7default7Default7default
FN:112,_RNCNvMs_NtNtNtNtCs532nfEa3ofR_9open_lark4card10components22interactive_components19multi_select_personNtB6_17MultiSelectPerson15selected_values0Be_
FN:126,_RNvNtNtNtNtNtCs532nfEa3ofR_9open_lark4card10components22interactive_components19multi_select_person4tests_18test_select_person
FNDA:1,_RNvMs_NtNtNtNtCs532nfEa3ofR_9open_lark4card10components22interactive_components19multi_select_personNtB4_17MultiSelectPerson11placeholder
FNDA:1,_RNvMs_NtNtNtNtCs532nfEa3ofR_9open_lark4card10components22interactive_components19multi_select_personNtB4_17MultiSelectPerson15selected_values
FNDA:1,_RNvMs_NtNtNtNtCs532nfEa3ofR_9open_lark4card10components22interactive_components19multi_select_personNtB4_17MultiSelectPerson3new
FNDA:1,_RNvMs_NtNtNtNtCs532nfEa3ofR_9open_lark4card10components22interactive_components19multi_select_personNtB4_17MultiSelectPerson4name
FNDA:1,_RNvMs_NtNtNtNtCs532nfEa3ofR_9open_lark4card10components22interactive_components19multi_select_personNtB4_17MultiSelectPerson4type
FNDA:1,_RNvMs_NtNtNtNtCs532nfEa3ofR_9open_lark4card10components22interactive_components19multi_select_personNtB4_17MultiSelectPerson5width
FNDA:1,_RNvMs_NtNtNtNtCs532nfEa3ofR_9open_lark4card10components22interactive_components19multi_select_personNtB4_17MultiSelectPerson7options
FNDA:1,_RNvMs_NtNtNtNtCs532nfEa3ofR_9open_lark4card10components22interactive_components19multi_select_personNtB4_17MultiSelectPerson8disabled
FNDA:1,_RNvMs_NtNtNtNtCs532nfEa3ofR_9open_lark4card10components22interactive_components19multi_select_personNtB4_17MultiSelectPerson8required
FNDA:1,_RNvXNtNtNtNtCs532nfEa3ofR_9open_lark4card10components22interactive_components19multi_select_personNtB2_17MultiSelectPersonNtNtCsaNl6UpbT7bw_4core7default7Default7default
FNDA:1,_RNCNvMs_NtNtNtNtCs532nfEa3ofR_9open_lark4card10components22interactive_components19multi_select_personNtB6_17MultiSelectPerson15selected_values0Be_
FNDA:1,_RNvNtNtNtNtNtCs532nfEa3ofR_9open_lark4card10components22interactive_components19multi_select_person4tests_18test_select_person
FNF:12
FNH:12
DA:56,1
DA:57,1
DA:58,1
DA:59,1
DA:60,1
DA:61,1
DA:62,1
DA:63,1
DA:64,1
DA:65,1
DA:66,1
DA:67,1
DA:68,1
DA:72,1
DA:73,1
DA:74,1
DA:76,1
DA:77,1
DA:78,1
DA:79,1
DA:81,1
DA:82,1
DA:83,1
DA:84,1
DA:86,1
DA:87,1
DA:88,1
DA:89,1
DA:91,1
DA:92,1
DA:93,1
DA:94,1
DA:96,1
DA:97,1
DA:98,1
DA:99,1
DA:101,1
DA:102,1
DA:103,1
DA:104,1
DA:106,1
DA:107,1
DA:108,1
DA:109,1
DA:111,1
DA:112,1
DA:113,1
DA:114,1
DA:126,1
DA:127,1
DA:128,1
DA:129,1
DA:130,1
DA:131,1
DA:132,1
DA:133,1
DA:134,1
DA:135,1
DA:136,1
DA:137,1
DA:140,1
DA:141,1
DA:142,1
DA:143,1
DA:144,1
DA:146,1
DA:147,1
DA:149,1
DA:150,1
DA:151,1
DA:152,1
DA:153,1
DA:156,1
DA:159,1
DA:164,1
DA:165,1
BRF:0
BRH:0
LF:77
LH:77
end_of_record
SF:/Users/zool/RustroverProjects/open-lark/src/card/components/interactive_components/multi_select_static.rs
FN:129,_RNvMs_NtNtNtNtCs532nfEa3ofR_9open_lark4card10components22interactive_components19multi_select_staticNtB4_17MultiSelectStatic7confirm
FN:109,_RNvMs_NtNtNtNtCs532nfEa3ofR_9open_lark4card10components22interactive_components19multi_select_staticNtB4_17MultiSelectStatic11placeholder
FN:85,_RNvMs_NtNtNtNtCs532nfEa3ofR_9open_lark4card10components22interactive_components19multi_select_staticNtB4_17MultiSelectStatic3new
FN:94,_RNvMs_NtNtNtNtCs532nfEa3ofR_9open_lark4card10components22interactive_components19multi_select_staticNtB4_17MultiSelectStatic4name
FN:89,_RNvMs_NtNtNtNtCs532nfEa3ofR_9open_lark4card10components22interactive_components19multi_select_staticNtB4_17MultiSelectStatic4type
FN:114,_RNvMs_NtNtNtNtCs532nfEa3ofR_9open_lark4card10components22interactive_components19multi_select_staticNtB4_17MultiSelectStatic5width
FN:119,_RNvMs_NtNtNtNtCs532nfEa3ofR_9open_lark4card10components22interactive_components19multi_select_staticNtB4_17MultiSelectStatic6values
FN:124,_RNvMs_NtNtNtNtCs532nfEa3ofR_9open_lark4card10components22interactive_components19multi_select_staticNtB4_17MultiSelectStatic7options
FN:104,_RNvMs_NtNtNtNtCs532nfEa3ofR_9open_lark4card10components22interactive_components19multi_select_staticNtB4_17MultiSelectStatic8disabled
FN:99,_RNvMs_NtNtNtNtCs532nfEa3ofR_9open_lark4card10components22interactive_components19multi_select_staticNtB4_17MultiSelectStatic8required
FN:68,_RNvXNtNtNtNtCs532nfEa3ofR_9open_lark4card10components22interactive_components19multi_select_staticNtB2_17MultiSelectStaticNtNtCsaNl6UpbT7bw_4core7default7Default7default
FN:150,_RNvNtNtNtNtNtCs532nfEa3ofR_9open_lark4card10components22interactive_components19multi_select_static4tests_18test_select_static
FN:120,_RNCNvMs_NtNtNtNtCs532nfEa3ofR_9open_lark4card10components22interactive_components19multi_select_staticNtB6_17MultiSelectStatic6values0Be_
FNDA:0,_RNvMs_NtNtNtNtCs532nfEa3ofR_9open_lark4card10components22interactive_components19multi_select_staticNtB4_17MultiSelectStatic7confirm
FNDA:1,_RNvMs_NtNtNtNtCs532nfEa3ofR_9open_lark4card10components22interactive_components19multi_select_staticNtB4_17MultiSelectStatic11placeholder
FNDA:1,_RNvMs_NtNtNtNtCs532nfEa3ofR_9open_lark4card10components22interactive_components19multi_select_staticNtB4_17MultiSelectStatic3new
FNDA:1,_RNvMs_NtNtNtNtCs532nfEa3ofR_9open_lark4card10components22interactive_components19multi_select_staticNtB4_17MultiSelectStatic4name
FNDA:1,_RNvMs_NtNtNtNtCs532nfEa3ofR_9open_lark4card10components22interactive_components19multi_select_staticNtB4_17MultiSelectStatic4type
FNDA:1,_RNvMs_NtNtNtNtCs532nfEa3ofR_9open_lark4card10components22interactive_components19multi_select_staticNtB4_17MultiSelectStatic5width
FNDA:1,_RNvMs_NtNtNtNtCs532nfEa3ofR_9open_lark4card10components22interactive_components19multi_select_staticNtB4_17MultiSelectStatic6values
FNDA:1,_RNvMs_NtNtNtNtCs532nfEa3ofR_9open_lark4card10components22interactive_components19multi_select_staticNtB4_17MultiSelectStatic7options
FNDA:1,_RNvMs_NtNtNtNtCs532nfEa3ofR_9open_lark4card10components22interactive_components19multi_select_staticNtB4_17MultiSelectStatic8disabled
FNDA:1,_RNvMs_NtNtNtNtCs532nfEa3ofR_9open_lark4card10components22interactive_components19multi_select_staticNtB4_17MultiSelectStatic8required
FNDA:1,_RNvXNtNtNtNtCs532nfEa3ofR_9open_lark4card10components22interactive_components19multi_select_staticNtB2_17MultiSelectStaticNtNtCsaNl6UpbT7bw_4core7default7Default7default
FNDA:1,_RNvNtNtNtNtNtCs532nfEa3ofR_9open_lark4card10components22interactive_components19multi_select_static4tests_18test_select_static
FNDA:0,_RNCNvMs_NtNtNtNtCs532nfEa3ofR_9open_lark4card10components22interactive_components19multi_select_staticNtB6_17MultiSelectStatic6values0Be_
FNF:13
FNH:11
DA:68,1
DA:69,1
DA:70,1
DA:71,1
DA:72,1
DA:73,1
DA:74,1
DA:75,1
DA:76,1
DA:77,1
DA:78,1
DA:79,1
DA:80,1
DA:81,1
DA:85,1
DA:86,1
DA:87,1
DA:89,1
DA:90,1
DA:91,1
DA:92,1
DA:94,1
DA:95,1
DA:96,1
DA:97,1
DA:99,1
DA:100,1
DA:101,1
DA:102,1
DA:104,1
DA:105,1
DA:106,1
DA:107,1
DA:109,1
DA:110,1
DA:111,1
DA:112,1
DA:114,1
DA:115,1
DA:116,1
DA:117,1
DA:119,1
DA:120,1
DA:121,1
DA:122,1
DA:124,1
DA:125,1
DA:126,1
DA:127,1
DA:129,0
DA:130,0
DA:131,0
DA:132,0
DA:150,1
DA:151,1
DA:152,1
DA:153,1
DA:154,1
DA:155,1
DA:156,1
DA:157,1
DA:158,1
DA:159,1
DA:160,1
DA:161,1
DA:162,1
DA:163,1
DA:164,1
DA:166,1
DA:168,1
DA:169,1
DA:170,1
DA:171,1
DA:172,1
DA:173,1
DA:174,1
DA:176,1
DA:177,1
DA:179,1
DA:180,1
DA:181,1
DA:184,1
DA:186,1
DA:187,1
DA:189,1
DA:191,1
DA:192,1
DA:193,1
DA:194,1
DA:196,1
DA:201,1
DA:202,1
BRF:0
BRH:0
LF:93
LH:88
end_of_record
SF:/Users/zool/RustroverProjects/open-lark/src/card/components/interactive_components/overflow.rs
FN:74,_RNvMs_NtNtNtNtCs532nfEa3ofR_9open_lark4card10components22interactive_components8overflowNtB4_18FeishuCardOverflow10add_option
FN:128,_RNvNtNtNtNtNtCs532nfEa3ofR_9open_lark4card10components22interactive_components8overflow4tests_13test_overflow
FN:106,_RINvMs0_NtNtNtNtCs532nfEa3ofR_9open_lark4card10components22interactive_components8overflowNtB6_14OverflowOption5valueReEBe_
FN:92,_RNvMs0_NtNtNtNtCs532nfEa3ofR_9open_lark4card10components22interactive_components8overflowNtB5_14OverflowOption3new
FN:96,_RNvMs0_NtNtNtNtCs532nfEa3ofR_9open_lark4card10components22interactive_components8overflowNtB5_14OverflowOption4text
FN:101,_RNvMs0_NtNtNtNtCs532nfEa3ofR_9open_lark4card10components22interactive_components8overflowNtB5_14OverflowOption9multi_url
FN:50,_RNvMs_NtNtNtNtCs532nfEa3ofR_9open_lark4card10components22interactive_components8overflowNtB4_18FeishuCardOverflow3new
FN:64,_RNvMs_NtNtNtNtCs532nfEa3ofR_9open_lark4card10components22interactive_components8overflowNtB4_18FeishuCardOverflow5value
FN:54,_RNvMs_NtNtNtNtCs532nfEa3ofR_9open_lark4card10components22interactive_components8overflowNtB4_18FeishuCardOverflow5width
FN:69,_RNvMs_NtNtNtNtCs532nfEa3ofR_9open_lark4card10components22interactive_components8overflowNtB4_18FeishuCardOverflow7confirm
FN:59,_RNvMs_NtNtNtNtCs532nfEa3ofR_9open_lark4card10components22interactive_components8overflowNtB4_18FeishuCardOverflow7options
FN:38,_RNvXNtNtNtNtCs532nfEa3ofR_9open_lark4card10components22interactive_components8overflowNtB2_18FeishuCardOverflowNtNtCsaNl6UpbT7bw_4core7default7Default7default
FNDA:0,_RNvMs_NtNtNtNtCs532nfEa3ofR_9open_lark4card10components22interactive_components8overflowNtB4_18FeishuCardOverflow10add_option
FNDA:1,_RNvNtNtNtNtNtCs532nfEa3ofR_9open_lark4card10components22interactive_components8overflow4tests_13test_overflow
FNDA:1,_RINvMs0_NtNtNtNtCs532nfEa3ofR_9open_lark4card10components22interactive_components8overflowNtB6_14OverflowOption5valueReEBe_
FNDA:1,_RNvMs0_NtNtNtNtCs532nfEa3ofR_9open_lark4card10components22interactive_components8overflowNtB5_14OverflowOption3new
FNDA:1,_RNvMs0_NtNtNtNtCs532nfEa3ofR_9open_lark4card10components22interactive_components8overflowNtB5_14OverflowOption4text
FNDA:1,_RNvMs0_NtNtNtNtCs532nfEa3ofR_9open_lark4card10components22interactive_components8overflowNtB5_14OverflowOption9multi_url
FNDA:1,_RNvMs_NtNtNtNtCs532nfEa3ofR_9open_lark4card10components22interactive_components8overflowNtB4_18FeishuCardOverflow3new
FNDA:1,_RNvMs_NtNtNtNtCs532nfEa3ofR_9open_lark4card10components22interactive_components8overflowNtB4_18FeishuCardOverflow5value
FNDA:1,_RNvMs_NtNtNtNtCs532nfEa3ofR_9open_lark4card10components22interactive_components8overflowNtB4_18FeishuCardOverflow5width
FNDA:1,_RNvMs_NtNtNtNtCs532nfEa3ofR_9open_lark4card10components22interactive_components8overflowNtB4_18FeishuCardOverflow7confirm
FNDA:1,_RNvMs_NtNtNtNtCs532nfEa3ofR_9open_lark4card10components22interactive_components8overflowNtB4_18FeishuCardOverflow7options
FNDA:1,_RNvXNtNtNtNtCs532nfEa3ofR_9open_lark4card10components22interactive_components8overflowNtB2_18FeishuCardOverflowNtNtCsaNl6UpbT7bw_4core7default7Default7default
FNF:12
FNH:11
DA:38,1
DA:39,1
DA:40,1
DA:41,1
DA:42,1
DA:43,1
DA:44,1
DA:45,1
DA:46,1
DA:50,1
DA:51,1
DA:52,1
DA:54,1
DA:55,1
DA:56,1
DA:57,1
DA:59,1
DA:60,1
DA:61,1
DA:62,1
DA:64,1
DA:65,1
DA:66,1
DA:67,1
DA:69,1
DA:70,1
DA:71,1
DA:72,1
DA:74,0
DA:75,0
DA:76,0
DA:77,0
DA:92,1
DA:93,1
DA:94,1
DA:96,1
DA:97,1
DA:98,1
DA:99,1
DA:101,1
DA:102,1
DA:103,1
DA:104,1
DA:106,1
DA:107,1
DA:108,1
DA:109,1
DA:128,1
DA:129,1
DA:130,1
DA:131,1
DA:132,1
DA:133,1
DA:134,1
DA:136,1
DA:137,1
DA:138,1
DA:140,1
DA:141,1
DA:142,1
DA:143,1
DA:146,1
DA:147,1
DA:148,1
DA:150,1
DA:151,1
DA:153,1
DA:156,1
DA:158,1
DA:160,1
DA:162,1
DA:163,1
DA:164,1
DA:166,1
DA:167,1
DA:168,1
DA:173,1
DA:174,1
BRF:0
BRH:0
LF:78
LH:74
end_of_record
SF:/Users/zool/RustroverProjects/open-lark/src/card/components/interactive_components/picker_time.rs
FN:129,_RNvNtNtNtNtNtCs532nfEa3ofR_9open_lark4card10components22interactive_components11picker_time4tests_18test_time_selector
FN:103,_RNvMs_NtNtNtNtCs532nfEa3ofR_9open_lark4card10components22interactive_components11picker_timeNtB4_10PickerTime11placeholder
FN:98,_RNvMs_NtNtNtNtCs532nfEa3ofR_9open_lark4card10components22interactive_components11picker_timeNtB4_10PickerTime12initial_time
FN:79,_RNvMs_NtNtNtNtCs532nfEa3ofR_9open_lark4card10components22interactive_components11picker_timeNtB4_10PickerTime3new
FN:83,_RNvMs_NtNtNtNtCs532nfEa3ofR_9open_lark4card10components22interactive_components11picker_timeNtB4_10PickerTime4name
FN:113,_RNvMs_NtNtNtNtCs532nfEa3ofR_9open_lark4card10components22interactive_components11picker_timeNtB4_10PickerTime5value
FN:108,_RNvMs_NtNtNtNtCs532nfEa3ofR_9open_lark4card10components22interactive_components11picker_timeNtB4_10PickerTime5width
FN:118,_RNvMs_NtNtNtNtCs532nfEa3ofR_9open_lark4card10components22interactive_components11picker_timeNtB4_10PickerTime7confirm
FN:93,_RNvMs_NtNtNtNtCs532nfEa3ofR_9open_lark4card10components22interactive_components11picker_timeNtB4_10PickerTime8disabled
FN:88,_RNvMs_NtNtNtNtCs532nfEa3ofR_9open_lark4card10components22interactive_components11picker_timeNtB4_10PickerTime8required
FN:63,_RNvXNtNtNtNtCs532nfEa3ofR_9open_lark4card10components22interactive_components11picker_timeNtB2_10PickerTimeNtNtCsaNl6UpbT7bw_4core7default7Default7default
FNDA:1,_RNvNtNtNtNtNtCs532nfEa3ofR_9open_lark4card10components22interactive_components11picker_time4tests_18test_time_selector
FNDA:1,_RNvMs_NtNtNtNtCs532nfEa3ofR_9open_lark4card10components22interactive_components11picker_timeNtB4_10PickerTime11placeholder
FNDA:1,_RNvMs_NtNtNtNtCs532nfEa3ofR_9open_lark4card10components22interactive_components11picker_timeNtB4_10PickerTime12initial_time
FNDA:1,_RNvMs_NtNtNtNtCs532nfEa3ofR_9open_lark4card10components22interactive_components11picker_timeNtB4_10PickerTime3new
FNDA:1,_RNvMs_NtNtNtNtCs532nfEa3ofR_9open_lark4card10components22interactive_components11picker_timeNtB4_10PickerTime4name
FNDA:1,_RNvMs_NtNtNtNtCs532nfEa3ofR_9open_lark4card10components22interactive_components11picker_timeNtB4_10PickerTime5value
FNDA:1,_RNvMs_NtNtNtNtCs532nfEa3ofR_9open_lark4card10components22interactive_components11picker_timeNtB4_10PickerTime5width
FNDA:1,_RNvMs_NtNtNtNtCs532nfEa3ofR_9open_lark4card10components22interactive_components11picker_timeNtB4_10PickerTime7confirm
FNDA:1,_RNvMs_NtNtNtNtCs532nfEa3ofR_9open_lark4card10components22interactive_components11picker_timeNtB4_10PickerTime8disabled
FNDA:1,_RNvMs_NtNtNtNtCs532nfEa3ofR_9open_lark4card10components22interactive_components11picker_timeNtB4_10PickerTime8required
FNDA:1,_RNvXNtNtNtNtCs532nfEa3ofR_9open_lark4card10components22interactive_components11picker_timeNtB2_10PickerTimeNtNtCsaNl6UpbT7bw_4core7default7Default7default
FNF:11
FNH:11
DA:63,1
DA:64,1
DA:65,1
DA:66,1
DA:67,1
DA:68,1
DA:69,1
DA:70,1
DA:71,1
DA:72,1
DA:73,1
DA:74,1
DA:75,1
DA:79,1
DA:80,1
DA:81,1
DA:83,1
DA:84,1
DA:85,1
DA:86,1
DA:88,1
DA:89,1
DA:90,1
DA:91,1
DA:93,1
DA:94,1
DA:95,1
DA:96,1
DA:98,1
DA:99,1
DA:100,1
DA:101,1
DA:103,1
DA:104,1
DA:105,1
DA:106,1
DA:108,1
DA:109,1
DA:110,1
DA:111,1
DA:113,1
DA:114,1
DA:115,1
DA:116,1
DA:118,1
DA:119,1
DA:120,1
DA:121,1
DA:129,1
DA:130,1
DA:131,1
DA:132,1
DA:133,1
DA:134,1
DA:135,1
DA:136,1
DA:137,1
DA:138,1
DA:140,1
DA:141,1
DA:142,1
DA:143,1
DA:144,1
DA:145,1
DA:146,1
DA:147,1
DA:149,1
DA:150,1
DA:152,1
DA:154,1
DA:156,1
DA:158,1
DA:159,1
DA:160,1
DA:162,1
DA:163,1
DA:164,1
DA:169,1
DA:170,1
BRF:0
BRH:0
LF:79
LH:79
end_of_record
SF:/Users/zool/RustroverProjects/open-lark/src/card/components/interactive_components/select_person.rs
FN:118,_RNvMs0_NtNtNtNtCs532nfEa3ofR_9open_lark4card10components22interactive_components13select_personNtB5_18SelectPersonOption3new
FN:89,_RNvMs_NtNtNtNtCs532nfEa3ofR_9open_lark4card10components22interactive_components13select_personNtB4_12SelectPerson11placeholder
FN:70,_RNvMs_NtNtNtNtCs532nfEa3ofR_9open_lark4card10components22interactive_components13select_personNtB4_12SelectPerson3new
FN:74,_RNvMs_NtNtNtNtCs532nfEa3ofR_9open_lark4card10components22interactive_components13select_personNtB4_12SelectPerson4type
FN:94,_RNvMs_NtNtNtNtCs532nfEa3ofR_9open_lark4card10components22interactive_components13select_personNtB4_12SelectPerson5width
FN:104,_RNvMs_NtNtNtNtCs532nfEa3ofR_9open_lark4card10components22interactive_components13select_personNtB4_12SelectPerson7confirm
FN:99,_RNvMs_NtNtNtNtCs532nfEa3ofR_9open_lark4card10components22interactive_components13select_personNtB4_12SelectPerson7options
FN:84,_RNvMs_NtNtNtNtCs532nfEa3ofR_9open_lark4card10components22interactive_components13select_personNtB4_12SelectPerson8disabled
FN:79,_RNvMs_NtNtNtNtCs532nfEa3ofR_9open_lark4card10components22interactive_components13select_personNtB4_12SelectPerson8required
FN:55,_RNvXNtNtNtNtCs532nfEa3ofR_9open_lark4card10components22interactive_components13select_personNtB2_12SelectPersonNtNtCsaNl6UpbT7bw_4core7default7Default7default
FN:132,_RNvNtNtNtNtNtCs532nfEa3ofR_9open_lark4card10components22interactive_components13select_person4tests_18test_select_person
FNDA:4,_RNvMs0_NtNtNtNtCs532nfEa3ofR_9open_lark4card10components22interactive_components13select_personNtB5_18SelectPersonOption3new
FNDA:1,_RNvMs_NtNtNtNtCs532nfEa3ofR_9open_lark4card10components22interactive_components13select_personNtB4_12SelectPerson11placeholder
FNDA:1,_RNvMs_NtNtNtNtCs532nfEa3ofR_9open_lark4card10components22interactive_components13select_personNtB4_12SelectPerson3new
FNDA:1,_RNvMs_NtNtNtNtCs532nfEa3ofR_9open_lark4card10components22interactive_components13select_personNtB4_12SelectPerson4type
FNDA:1,_RNvMs_NtNtNtNtCs532nfEa3ofR_9open_lark4card10components22interactive_components13select_personNtB4_12SelectPerson5width
FNDA:1,_RNvMs_NtNtNtNtCs532nfEa3ofR_9open_lark4card10components22interactive_components13select_personNtB4_12SelectPerson7confirm
FNDA:1,_RNvMs_NtNtNtNtCs532nfEa3ofR_9open_lark4card10components22interactive_components13select_personNtB4_12SelectPerson7options
FNDA:1,_RNvMs_NtNtNtNtCs532nfEa3ofR_9open_lark4card10components22interactive_components13select_personNtB4_12SelectPerson8disabled
FNDA:1,_RNvMs_NtNtNtNtCs532nfEa3ofR_9open_lark4card10components22interactive_components13select_personNtB4_12SelectPerson8required
FNDA:1,_RNvXNtNtNtNtCs532nfEa3ofR_9open_lark4card10components22interactive_components13select_personNtB2_12SelectPersonNtNtCsaNl6UpbT7bw_4core7default7Default7default
FNDA:1,_RNvNtNtNtNtNtCs532nfEa3ofR_9open_lark4card10components22interactive_components13select_person4tests_18test_select_person
FNF:11
FNH:11
DA:55,1
DA:56,1
DA:57,1
DA:58,1
DA:59,1
DA:60,1
DA:61,1
DA:62,1
DA:63,1
DA:64,1
DA:65,1
DA:66,1
DA:70,1
DA:71,1
DA:72,1
DA:74,1
DA:75,1
DA:76,1
DA:77,1
DA:79,1
DA:80,1
DA:81,1
DA:82,1
DA:84,1
DA:85,1
DA:86,1
DA:87,1
DA:89,1
DA:90,1
DA:91,1
DA:92,1
DA:94,1
DA:95,1
DA:96,1
DA:97,1
DA:99,1
DA:100,1
DA:101,1
DA:102,1
DA:104,1
DA:105,1
DA:106,1
DA:107,1
DA:118,4
DA:119,4
DA:120,4
DA:121,4
DA:122,4
DA:132,1
DA:133,1
DA:134,1
DA:135,1
DA:136,1
DA:137,1
DA:138,1
DA:139,1
DA:140,1
DA:141,1
DA:143,1
DA:145,1
DA:146,1
DA:147,1
DA:148,1
DA:149,1
DA:150,1
DA:152,1
DA:153,1
DA:155,1
DA:156,1
DA:159,1
DA:162,1
DA:165,1
DA:167,1
DA:168,1
DA:169,1
DA:171,1
DA:172,1
DA:173,1
DA:178,1
DA:179,1
BRF:0
BRH:0
LF:80
LH:80
end_of_record
SF:/Users/zool/RustroverProjects/open-lark/src/card/components/interactive_components/select_static.rs
FN:158,_RNvMs0_NtNtNtNtCs532nfEa3ofR_9open_lark4card10components22interactive_components13select_staticNtB5_18SelectStaticOption4text
FN:190,_RNvNtNtNtNtNtCs532nfEa3ofR_9open_lark4card10components22interactive_components13select_static4tests_18test_select_static
FN:150,_RNvMs0_NtNtNtNtCs532nfEa3ofR_9open_lark4card10components22interactive_components13select_staticNtB5_18SelectStaticOption3new
FN:163,_RNvMs0_NtNtNtNtCs532nfEa3ofR_9open_lark4card10components22interactive_components13select_staticNtB5_18SelectStaticOption4icon
FN:168,_RNvMs0_NtNtNtNtCs532nfEa3ofR_9open_lark4card10components22interactive_components13select_staticNtB5_18SelectStaticOption5value
FN:113,_RNvMs_NtNtNtNtCs532nfEa3ofR_9open_lark4card10components22interactive_components13select_staticNtB4_12SelectStatic11placeholder
FN:108,_RNvMs_NtNtNtNtCs532nfEa3ofR_9open_lark4card10components22interactive_components13select_staticNtB4_12SelectStatic13initial_index
FN:84,_RNvMs_NtNtNtNtCs532nfEa3ofR_9open_lark4card10components22interactive_components13select_staticNtB4_12SelectStatic3new
FN:93,_RNvMs_NtNtNtNtCs532nfEa3ofR_9open_lark4card10components22interactive_components13select_staticNtB4_12SelectStatic4name
FN:88,_RNvMs_NtNtNtNtCs532nfEa3ofR_9open_lark4card10components22interactive_components13select_staticNtB4_12SelectStatic4type
FN:118,_RNvMs_NtNtNtNtCs532nfEa3ofR_9open_lark4card10components22interactive_components13select_staticNtB4_12SelectStatic5width
FN:128,_RNvMs_NtNtNtNtCs532nfEa3ofR_9open_lark4card10components22interactive_components13select_staticNtB4_12SelectStatic7confirm
FN:123,_RNvMs_NtNtNtNtCs532nfEa3ofR_9open_lark4card10components22interactive_components13select_staticNtB4_12SelectStatic7options
FN:103,_RNvMs_NtNtNtNtCs532nfEa3ofR_9open_lark4card10components22interactive_components13select_staticNtB4_12SelectStatic8disabled
FN:98,_RNvMs_NtNtNtNtCs532nfEa3ofR_9open_lark4card10components22interactive_components13select_staticNtB4_12SelectStatic8required
FN:67,_RNvXNtNtNtNtCs532nfEa3ofR_9open_lark4card10components22interactive_components13select_staticNtB2_12SelectStaticNtNtCsaNl6UpbT7bw_4core7default7Default7default
FNDA:0,_RNvMs0_NtNtNtNtCs532nfEa3ofR_9open_lark4card10components22interactive_components13select_staticNtB5_18SelectStaticOption4text
FNDA:1,_RNvNtNtNtNtNtCs532nfEa3ofR_9open_lark4card10components22interactive_components13select_static4tests_18test_select_static
FNDA:2,_RNvMs0_NtNtNtNtCs532nfEa3ofR_9open_lark4card10components22interactive_components13select_staticNtB5_18SelectStaticOption3new
FNDA:2,_RNvMs0_NtNtNtNtCs532nfEa3ofR_9open_lark4card10components22interactive_components13select_staticNtB5_18SelectStaticOption4icon
FNDA:1,_RNvMs0_NtNtNtNtCs532nfEa3ofR_9open_lark4card10components22interactive_components13select_staticNtB5_18SelectStaticOption5value
FNDA:1,_RNvMs_NtNtNtNtCs532nfEa3ofR_9open_lark4card10components22interactive_components13select_staticNtB4_12SelectStatic11placeholder
FNDA:1,_RNvMs_NtNtNtNtCs532nfEa3ofR_9open_lark4card10components22interactive_components13select_staticNtB4_12SelectStatic13initial_index
FNDA:1,_RNvMs_NtNtNtNtCs532nfEa3ofR_9open_lark4card10components22interactive_components13select_staticNtB4_12SelectStatic3new
FNDA:1,_RNvMs_NtNtNtNtCs532nfEa3ofR_9open_lark4card10components22interactive_components13select_staticNtB4_12SelectStatic4name
FNDA:1,_RNvMs_NtNtNtNtCs532nfEa3ofR_9open_lark4card10components22interactive_components13select_staticNtB4_12SelectStatic4type
FNDA:1,_RNvMs_NtNtNtNtCs532nfEa3ofR_9open_lark4card10components22interactive_components13select_staticNtB4_12SelectStatic5width
FNDA:1,_RNvMs_NtNtNtNtCs532nfEa3ofR_9open_lark4card10components22interactive_components13select_staticNtB4_12SelectStatic7confirm
FNDA:1,_RNvMs_NtNtNtNtCs532nfEa3ofR_9open_lark4card10components22interactive_components13select_staticNtB4_12SelectStatic7options
FNDA:1,_RNvMs_NtNtNtNtCs532nfEa3ofR_9open_lark4card10components22interactive_components13select_staticNtB4_12SelectStatic8disabled
FNDA:1,_RNvMs_NtNtNtNtCs532nfEa3ofR_9open_lark4card10components22interactive_components13select_staticNtB4_12SelectStatic8required
FNDA:1,_RNvXNtNtNtNtCs532nfEa3ofR_9open_lark4card10components22interactive_components13select_staticNtB2_12SelectStaticNtNtCsaNl6UpbT7bw_4core7default7Default7default
FNF:16
FNH:15
DA:67,1
DA:68,1
DA:69,1
DA:70,1
DA:71,1
DA:72,1
DA:73,1
DA:74,1
DA:75,1
DA:76,1
DA:77,1
DA:78,1
DA:79,1
DA:80,1
DA:84,1
DA:85,1
DA:86,1
DA:88,1
DA:89,1
DA:90,1
DA:91,1
DA:93,1
DA:94,1
DA:95,1
DA:96,1
DA:98,1
DA:99,1
DA:100,1
DA:101,1
DA:103,1
DA:104,1
DA:105,1
DA:106,1
DA:108,1
DA:109,1
DA:110,1
DA:111,1
DA:113,1
DA:114,1
DA:115,1
DA:116,1
DA:118,1
DA:119,1
DA:120,1
DA:121,1
DA:123,1
DA:124,1
DA:125,1
DA:126,1
DA:128,1
DA:129,1
DA:130,1
DA:131,1
DA:150,2
DA:151,2
DA:152,2
DA:153,2
DA:154,2
DA:155,2
DA:156,2
DA:158,0
DA:159,0
DA:160,0
DA:161,0
DA:163,2
DA:164,2
DA:165,2
DA:166,2
DA:168,1
DA:169,1
DA:170,1
DA:171,1
DA:190,1
DA:191,1
DA:192,1
DA:193,1
DA:194,1
DA:195,1
DA:196,1
DA:197,1
DA:198,1
DA:199,1
DA:200,1
DA:201,1
DA:202,1
DA:203,1
DA:204,1
DA:206,1
DA:208,1
DA:209,1
DA:210,1
DA:211,1
DA:212,1
DA:213,1
DA:214,1
DA:215,1
DA:217,1
DA:218,1
DA:220,1
DA:221,1
DA:224,1
DA:226,1
DA:227,1
DA:229,1
DA:231,1
DA:232,1
DA:233,1
DA:234,1
DA:236,1
DA:239,1
DA:241,1
DA:242,1
DA:243,1
DA:245,1
DA:246,1
DA:247,1
DA:252,1
DA:253,1
BRF:0
BRH:0
LF:118
LH:114
end_of_record
SF:/Users/zool/RustroverProjects/open-lark/src/card/href.rs
FN:29,_RINvMNtNtCs532nfEa3ofR_9open_lark4card4hrefNtB3_17FeishuCardHrefVal11android_urlReEB7_
FN:24,_RINvMNtNtCs532nfEa3ofR_9open_lark4card4hrefNtB3_17FeishuCardHrefVal3urlReEB7_
FN:39,_RINvMNtNtCs532nfEa3ofR_9open_lark4card4hrefNtB3_17FeishuCardHrefVal6pc_urlReEB7_
FN:34,_RINvMNtNtCs532nfEa3ofR_9open_lark4card4hrefNtB3_17FeishuCardHrefVal7ios_urlReEB7_
FN:20,_RNvMNtNtCs532nfEa3ofR_9open_lark4card4hrefNtB2_17FeishuCardHrefVal3new
FNDA:3,_RINvMNtNtCs532nfEa3ofR_9open_lark4card4hrefNtB3_17FeishuCardHrefVal11android_urlReEB7_
FNDA:4,_RINvMNtNtCs532nfEa3ofR_9open_lark4card4hrefNtB3_17FeishuCardHrefVal3urlReEB7_
FNDA:3,_RINvMNtNtCs532nfEa3ofR_9open_lark4card4hrefNtB3_17FeishuCardHrefVal6pc_urlReEB7_
FNDA:3,_RINvMNtNtCs532nfEa3ofR_9open_lark4card4hrefNtB3_17FeishuCardHrefVal7ios_urlReEB7_
FNDA:4,_RNvMNtNtCs532nfEa3ofR_9open_lark4card4hrefNtB2_17FeishuCardHrefVal3new
FNF:5
FNH:5
DA:20,4
DA:21,4
DA:22,4
DA:24,4
DA:25,4
DA:26,4
DA:27,4
DA:29,3
DA:30,3
DA:31,3
DA:32,3
DA:34,3
DA:35,3
DA:36,3
DA:37,3
DA:39,3
DA:40,3
DA:41,3
DA:42,3
BRF:0
BRH:0
LF:19
LH:19
end_of_record
SF:/Users/zool/RustroverProjects/open-lark/src/card/icon.rs
FN:40,_RNvMs_NtNtCs532nfEa3ofR_9open_lark4card4iconNtB4_18FeishuCardTextIcon3new
FN:44,_RNvMs_NtNtCs532nfEa3ofR_9open_lark4card4iconNtB4_18FeishuCardTextIcon3tag
FN:64,_RNvMs_NtNtCs532nfEa3ofR_9open_lark4card4iconNtB4_18FeishuCardTextIcon4size
FN:54,_RNvMs_NtNtCs532nfEa3ofR_9open_lark4card4iconNtB4_18FeishuCardTextIcon5color
FN:49,_RNvMs_NtNtCs532nfEa3ofR_9open_lark4card4iconNtB4_18FeishuCardTextIcon5token
FN:59,_RNvMs_NtNtCs532nfEa3ofR_9open_lark4card4iconNtB4_18FeishuCardTextIcon7img_key
FN:28,_RNvXNtNtCs532nfEa3ofR_9open_lark4card4iconNtB2_18FeishuCardTextIconNtNtCsaNl6UpbT7bw_4core7default7Default7default
FNDA:9,_RNvMs_NtNtCs532nfEa3ofR_9open_lark4card4iconNtB4_18FeishuCardTextIcon3new
FNDA:2,_RNvMs_NtNtCs532nfEa3ofR_9open_lark4card4iconNtB4_18FeishuCardTextIcon3tag
FNDA:1,_RNvMs_NtNtCs532nfEa3ofR_9open_lark4card4iconNtB4_18FeishuCardTextIcon4size
FNDA:8,_RNvMs_NtNtCs532nfEa3ofR_9open_lark4card4iconNtB4_18FeishuCardTextIcon5color
FNDA:9,_RNvMs_NtNtCs532nfEa3ofR_9open_lark4card4iconNtB4_18FeishuCardTextIcon5token
FNDA:7,_RNvMs_NtNtCs532nfEa3ofR_9open_lark4card4iconNtB4_18FeishuCardTextIcon7img_key
FNDA:9,_RNvXNtNtCs532nfEa3ofR_9open_lark4card4iconNtB2_18FeishuCardTextIconNtNtCsaNl6UpbT7bw_4core7default7Default7default
FNF:7
FNH:7
DA:28,9
DA:29,9
DA:30,9
DA:31,9
DA:32,9
DA:33,9
DA:34,9
DA:35,9
DA:36,9
DA:40,9
DA:41,9
DA:42,9
DA:44,2
DA:45,2
DA:46,2
DA:47,2
DA:49,9
DA:50,9
DA:51,9
DA:52,9
DA:54,8
DA:55,8
DA:56,8
DA:57,8
DA:59,7
DA:60,7
DA:61,7
DA:62,7
DA:64,1
DA:65,1
DA:66,1
DA:67,1
BRF:0
BRH:0
LF:32
LH:32
end_of_record
SF:/Users/zool/RustroverProjects/open-lark/src/card/interactions.rs
FN:47,_RNvMNtNtCs532nfEa3ofR_9open_lark4card12interactionsNtB2_15OpenUrlBehavior11default_url
FN:52,_RNvMNtNtCs532nfEa3ofR_9open_lark4card12interactionsNtB2_15OpenUrlBehavior11android_url
FN:37,_RNvMNtNtCs532nfEa3ofR_9open_lark4card12interactionsNtB2_15OpenUrlBehavior3new
FN:62,_RNvMNtNtCs532nfEa3ofR_9open_lark4card12interactionsNtB2_15OpenUrlBehavior6pc_url
FN:57,_RNvMNtNtCs532nfEa3ofR_9open_lark4card12interactionsNtB2_15OpenUrlBehavior7ios_url
FN:107,_RNvMs1_NtNtCs532nfEa3ofR_9open_lark4card12interactionsNtB5_12FormBehavior3new
FN:111,_RNvMs1_NtNtCs532nfEa3ofR_9open_lark4card12interactionsNtB5_12FormBehavior8behavior
FN:76,_RNvMs_NtNtCs532nfEa3ofR_9open_lark4card12interactionsNtB4_16CallbackBehavior3new
FN:98,_RNvXs0_NtNtCs532nfEa3ofR_9open_lark4card12interactionsNtB5_12FormBehaviorNtNtCsaNl6UpbT7bw_4core7default7Default7default
FN:135,_RNvNtNtNtCs532nfEa3ofR_9open_lark4card12interactions4tests_13test_callback
FN:124,_RNvNtNtNtCs532nfEa3ofR_9open_lark4card12interactions4tests_13test_open_url
FN:146,_RNvNtNtNtCs532nfEa3ofR_9open_lark4card12interactions4tests_9test_form
FNDA:0,_RNvMNtNtCs532nfEa3ofR_9open_lark4card12interactionsNtB2_15OpenUrlBehavior11default_url
FNDA:2,_RNvMNtNtCs532nfEa3ofR_9open_lark4card12interactionsNtB2_15OpenUrlBehavior11android_url
FNDA:3,_RNvMNtNtCs532nfEa3ofR_9open_lark4card12interactionsNtB2_15OpenUrlBehavior3new
FNDA:2,_RNvMNtNtCs532nfEa3ofR_9open_lark4card12interactionsNtB2_15OpenUrlBehavior6pc_url
FNDA:2,_RNvMNtNtCs532nfEa3ofR_9open_lark4card12interactionsNtB2_15OpenUrlBehavior7ios_url
FNDA:3,_RNvMs1_NtNtCs532nfEa3ofR_9open_lark4card12interactionsNtB5_12FormBehavior3new
FNDA:2,_RNvMs1_NtNtCs532nfEa3ofR_9open_lark4card12interactionsNtB5_12FormBehavior8behavior
FNDA:4,_RNvMs_NtNtCs532nfEa3ofR_9open_lark4card12interactionsNtB4_16CallbackBehavior3new
FNDA:3,_RNvXs0_NtNtCs532nfEa3ofR_9open_lark4card12interactionsNtB5_12FormBehaviorNtNtCsaNl6UpbT7bw_4core7default7Default7default
FNDA:1,_RNvNtNtNtCs532nfEa3ofR_9open_lark4card12interactions4tests_13test_callback
FNDA:1,_RNvNtNtNtCs532nfEa3ofR_9open_lark4card12interactions4tests_13test_open_url
FNDA:1,_RNvNtNtNtCs532nfEa3ofR_9open_lark4card12interactions4tests_9test_form
FNF:12
FNH:11
DA:37,3
DA:38,3
DA:39,3
DA:40,3
DA:41,3
DA:42,3
DA:43,3
DA:44,3
DA:45,3
DA:47,0
DA:48,0
DA:49,0
DA:50,0
DA:52,2
DA:53,2
DA:54,2
DA:55,2
DA:57,2
DA:58,2
DA:59,2
DA:60,2
DA:62,2
DA:63,2
DA:64,2
DA:65,2
DA:76,4
DA:77,4
DA:78,4
DA:79,4
DA:80,4
DA:81,4
DA:98,3
DA:99,3
DA:100,3
DA:101,3
DA:102,3
DA:103,3
DA:107,3
DA:108,3
DA:109,3
DA:111,2
DA:112,2
DA:113,2
DA:114,2
DA:124,1
DA:125,1
DA:126,1
DA:127,1
DA:128,1
DA:131,1
DA:132,1
DA:135,1
DA:136,1
DA:137,1
DA:138,1
DA:139,1
DA:142,1
DA:143,1
DA:146,1
DA:147,1
DA:148,1
DA:149,1
DA:152,1
DA:153,1
BRF:0
BRH:0
LF:64
LH:60
end_of_record
SF:/Users/zool/RustroverProjects/open-lark/src/client/mod.rs
FN:283,_RNvMNtCs532nfEa3ofR_9open_lark6clientNtB2_17LarkClientBuilder13with_app_type
FN:316,_RNvMNtCs532nfEa3ofR_9open_lark6clientNtB2_17LarkClientBuilder16with_req_timeout
FN:298,_RNvMNtCs532nfEa3ofR_9open_lark6clientNtB2_17LarkClientBuilder18with_open_base_url
FN:289,_RNvMNtCs532nfEa3ofR_9open_lark6clientNtB2_17LarkClientBuilder20with_marketplace_app
FN:307,_RNvMNtCs532nfEa3ofR_9open_lark6clientNtB2_17LarkClientBuilder23with_enable_token_cache
FN:324,_RNvMNtCs532nfEa3ofR_9open_lark6clientNtB2_17LarkClientBuilder5build
FN:462,_RNvMs_NtCs532nfEa3ofR_9open_lark6clientNtB4_10LarkClient7builder
FN:478,_RNvNtNtCs532nfEa3ofR_9open_lark6client5tests19create_test_builder
FN:551,_RNvNtNtCs532nfEa3ofR_9open_lark6client5testss_17test_client_build
FN:534,_RNvNtNtCs532nfEa3ofR_9open_lark6client5testss_21test_builder_chaining
FN:651,_RNvNtNtCs532nfEa3ofR_9open_lark6client5testss_24test_config_independence
FN:491,_RNvNtNtCs532nfEa3ofR_9open_lark6client5testss_26test_builder_with_app_type
FN:662,_RNvNtNtCs532nfEa3ofR_9open_lark6client5testss_27test_builder_default_values
FN:483,_RNvNtNtCs532nfEa3ofR_9open_lark6client5testss_28test_client_builder_creation
FN:519,_RNvNtNtCs532nfEa3ofR_9open_lark6client5testss_29test_builder_with_req_timeout
FN:595,_RNvNtNtCs532nfEa3ofR_9open_lark6client5testss_30test_builder_empty_credentials
FN:528,_RNvNtNtCs532nfEa3ofR_9open_lark6client5testss_30test_builder_with_none_timeout
FN:560,_RNvNtNtCs532nfEa3ofR_9open_lark6client5testss_30test_client_build_with_timeout
FN:622,_RNvNtNtCs532nfEa3ofR_9open_lark6client5testss_31test_builder_special_characters
FN:674,_RNvNtNtCs532nfEa3ofR_9open_lark6client5testss_31test_client_cloud_docs_services
FN:602,_RNvNtNtCs532nfEa3ofR_9open_lark6client5testss_32test_builder_unicode_credentials
FN:503,_RNvNtNtCs532nfEa3ofR_9open_lark6client5testss_33test_builder_with_custom_base_url
FN:497,_RNvNtNtCs532nfEa3ofR_9open_lark6client5testss_33test_builder_with_marketplace_app
FN:570,_RNvNtNtCs532nfEa3ofR_9open_lark6client5testss_33test_client_build_marketplace_app
FN:612,_RNvNtNtCs532nfEa3ofR_9open_lark6client5testss_34test_builder_very_long_credentials
FN:632,_RNvNtNtCs532nfEa3ofR_9open_lark6client5testss_35test_builder_extreme_timeout_values
FN:510,_RNvNtNtCs532nfEa3ofR_9open_lark6client5testss_36test_builder_with_enable_token_cache
FN:577,_RNvNtNtCs532nfEa3ofR_9open_lark6client5testss_36test_client_build_with_custom_config
FN:689,_RNvNtNtCs532nfEa3ofR_9open_lark6client5testss_43test_client_builder_multiple_configurations
FNDA:5,_RNvMNtCs532nfEa3ofR_9open_lark6clientNtB2_17LarkClientBuilder13with_app_type
FNDA:7,_RNvMNtCs532nfEa3ofR_9open_lark6clientNtB2_17LarkClientBuilder16with_req_timeout
FNDA:3,_RNvMNtCs532nfEa3ofR_9open_lark6clientNtB2_17LarkClientBuilder18with_open_base_url
FNDA:3,_RNvMNtCs532nfEa3ofR_9open_lark6clientNtB2_17LarkClientBuilder20with_marketplace_app
FNDA:5,_RNvMNtCs532nfEa3ofR_9open_lark6clientNtB2_17LarkClientBuilder23with_enable_token_cache
FNDA:9,_RNvMNtCs532nfEa3ofR_9open_lark6clientNtB2_17LarkClientBuilder5build
FNDA:25,_RNvMs_NtCs532nfEa3ofR_9open_lark6clientNtB4_10LarkClient7builder
FNDA:19,_RNvNtNtCs532nfEa3ofR_9open_lark6client5tests19create_test_builder
FNDA:1,_RNvNtNtCs532nfEa3ofR_9open_lark6client5testss_17test_client_build
FNDA:1,_RNvNtNtCs532nfEa3ofR_9open_lark6client5testss_21test_builder_chaining
FNDA:1,_RNvNtNtCs532nfEa3ofR_9open_lark6client5testss_24test_config_independence
FNDA:1,_RNvNtNtCs532nfEa3ofR_9open_lark6client5testss_26test_builder_with_app_type
FNDA:1,_RNvNtNtCs532nfEa3ofR_9open_lark6client5testss_27test_builder_default_values
FNDA:1,_RNvNtNtCs532nfEa3ofR_9open_lark6client5testss_28test_client_builder_creation
FNDA:1,_RNvNtNtCs532nfEa3ofR_9open_lark6client5testss_29test_builder_with_req_timeout
FNDA:1,_RNvNtNtCs532nfEa3ofR_9open_lark6client5testss_30test_builder_empty_credentials
FNDA:1,_RNvNtNtCs532nfEa3ofR_9open_lark6client5testss_30test_builder_with_none_timeout
FNDA:1,_RNvNtNtCs532nfEa3ofR_9open_lark6client5testss_30test_client_build_with_timeout
FNDA:1,_RNvNtNtCs532nfEa3ofR_9open_lark6client5testss_31test_builder_special_characters
FNDA:1,_RNvNtNtCs532nfEa3ofR_9open_lark6client5testss_31test_client_cloud_docs_services
FNDA:1,_RNvNtNtCs532nfEa3ofR_9open_lark6client5testss_32test_builder_unicode_credentials
FNDA:1,_RNvNtNtCs532nfEa3ofR_9open_lark6client5testss_33test_builder_with_custom_base_url
FNDA:1,_RNvNtNtCs532nfEa3ofR_9open_lark6client5testss_33test_builder_with_marketplace_app
FNDA:1,_RNvNtNtCs532nfEa3ofR_9open_lark6client5testss_33test_client_build_marketplace_app
FNDA:1,_RNvNtNtCs532nfEa3ofR_9open_lark6client5testss_34test_builder_very_long_credentials
FNDA:1,_RNvNtNtCs532nfEa3ofR_9open_lark6client5testss_35test_builder_extreme_timeout_values
FNDA:1,_RNvNtNtCs532nfEa3ofR_9open_lark6client5testss_36test_builder_with_enable_token_cache
FNDA:1,_RNvNtNtCs532nfEa3ofR_9open_lark6client5testss_36test_client_build_with_custom_config
FNDA:1,_RNvNtNtCs532nfEa3ofR_9open_lark6client5testss_43test_client_builder_multiple_configurations
FNF:29
FNH:29
DA:283,5
DA:284,5
DA:285,5
DA:286,5
DA:289,3
DA:290,3
DA:291,3
DA:292,3
DA:298,3
DA:299,3
DA:300,3
DA:301,3
DA:307,5
DA:308,5
DA:309,5
DA:310,5
DA:316,7
DA:317,7
DA:318,7
DA:319,7
DA:324,9
DA:325,9
DA:326,4
DA:327,4
DA:328,4
DA:329,4
DA:330,5
DA:334,9
DA:336,9
DA:337,9
DA:338,9
DA:339,9
DA:340,9
DA:341,9
DA:342,9
DA:343,9
DA:344,9
DA:345,9
DA:346,9
DA:347,9
DA:348,9
DA:349,9
DA:350,9
DA:351,9
DA:352,9
DA:353,9
DA:354,9
DA:355,9
DA:356,9
DA:357,9
DA:358,9
DA:359,9
DA:360,9
DA:361,9
DA:362,9
DA:363,9
DA:364,9
DA:365,9
DA:366,9
DA:367,9
DA:368,9
DA:369,9
DA:370,9
DA:371,9
DA:372,9
DA:373,9
DA:374,9
DA:375,9
DA:376,9
DA:377,9
DA:378,9
DA:379,9
DA:380,9
DA:381,9
DA:382,9
DA:383,9
DA:384,9
DA:385,9
DA:386,9
DA:387,9
DA:388,9
DA:389,9
DA:390,9
DA:391,9
DA:392,9
DA:393,9
DA:394,9
DA:395,9
DA:396,9
DA:397,9
DA:398,9
DA:399,9
DA:400,9
DA:401,9
DA:402,9
DA:403,9
DA:404,9
DA:405,9
DA:406,9
DA:407,9
DA:408,9
DA:409,9
DA:410,9
DA:411,9
DA:412,9
DA:413,9
DA:414,9
DA:415,9
DA:416,9
DA:417,9
DA:418,9
DA:419,9
DA:420,9
DA:421,9
DA:422,9
DA:423,9
DA:424,9
DA:425,9
DA:426,9
DA:427,9
DA:428,9
DA:429,9
DA:430,9
DA:431,9
DA:432,9
DA:433,9
DA:434,9
DA:435,9
DA:436,9
DA:437,9
DA:438,9
DA:439,9
DA:440,9
DA:441,9
DA:442,9
DA:443,9
DA:444,9
DA:462,25
DA:463,25
DA:464,25
DA:465,25
DA:466,25
DA:467,25
DA:468,25
DA:469,25
DA:470,25
DA:478,19
DA:479,19
DA:480,19
DA:483,1
DA:484,1
DA:485,1
DA:486,1
DA:487,1
DA:488,1
DA:491,1
DA:492,1
DA:493,1
DA:494,1
DA:497,1
DA:498,1
DA:499,1
DA:500,1
DA:503,1
DA:504,1
DA:505,1
DA:506,1
DA:507,1
DA:510,1
DA:511,1
DA:512,1
DA:514,1
DA:515,1
DA:516,1
DA:519,1
DA:520,1
DA:521,1
DA:523,1
DA:524,1
DA:525,1
DA:528,1
DA:529,1
DA:530,1
DA:531,1
DA:534,1
DA:535,1
DA:536,1
DA:537,1
DA:538,1
DA:539,1
DA:541,1
DA:542,1
DA:543,1
DA:545,1
DA:547,1
DA:548,1
DA:551,1
DA:552,1
DA:554,1
DA:555,1
DA:556,1
DA:557,1
DA:560,1
DA:561,1
DA:563,1
DA:565,1
DA:567,1
DA:570,1
DA:571,1
DA:573,1
DA:574,1
DA:577,1
DA:578,1
DA:579,1
DA:580,1
DA:581,1
DA:582,1
DA:583,1
DA:585,1
DA:586,1
DA:587,1
DA:588,1
DA:590,1
DA:592,1
DA:595,1
DA:596,1
DA:597,1
DA:598,1
DA:599,1
DA:602,1
DA:603,1
DA:604,1
DA:605,1
DA:607,1
DA:608,1
DA:609,1
DA:612,1
DA:613,1
DA:614,1
DA:615,1
DA:617,1
DA:618,1
DA:619,1
DA:622,1
DA:623,1
DA:624,1
DA:625,1
DA:627,1
DA:628,1
DA:629,1
DA:632,1
DA:634,1
DA:635,1
DA:637,1
DA:641,1
DA:642,1
DA:643,1
DA:644,1
DA:646,1
DA:648,1
DA:651,1
DA:653,1
DA:655,1
DA:657,1
DA:658,1
DA:659,1
DA:662,1
DA:663,1
DA:666,1
DA:667,1
DA:668,1
DA:669,1
DA:670,1
DA:674,1
DA:675,1
DA:680,1
DA:681,1
DA:682,1
DA:683,1
DA:684,1
DA:685,1
DA:686,1
DA:689,1
DA:691,1
DA:693,1
DA:694,1
DA:695,1
DA:697,1
DA:698,1
DA:700,1
DA:701,1
DA:702,1
DA:703,1
BRF:0
BRH:0
LF:293
LH:293
end_of_record
SF:/Users/zool/RustroverProjects/open-lark/src/client/ws_client/client.rs
FN:266,_RNCNCNvNtNtNtCs532nfEa3ofR_9open_lark6client9ws_client6client12get_conn_url00Bb_
FN:105,_RNCNvMNtNtNtCs532nfEa3ofR_9open_lark6client9ws_client6clientNtB4_12LarkWsClient12handler_loop0Ba_
FN:56,_RNCNvMNtNtNtCs532nfEa3ofR_9open_lark6client9ws_client6clientNtB4_12LarkWsClient4open0Ba_
FN:366,_RNCNvMs0_NtNtNtCs532nfEa3ofR_9open_lark6client9ws_client6clientNtB7_7Context12process_loop0Bd_
FN:416,_RNCNvMs0_NtNtNtCs532nfEa3ofR_9open_lark6client9ws_client6clientNtB7_7Context14handle_message0Bd_
FN:499,_RNCNvMs0_NtNtNtCs532nfEa3ofR_9open_lark6client9ws_client6clientNtB7_7Context17handle_send_frame0Bd_
FN:459,_RNCNvMs0_NtNtNtCs532nfEa3ofR_9open_lark6client9ws_client6clientNtB7_7Context27handle_control_frame_direct0Bd_
FN:460,_RNCNvMs0_NtNtNtCs532nfEa3ofR_9open_lark6client9ws_client6clientNtB7_7Context27handle_control_frame_directs_0Bd_
FN:514,_RNCNvNtNtNtCs532nfEa3ofR_9open_lark6client9ws_client6client11client_loop0B9_
FN:231,_RNCNvNtNtNtCs532nfEa3ofR_9open_lark6client9ws_client6client12get_conn_url0B9_
FN:105,_RNvMNtNtNtCs532nfEa3ofR_9open_lark6client9ws_client6clientNtB2_12LarkWsClient12handler_loop
FN:53,_RNvMNtNtNtCs532nfEa3ofR_9open_lark6client9ws_client6clientNtB2_12LarkWsClient4open
FN:362,_RNvMs0_NtNtNtCs532nfEa3ofR_9open_lark6client9ws_client6clientNtB5_7Context10send_event
FN:366,_RNvMs0_NtNtNtCs532nfEa3ofR_9open_lark6client9ws_client6clientNtB5_7Context12process_loop
FN:416,_RNvMs0_NtNtNtCs532nfEa3ofR_9open_lark6client9ws_client6clientNtB5_7Context14handle_message
FN:499,_RNvMs0_NtNtNtCs532nfEa3ofR_9open_lark6client9ws_client6clientNtB5_7Context17handle_send_frame
FN:473,_RNvMs0_NtNtNtCs532nfEa3ofR_9open_lark6client9ws_client6clientNtB5_7Context24handle_pong_frame_direct
FN:455,_RNvMs0_NtNtNtCs532nfEa3ofR_9open_lark6client9ws_client6clientNtB5_7Context27handle_control_frame_direct
FN:341,_RNvMs0_NtNtNtCs532nfEa3ofR_9open_lark6client9ws_client6clientNtB5_7Context3new
FN:508,_RNvNtNtNtCs532nfEa3ofR_9open_lark6client9ws_client6client11client_loop
FN:229,_RNvNtNtNtCs532nfEa3ofR_9open_lark6client9ws_client6client12get_conn_url
FN:325,_RNvXs_NtNtNtCs532nfEa3ofR_9open_lark6client9ws_client6clientNtB4_13WsClientErrorINtNtCsaNl6UpbT7bw_4core7convert4FromNtNtCsjSOibD1qwMY_11tungstenite5error5ErrorE4from
FN:163,_RNCNCNvMNtNtNtCs532nfEa3ofR_9open_lark6client9ws_client6clientNtB6_12LarkWsClient31process_frame_packages_internal00Bc_
FN:170,_RNCNCNvMNtNtNtCs532nfEa3ofR_9open_lark6client9ws_client6clientNtB6_12LarkWsClient31process_frame_packages_internal0s0_0Bc_
FN:171,_RNCNCNvMNtNtNtCs532nfEa3ofR_9open_lark6client9ws_client6clientNtB6_12LarkWsClient31process_frame_packages_internal0s1_0Bc_
FN:177,_RNCNCNvMNtNtNtCs532nfEa3ofR_9open_lark6client9ws_client6clientNtB6_12LarkWsClient31process_frame_packages_internal0s2_0Bc_
FN:178,_RNCNCNvMNtNtNtCs532nfEa3ofR_9open_lark6client9ws_client6clientNtB6_12LarkWsClient31process_frame_packages_internal0s3_0Bc_
FN:164,_RNCNCNvMNtNtNtCs532nfEa3ofR_9open_lark6client9ws_client6clientNtB6_12LarkWsClient31process_frame_packages_internal0s_0Bc_
FN:152,_RNCNvMNtNtNtCs532nfEa3ofR_9open_lark6client9ws_client6clientNtB4_12LarkWsClient22process_frame_packages0Ba_
FN:157,_RNCNvMNtNtNtCs532nfEa3ofR_9open_lark6client9ws_client6clientNtB4_12LarkWsClient31process_frame_packages_internal0Ba_
FN:41,_RNvMNtNtNtCs532nfEa3ofR_9open_lark6client9ws_client6clientNtB2_12LarkWsClient12new_for_test
FN:152,_RNvMNtNtNtCs532nfEa3ofR_9open_lark6client9ws_client6clientNtB2_12LarkWsClient22process_frame_packages
FN:157,_RNvMNtNtNtCs532nfEa3ofR_9open_lark6client9ws_client6clientNtB2_12LarkWsClient31process_frame_packages_internal
FN:204,_RNvMNtNtNtCs532nfEa3ofR_9open_lark6client9ws_client6clientNtB2_12LarkWsClient7combine
FNDA:0,_RNCNCNvNtNtNtCs532nfEa3ofR_9open_lark6client9ws_client6client12get_conn_url00Bb_
FNDA:0,_RNCNvMNtNtNtCs532nfEa3ofR_9open_lark6client9ws_client6clientNtB4_12LarkWsClient12handler_loop0Ba_
FNDA:0,_RNCNvMNtNtNtCs532nfEa3ofR_9open_lark6client9ws_client6clientNtB4_12LarkWsClient4open0Ba_
FNDA:0,_RNCNvMs0_NtNtNtCs532nfEa3ofR_9open_lark6client9ws_client6clientNtB7_7Context12process_loop0Bd_
FNDA:0,_RNCNvMs0_NtNtNtCs532nfEa3ofR_9open_lark6client9ws_client6clientNtB7_7Context14handle_message0Bd_
FNDA:0,_RNCNvMs0_NtNtNtCs532nfEa3ofR_9open_lark6client9ws_client6clientNtB7_7Context17handle_send_frame0Bd_
FNDA:0,_RNCNvMs0_NtNtNtCs532nfEa3ofR_9open_lark6client9ws_client6clientNtB7_7Context27handle_control_frame_direct0Bd_
FNDA:0,_RNCNvMs0_NtNtNtCs532nfEa3ofR_9open_lark6client9ws_client6clientNtB7_7Context27handle_control_frame_directs_0Bd_
FNDA:0,_RNCNvNtNtNtCs532nfEa3ofR_9open_lark6client9ws_client6client11client_loop0B9_
FNDA:0,_RNCNvNtNtNtCs532nfEa3ofR_9open_lark6client9ws_client6client12get_conn_url0B9_
FNDA:0,_RNvMNtNtNtCs532nfEa3ofR_9open_lark6client9ws_client6clientNtB2_12LarkWsClient12handler_loop
FNDA:0,_RNvMNtNtNtCs532nfEa3ofR_9open_lark6client9ws_client6clientNtB2_12LarkWsClient4open
FNDA:0,_RNvMs0_NtNtNtCs532nfEa3ofR_9open_lark6client9ws_client6clientNtB5_7Context10send_event
FNDA:0,_RNvMs0_NtNtNtCs532nfEa3ofR_9open_lark6client9ws_client6clientNtB5_7Context12process_loop
FNDA:0,_RNvMs0_NtNtNtCs532nfEa3ofR_9open_lark6client9ws_client6clientNtB5_7Context14handle_message
FNDA:0,_RNvMs0_NtNtNtCs532nfEa3ofR_9open_lark6client9ws_client6clientNtB5_7Context17handle_send_frame
FNDA:0,_RNvMs0_NtNtNtCs532nfEa3ofR_9open_lark6client9ws_client6clientNtB5_7Context24handle_pong_frame_direct
FNDA:0,_RNvMs0_NtNtNtCs532nfEa3ofR_9open_lark6client9ws_client6clientNtB5_7Context27handle_control_frame_direct
FNDA:0,_RNvMs0_NtNtNtCs532nfEa3ofR_9open_lark6client9ws_client6clientNtB5_7Context3new
FNDA:0,_RNvNtNtNtCs532nfEa3ofR_9open_lark6client9ws_client6client11client_loop
FNDA:0,_RNvNtNtNtCs532nfEa3ofR_9open_lark6client9ws_client6client12get_conn_url
FNDA:0,_RNvXs_NtNtNtCs532nfEa3ofR_9open_lark6client9ws_client6clientNtB4_13WsClientErrorINtNtCsaNl6UpbT7bw_4core7convert4FromNtNtCsjSOibD1qwMY_11tungstenite5error5ErrorE4from
FNDA:8,_RNCNCNvMNtNtNtCs532nfEa3ofR_9open_lark6client9ws_client6clientNtB6_12LarkWsClient31process_frame_packages_internal00Bc_
FNDA:10,_RNCNCNvMNtNtNtCs532nfEa3ofR_9open_lark6client9ws_client6clientNtB6_12LarkWsClient31process_frame_packages_internal0s0_0Bc_
FNDA:2,_RNCNCNvMNtNtNtCs532nfEa3ofR_9open_lark6client9ws_client6clientNtB6_12LarkWsClient31process_frame_packages_internal0s1_0Bc_
FNDA:6,_RNCNCNvMNtNtNtCs532nfEa3ofR_9open_lark6client9ws_client6clientNtB6_12LarkWsClient31process_frame_packages_internal0s2_0Bc_
FNDA:3,_RNCNCNvMNtNtNtCs532nfEa3ofR_9open_lark6client9ws_client6clientNtB6_12LarkWsClient31process_frame_packages_internal0s3_0Bc_
FNDA:2,_RNCNCNvMNtNtNtCs532nfEa3ofR_9open_lark6client9ws_client6clientNtB6_12LarkWsClient31process_frame_packages_internal0s_0Bc_
FNDA:3,_RNCNvMNtNtNtCs532nfEa3ofR_9open_lark6client9ws_client6clientNtB4_12LarkWsClient22process_frame_packages0Ba_
FNDA:3,_RNCNvMNtNtNtCs532nfEa3ofR_9open_lark6client9ws_client6clientNtB4_12LarkWsClient31process_frame_packages_internal0Ba_
FNDA:2,_RNvMNtNtNtCs532nfEa3ofR_9open_lark6client9ws_client6clientNtB2_12LarkWsClient12new_for_test
FNDA:3,_RNvMNtNtNtCs532nfEa3ofR_9open_lark6client9ws_client6clientNtB2_12LarkWsClient22process_frame_packages
FNDA:3,_RNvMNtNtNtCs532nfEa3ofR_9open_lark6client9ws_client6clientNtB2_12LarkWsClient31process_frame_packages_internal
FNDA:2,_RNvMNtNtNtCs532nfEa3ofR_9open_lark6client9ws_client6clientNtB2_12LarkWsClient7combine
FNF:34
FNH:12
DA:41,2
DA:42,2
DA:43,2
DA:45,2
DA:46,2
DA:47,2
DA:48,2
DA:49,2
DA:50,2
DA:51,2
DA:53,0
DA:54,0
DA:55,0
DA:56,0
DA:57,0
DA:58,0
DA:59,0
DA:60,0
DA:61,0
DA:62,0
DA:63,0
DA:65,0
DA:66,0
DA:67,0
DA:68,0
DA:69,0
DA:72,0
DA:73,0
DA:74,0
DA:75,0
DA:77,0
DA:78,0
DA:81,0
DA:82,0
DA:83,0
DA:84,0
DA:85,0
DA:86,0
DA:87,0
DA:88,0
DA:89,0
DA:90,0
DA:91,0
DA:93,0
DA:94,0
DA:95,0
DA:96,0
DA:97,0
DA:98,0
DA:100,0
DA:102,0
DA:103,0
DA:105,0
DA:106,0
DA:107,0
DA:109,0
DA:110,0
DA:111,0
DA:113,0
DA:114,0
DA:117,0
DA:118,0
DA:119,0
DA:120,0
DA:122,0
DA:123,0
DA:126,0
DA:127,0
DA:128,0
DA:133,0
DA:134,0
DA:135,0
DA:137,0
DA:138,0
DA:139,0
DA:140,0
DA:143,0
DA:144,0
DA:145,0
DA:146,0
DA:148,0
DA:152,3
DA:153,3
DA:154,3
DA:157,3
DA:158,3
DA:161,3
DA:162,3
DA:163,8
DA:164,3
DA:165,3
DA:168,3
DA:169,3
DA:170,10
DA:171,3
DA:172,3
DA:175,3
DA:176,3
DA:177,6
DA:178,3
DA:179,3
DA:181,3
DA:182,0
DA:183,0
DA:187,3
DA:188,2
DA:189,1
DA:190,1
DA:191,1
DA:193,1
DA:196,1
DA:197,1
DA:198,1
DA:199,1
DA:201,2
DA:202,3
DA:204,2
DA:205,2
DA:206,2
DA:207,1
DA:208,1
DA:209,1
DA:210,1
DA:211,1
DA:213,1
DA:214,1
DA:215,1
DA:216,2
DA:217,2
DA:218,0
DA:219,0
DA:220,2
DA:221,2
DA:224,1
DA:225,2
DA:229,0
DA:230,0
DA:231,0
DA:232,0
DA:233,0
DA:234,0
DA:237,0
DA:238,0
DA:239,0
DA:240,0
DA:241,0
DA:242,0
DA:243,0
DA:245,0
DA:246,0
DA:248,0
DA:249,0
DA:250,0
DA:251,0
DA:252,0
DA:253,0
DA:254,0
DA:255,0
DA:256,0
DA:257,0
DA:258,0
DA:259,0
DA:260,0
DA:261,0
DA:263,0
DA:265,0
DA:266,0
DA:267,0
DA:268,0
DA:269,0
DA:270,0
DA:271,0
DA:273,0
DA:274,0
DA:325,0
DA:326,0
DA:327,0
DA:341,0
DA:342,0
DA:343,0
DA:344,0
DA:345,0
DA:346,0
DA:347,0
DA:348,0
DA:349,0
DA:350,0
DA:351,0
DA:352,0
DA:353,0
DA:354,0
DA:355,0
DA:356,0
DA:357,0
DA:358,0
DA:359,0
DA:360,0
DA:362,0
DA:363,0
DA:364,0
DA:366,0
DA:367,0
DA:368,0
DA:370,0
DA:371,0
DA:372,0
DA:373,0
DA:374,0
DA:375,0
DA:376,0
DA:377,0
DA:379,0
DA:382,0
DA:383,0
DA:384,0
DA:385,0
DA:388,0
DA:389,0
DA:390,0
DA:391,0
DA:392,0
DA:393,0
DA:395,0
DA:398,0
DA:399,0
DA:400,0
DA:401,0
DA:405,0
DA:406,0
DA:407,0
DA:408,0
DA:409,0
DA:410,0
DA:414,0
DA:416,0
DA:417,0
DA:418,0
DA:419,0
DA:421,0
DA:422,0
DA:423,0
DA:425,0
DA:429,0
DA:433,0
DA:434,0
DA:435,0
DA:437,0
DA:440,0
DA:441,0
DA:442,0
DA:443,0
DA:444,0
DA:445,0
DA:446,0
DA:448,0
DA:451,0
DA:452,0
DA:455,0
DA:456,0
DA:457,0
DA:458,0
DA:459,0
DA:460,0
DA:461,0
DA:463,0
DA:465,0
DA:466,0
DA:467,0
DA:469,0
DA:470,0
DA:473,0
DA:474,0
DA:475,0
DA:476,0
DA:479,0
DA:480,0
DA:481,0
DA:482,0
DA:483,0
DA:488,0
DA:489,0
DA:490,0
DA:491,0
DA:492,0
DA:494,0
DA:496,0
DA:497,0
DA:499,0
DA:500,0
DA:501,0
DA:503,0
DA:504,0
DA:505,0
DA:508,0
DA:509,0
DA:510,0
DA:511,0
DA:512,0
DA:513,0
DA:514,0
DA:515,0
DA:516,0
DA:517,0
DA:518,0
DA:519,0
DA:520,0
DA:523,0
DA:524,0
DA:525,0
DA:526,0
DA:527,0
DA:528,0
DA:530,0
BRF:0
BRH:0
LF:331
LH:68
end_of_record
SF:/Users/zool/RustroverProjects/open-lark/src/client/ws_client/frame_handler.rs
FN:106,_RNCNCNvMNtNtNtCs532nfEa3ofR_9open_lark6client9ws_client13frame_handlerNtB6_12FrameHandler17handle_data_frame00Bc_
FN:27,_RNCNvMNtNtNtCs532nfEa3ofR_9open_lark6client9ws_client13frame_handlerNtB4_12FrameHandler12handle_frame0Ba_
FN:129,_RNCNvMNtNtNtCs532nfEa3ofR_9open_lark6client9ws_client13frame_handlerNtB4_12FrameHandler13process_event0Ba_
FN:152,_RNCNvMNtNtNtCs532nfEa3ofR_9open_lark6client9ws_client13frame_handlerNtB4_12FrameHandler16get_header_value0Ba_
FN:153,_RNCNvMNtNtNtCs532nfEa3ofR_9open_lark6client9ws_client13frame_handlerNtB4_12FrameHandler16get_header_values_0Ba_
FN:76,_RNCNvMNtNtNtCs532nfEa3ofR_9open_lark6client9ws_client13frame_handlerNtB4_12FrameHandler17handle_data_frame0Ba_
FN:23,_RNvMNtNtNtCs532nfEa3ofR_9open_lark6client9ws_client13frame_handlerNtB2_12FrameHandler12handle_frame
FN:126,_RNvMNtNtNtCs532nfEa3ofR_9open_lark6client9ws_client13frame_handlerNtB2_12FrameHandler13process_event
FN:157,_RNvMNtNtNtCs532nfEa3ofR_9open_lark6client9ws_client13frame_handlerNtB2_12FrameHandler16build_ping_frame
FN:149,_RNvMNtNtNtCs532nfEa3ofR_9open_lark6client9ws_client13frame_handlerNtB2_12FrameHandler16get_header_value
FN:72,_RNvMNtNtNtCs532nfEa3ofR_9open_lark6client9ws_client13frame_handlerNtB2_12FrameHandler17handle_data_frame
FN:55,_RNvMNtNtNtCs532nfEa3ofR_9open_lark6client9ws_client13frame_handlerNtB2_12FrameHandler17handle_pong_frame
FN:175,_RNvMNtNtNtCs532nfEa3ofR_9open_lark6client9ws_client13frame_handlerNtB2_12FrameHandler20build_response_frame
FN:39,_RNvMNtNtNtCs532nfEa3ofR_9open_lark6client9ws_client13frame_handlerNtB2_12FrameHandler20handle_control_frame
FN:199,_RNvMs_NtNtNtCs532nfEa3ofR_9open_lark6client9ws_client13frame_handlerNtB4_13NewWsResponse2ok
FN:207,_RNvMs_NtNtNtCs532nfEa3ofR_9open_lark6client9ws_client13frame_handlerNtB4_13NewWsResponse5error
FNDA:0,_RNCNCNvMNtNtNtCs532nfEa3ofR_9open_lark6client9ws_client13frame_handlerNtB6_12FrameHandler17handle_data_frame00Bc_
FNDA:0,_RNCNvMNtNtNtCs532nfEa3ofR_9open_lark6client9ws_client13frame_handlerNtB4_12FrameHandler12handle_frame0Ba_
FNDA:0,_RNCNvMNtNtNtCs532nfEa3ofR_9open_lark6client9ws_client13frame_handlerNtB4_12FrameHandler13process_event0Ba_
FNDA:0,_RNCNvMNtNtNtCs532nfEa3ofR_9open_lark6client9ws_client13frame_handlerNtB4_12FrameHandler16get_header_value0Ba_
FNDA:0,_RNCNvMNtNtNtCs532nfEa3ofR_9open_lark6client9ws_client13frame_handlerNtB4_12FrameHandler16get_header_values_0Ba_
FNDA:0,_RNCNvMNtNtNtCs532nfEa3ofR_9open_lark6client9ws_client13frame_handlerNtB4_12FrameHandler17handle_data_frame0Ba_
FNDA:0,_RNvMNtNtNtCs532nfEa3ofR_9open_lark6client9ws_client13frame_handlerNtB2_12FrameHandler12handle_frame
FNDA:0,_RNvMNtNtNtCs532nfEa3ofR_9open_lark6client9ws_client13frame_handlerNtB2_12FrameHandler13process_event
FNDA:0,_RNvMNtNtNtCs532nfEa3ofR_9open_lark6client9ws_client13frame_handlerNtB2_12FrameHandler16build_ping_frame
FNDA:0,_RNvMNtNtNtCs532nfEa3ofR_9open_lark6client9ws_client13frame_handlerNtB2_12FrameHandler16get_header_value
FNDA:0,_RNvMNtNtNtCs532nfEa3ofR_9open_lark6client9ws_client13frame_handlerNtB2_12FrameHandler17handle_data_frame
FNDA:0,_RNvMNtNtNtCs532nfEa3ofR_9open_lark6client9ws_client13frame_handlerNtB2_12FrameHandler17handle_pong_frame
FNDA:0,_RNvMNtNtNtCs532nfEa3ofR_9open_lark6client9ws_client13frame_handlerNtB2_12FrameHandler20build_response_frame
FNDA:0,_RNvMNtNtNtCs532nfEa3ofR_9open_lark6client9ws_client13frame_handlerNtB2_12FrameHandler20handle_control_frame
FNDA:0,_RNvMs_NtNtNtCs532nfEa3ofR_9open_lark6client9ws_client13frame_handlerNtB4_13NewWsResponse2ok
FNDA:0,_RNvMs_NtNtNtCs532nfEa3ofR_9open_lark6client9ws_client13frame_handlerNtB4_13NewWsResponse5error
FNF:16
FNH:0
DA:23,0
DA:24,0
DA:25,0
DA:26,0
DA:27,0
DA:28,0
DA:29,0
DA:30,0
DA:32,0
DA:33,0
DA:36,0
DA:39,0
DA:40,0
DA:41,0
DA:43,0
DA:45,0
DA:46,0
DA:48,0
DA:49,0
DA:52,0
DA:55,0
DA:56,0
DA:58,0
DA:59,0
DA:60,0
DA:62,0
DA:64,0
DA:65,0
DA:66,0
DA:69,0
DA:72,0
DA:73,0
DA:74,0
DA:75,0
DA:76,0
DA:77,0
DA:80,0
DA:81,0
DA:82,0
DA:84,0
DA:85,0
DA:86,0
DA:89,0
DA:90,0
DA:93,0
DA:94,0
DA:95,0
DA:98,0
DA:99,0
DA:100,0
DA:101,0
DA:102,0
DA:103,0
DA:106,0
DA:107,0
DA:108,0
DA:109,0
DA:112,0
DA:114,0
DA:115,0
DA:116,0
DA:119,0
DA:120,0
DA:123,0
DA:126,0
DA:127,0
DA:128,0
DA:129,0
DA:130,0
DA:132,0
DA:134,0
DA:135,0
DA:136,0
DA:137,0
DA:138,0
DA:139,0
DA:141,0
DA:142,0
DA:143,0
DA:146,0
DA:149,0
DA:150,0
DA:151,0
DA:152,0
DA:153,0
DA:154,0
DA:157,0
DA:158,0
DA:159,0
DA:160,0
DA:161,0
DA:162,0
DA:163,0
DA:164,0
DA:165,0
DA:166,0
DA:167,0
DA:168,0
DA:169,0
DA:170,0
DA:171,0
DA:172,0
DA:175,0
DA:176,0
DA:177,0
DA:178,0
DA:179,0
DA:180,0
DA:181,0
DA:182,0
DA:183,0
DA:184,0
DA:185,0
DA:186,0
DA:187,0
DA:199,0
DA:200,0
DA:201,0
DA:202,0
DA:203,0
DA:204,0
DA:205,0
DA:207,0
DA:208,0
DA:209,0
DA:210,0
DA:211,0
DA:212,0
DA:213,0
BRF:0
BRH:0
LF:135
LH:0
end_of_record
SF:/Users/zool/RustroverProjects/open-lark/src/client/ws_client/state_machine.rs
FN:123,_RNvMs_NtNtNtCs532nfEa3ofR_9open_lark6client9ws_client13state_machineNtB4_21WebSocketStateMachine12is_connected
FN:118,_RNvMs_NtNtNtCs532nfEa3ofR_9open_lark6client9ws_client13state_machineNtB4_21WebSocketStateMachine13is_connecting
FN:128,_RNvMs_NtNtNtCs532nfEa3ofR_9open_lark6client9ws_client13state_machineNtB4_21WebSocketStateMachine15is_disconnected
FN:28,_RNvXNtNtNtCs532nfEa3ofR_9open_lark6client9ws_client13state_machineNtB2_11CloseReasonINtNtCsaNl6UpbT7bw_4core7convert4FromNtNtNtNtCsjSOibD1qwMY_11tungstenite8protocol5frame5frame10CloseFrameE4from
FN:137,_RNvXs0_NtNtNtCs532nfEa3ofR_9open_lark6client9ws_client13state_machineNtB5_21WebSocketStateMachineNtNtCsaNl6UpbT7bw_4core7default7Default7default
FN:147,_RNvNtNtNtNtCs532nfEa3ofR_9open_lark6client9ws_client13state_machine5testss_22test_state_transitions
FN:191,_RNvNtNtNtNtCs532nfEa3ofR_9open_lark6client9ws_client13state_machine5testss_24test_invalid_transitions
FN:75,_RNvMs_NtNtNtCs532nfEa3ofR_9open_lark6client9ws_client13state_machineNtB4_21WebSocketStateMachine12handle_event
FN:113,_RNvMs_NtNtNtCs532nfEa3ofR_9open_lark6client9ws_client13state_machineNtB4_21WebSocketStateMachine13can_send_data
FN:70,_RNvMs_NtNtNtCs532nfEa3ofR_9open_lark6client9ws_client13state_machineNtB4_21WebSocketStateMachine13current_state
FN:63,_RNvMs_NtNtNtCs532nfEa3ofR_9open_lark6client9ws_client13state_machineNtB4_21WebSocketStateMachine3new
FNDA:0,_RNvMs_NtNtNtCs532nfEa3ofR_9open_lark6client9ws_client13state_machineNtB4_21WebSocketStateMachine12is_connected
FNDA:0,_RNvMs_NtNtNtCs532nfEa3ofR_9open_lark6client9ws_client13state_machineNtB4_21WebSocketStateMachine13is_connecting
FNDA:0,_RNvMs_NtNtNtCs532nfEa3ofR_9open_lark6client9ws_client13state_machineNtB4_21WebSocketStateMachine15is_disconnected
FNDA:0,_RNvXNtNtNtCs532nfEa3ofR_9open_lark6client9ws_client13state_machineNtB2_11CloseReasonINtNtCsaNl6UpbT7bw_4core7convert4FromNtNtNtNtCsjSOibD1qwMY_11tungstenite8protocol5frame5frame10CloseFrameE4from
FNDA:0,_RNvXs0_NtNtNtCs532nfEa3ofR_9open_lark6client9ws_client13state_machineNtB5_21WebSocketStateMachineNtNtCsaNl6UpbT7bw_4core7default7Default7default
FNDA:1,_RNvNtNtNtNtCs532nfEa3ofR_9open_lark6client9ws_client13state_machine5testss_22test_state_transitions
FNDA:1,_RNvNtNtNtNtCs532nfEa3ofR_9open_lark6client9ws_client13state_machine5testss_24test_invalid_transitions
FNDA:6,_RNvMs_NtNtNtCs532nfEa3ofR_9open_lark6client9ws_client13state_machineNtB4_21WebSocketStateMachine12handle_event
FNDA:1,_RNvMs_NtNtNtCs532nfEa3ofR_9open_lark6client9ws_client13state_machineNtB4_21WebSocketStateMachine13can_send_data
FNDA:6,_RNvMs_NtNtNtCs532nfEa3ofR_9open_lark6client9ws_client13state_machineNtB4_21WebSocketStateMachine13current_state
FNDA:4,_RNvMs_NtNtNtCs532nfEa3ofR_9open_lark6client9ws_client13state_machineNtB4_21WebSocketStateMachine3new
FNF:11
FNH:6
DA:28,0
DA:29,0
DA:30,0
DA:31,0
DA:32,0
DA:33,0
DA:63,4
DA:64,4
DA:65,4
DA:66,4
DA:67,4
DA:70,6
DA:71,6
DA:72,6
DA:75,6
DA:79,6
DA:81,1
DA:84,1
DA:87,0
DA:88,0
DA:89,1
DA:90,1
DA:93,1
DA:94,0
DA:97,0
DA:101,1
DA:102,1
DA:103,1
DA:104,1
DA:108,5
DA:109,5
DA:110,6
DA:113,1
DA:114,1
DA:115,1
DA:118,0
DA:119,0
DA:120,0
DA:123,0
DA:124,0
DA:125,0
DA:128,0
DA:129,0
DA:130,0
DA:133,0
DA:137,0
DA:138,0
DA:139,0
DA:147,1
DA:148,1
DA:151,1
DA:154,1
DA:155,1
DA:158,1
DA:159,1
DA:160,1
DA:161,1
DA:162,1
DA:165,1
DA:166,1
DA:169,1
DA:170,1
DA:171,1
DA:172,1
DA:175,1
DA:176,1
DA:177,1
DA:178,1
DA:179,1
DA:180,1
DA:181,1
DA:182,1
DA:183,1
DA:184,1
DA:185,1
DA:186,1
DA:188,1
DA:191,1
DA:192,1
DA:195,1
DA:196,1
BRF:0
BRH:0
LF:81
LH:58
end_of_record
SF:/Users/zool/RustroverProjects/open-lark/src/client/ws_client/tests.rs
FN:43,_RNvNtNtNtCs532nfEa3ofR_9open_lark6client9ws_client5testss_38test_multi_package_payload_combination
FN:5,_RNvNtNtNtCs532nfEa3ofR_9open_lark6client9ws_client5testss_40test_single_package_payload_preservation
FN:43,_RNCNvNtNtNtCs532nfEa3ofR_9open_lark6client9ws_client5testss_38test_multi_package_payload_combination0B9_
FN:5,_RNCNvNtNtNtCs532nfEa3ofR_9open_lark6client9ws_client5testss_40test_single_package_payload_preservation0B9_
FNDA:1,_RNvNtNtNtCs532nfEa3ofR_9open_lark6client9ws_client5testss_38test_multi_package_payload_combination
FNDA:1,_RNvNtNtNtCs532nfEa3ofR_9open_lark6client9ws_client5testss_40test_single_package_payload_preservation
FNDA:1,_RNCNvNtNtNtCs532nfEa3ofR_9open_lark6client9ws_client5testss_38test_multi_package_payload_combination0B9_
FNDA:1,_RNCNvNtNtNtCs532nfEa3ofR_9open_lark6client9ws_client5testss_40test_single_package_payload_preservation0B9_
FNF:4
FNH:4
DA:5,1
DA:6,1
DA:9,1
DA:10,1
DA:11,1
DA:12,1
DA:13,1
DA:14,1
DA:15,1
DA:16,1
DA:17,1
DA:18,1
DA:19,1
DA:20,1
DA:21,1
DA:22,1
DA:23,1
DA:24,1
DA:25,1
DA:26,1
DA:27,1
DA:28,1
DA:29,1
DA:30,1
DA:33,1
DA:36,1
DA:37,1
DA:38,1
DA:39,1
DA:40,1
DA:43,1
DA:44,1
DA:46,1
DA:47,1
DA:48,1
DA:51,1
DA:52,1
DA:53,1
DA:54,1
DA:55,1
DA:56,1
DA:57,1
DA:58,1
DA:59,1
DA:60,1
DA:61,1
DA:62,1
DA:63,1
DA:64,1
DA:65,1
DA:66,1
DA:67,1
DA:68,1
DA:69,1
DA:70,1
DA:71,1
DA:72,1
DA:73,1
DA:74,1
DA:75,1
DA:76,1
DA:77,1
DA:78,1
DA:81,1
DA:82,1
DA:85,1
DA:86,1
DA:87,1
DA:88,1
DA:89,1
DA:90,1
DA:91,1
DA:92,1
DA:93,1
DA:94,1
DA:95,1
DA:96,1
DA:97,1
DA:98,1
DA:99,1
DA:100,1
DA:101,1
DA:102,1
DA:103,1
DA:104,1
DA:105,1
DA:106,1
DA:107,1
DA:108,1
DA:109,1
DA:110,1
DA:111,1
DA:112,1
DA:115,1
DA:116,1
DA:117,1
DA:118,1
DA:119,1
DA:120,1
BRF:0
BRH:0
LF:103
LH:103
end_of_record
SF:/Users/zool/RustroverProjects/open-lark/src/core/api_req.rs
FN:185,_RNvNtNtNtCs532nfEa3ofR_9open_lark4core7api_req5testss_22test_api_request_clone
FN:219,_RNvNtNtNtCs532nfEa3ofR_9open_lark4core7api_req5testss_22test_api_request_debug
FN:172,_RNvNtNtNtCs532nfEa3ofR_9open_lark4core7api_req5testss_24test_api_request_default
FN:148,_RNvNtNtNtCs532nfEa3ofR_9open_lark4core7api_req5testss_25test_api_request_creation
FN:452,_RNvNtNtNtCs532nfEa3ofR_9open_lark4core7api_req5testss_32test_api_request_path_variations
FN:359,_RNvNtNtNtCs532nfEa3ofR_9open_lark4core7api_req5testss_32test_api_request_with_empty_body
FN:403,_RNvNtNtNtCs532nfEa3ofR_9open_lark4core7api_req5testss_32test_api_request_with_empty_file
FN:369,_RNvNtNtNtCs532nfEa3ofR_9open_lark4core7api_req5testss_32test_api_request_with_large_body
FN:413,_RNvNtNtNtCs532nfEa3ofR_9open_lark4core7api_req5testss_32test_api_request_with_large_file
FN:381,_RNvNtNtNtCs532nfEa3ofR_9open_lark4core7api_req5testss_33test_api_request_with_file_upload
FN:284,_RNvNtNtNtCs532nfEa3ofR_9open_lark4core7api_req5testss_33test_api_request_with_path_params
FN:596,_RNvNtNtNtCs532nfEa3ofR_9open_lark4core7api_req5testss_34test_api_request_memory_efficiency
FN:256,_RNvNtNtNtCs532nfEa3ofR_9open_lark4core7api_req5testss_34test_api_request_with_query_params
FN:615,_RNvNtNtNtCs532nfEa3ofR_9open_lark4core7api_req5testss_35test_api_request_field_independence
FN:425,_RNvNtNtNtCs532nfEa3ofR_9open_lark4core7api_req5testss_36test_api_request_multipart_structure
FN:533,_RNvNtNtNtCs532nfEa3ofR_9open_lark4core7api_req5testss_36test_api_request_path_params_complex
FN:583,_RNvNtNtNtCs532nfEa3ofR_9open_lark4core7api_req5testss_37test_api_request_binary_data_handling
FN:338,_RNvNtNtNtCs532nfEa3ofR_9open_lark4core7api_req5testss_40test_api_request_with_body_serialization
FN:494,_RNvNtNtNtCs532nfEa3ofR_9open_lark4core7api_req5testss_44test_api_request_query_params_special_values
FN:473,_RNvNtNtNtCs532nfEa3ofR_9open_lark4core7api_req5testss_44test_api_request_special_characters_in_paths
FN:235,_RNvNtNtNtCs532nfEa3ofR_9open_lark4core7api_req5testss_44test_api_request_with_different_http_methods
FN:315,_RNvNtNtNtCs532nfEa3ofR_9open_lark4core7api_req5testss_50test_api_request_with_different_access_token_types
FN:600,_RNCNvNtNtNtCs532nfEa3ofR_9open_lark4core7api_req5testss_34test_api_request_memory_efficiency0B9_
FNDA:1,_RNvNtNtNtCs532nfEa3ofR_9open_lark4core7api_req5testss_22test_api_request_clone
FNDA:1,_RNvNtNtNtCs532nfEa3ofR_9open_lark4core7api_req5testss_22test_api_request_debug
FNDA:1,_RNvNtNtNtCs532nfEa3ofR_9open_lark4core7api_req5testss_24test_api_request_default
FNDA:1,_RNvNtNtNtCs532nfEa3ofR_9open_lark4core7api_req5testss_25test_api_request_creation
FNDA:1,_RNvNtNtNtCs532nfEa3ofR_9open_lark4core7api_req5testss_32test_api_request_path_variations
FNDA:1,_RNvNtNtNtCs532nfEa3ofR_9open_lark4core7api_req5testss_32test_api_request_with_empty_body
FNDA:1,_RNvNtNtNtCs532nfEa3ofR_9open_lark4core7api_req5testss_32test_api_request_with_empty_file
FNDA:1,_RNvNtNtNtCs532nfEa3ofR_9open_lark4core7api_req5testss_32test_api_request_with_large_body
FNDA:1,_RNvNtNtNtCs532nfEa3ofR_9open_lark4core7api_req5testss_32test_api_request_with_large_file
FNDA:1,_RNvNtNtNtCs532nfEa3ofR_9open_lark4core7api_req5testss_33test_api_request_with_file_upload
FNDA:1,_RNvNtNtNtCs532nfEa3ofR_9open_lark4core7api_req5testss_33test_api_request_with_path_params
FNDA:1,_RNvNtNtNtCs532nfEa3ofR_9open_lark4core7api_req5testss_34test_api_request_memory_efficiency
FNDA:1,_RNvNtNtNtCs532nfEa3ofR_9open_lark4core7api_req5testss_34test_api_request_with_query_params
FNDA:1,_RNvNtNtNtCs532nfEa3ofR_9open_lark4core7api_req5testss_35test_api_request_field_independence
FNDA:1,_RNvNtNtNtCs532nfEa3ofR_9open_lark4core7api_req5testss_36test_api_request_multipart_structure
FNDA:1,_RNvNtNtNtCs532nfEa3ofR_9open_lark4core7api_req5testss_36test_api_request_path_params_complex
FNDA:1,_RNvNtNtNtCs532nfEa3ofR_9open_lark4core7api_req5testss_37test_api_request_binary_data_handling
FNDA:1,_RNvNtNtNtCs532nfEa3ofR_9open_lark4core7api_req5testss_40test_api_request_with_body_serialization
FNDA:1,_RNvNtNtNtCs532nfEa3ofR_9open_lark4core7api_req5testss_44test_api_request_query_params_special_values
FNDA:1,_RNvNtNtNtCs532nfEa3ofR_9open_lark4core7api_req5testss_44test_api_request_special_characters_in_paths
FNDA:1,_RNvNtNtNtCs532nfEa3ofR_9open_lark4core7api_req5testss_44test_api_request_with_different_http_methods
FNDA:1,_RNvNtNtNtCs532nfEa3ofR_9open_lark4core7api_req5testss_50test_api_request_with_different_access_token_types
FNDA:100,_RNCNvNtNtNtCs532nfEa3ofR_9open_lark4core7api_req5testss_34test_api_request_memory_efficiency0B9_
FNF:23
FNH:23
DA:148,1
DA:149,1
DA:150,1
DA:151,1
DA:152,1
DA:153,1
DA:154,1
DA:155,1
DA:156,1
DA:157,1
DA:159,1
DA:160,1
DA:161,1
DA:162,1
DA:163,1
DA:164,1
DA:166,1
DA:168,1
DA:169,1
DA:172,1
DA:173,1
DA:175,1
DA:176,1
DA:177,1
DA:178,1
DA:179,1
DA:180,1
DA:181,1
DA:182,1
DA:185,1
DA:186,1
DA:187,1
DA:188,1
DA:189,1
DA:190,1
DA:191,1
DA:192,1
DA:193,1
DA:194,1
DA:195,1
DA:196,1
DA:197,1
DA:198,1
DA:199,1
DA:200,1
DA:201,1
DA:202,1
DA:204,1
DA:206,1
DA:207,1
DA:208,1
DA:209,1
DA:210,1
DA:211,1
DA:215,1
DA:216,1
DA:219,1
DA:220,1
DA:221,1
DA:222,1
DA:223,1
DA:224,1
DA:225,1
DA:227,1
DA:229,1
DA:230,1
DA:231,1
DA:232,1
DA:235,1
DA:236,1
DA:237,1
DA:238,1
DA:239,1
DA:240,1
DA:241,1
DA:242,1
DA:243,1
DA:246,8
DA:247,7
DA:248,7
DA:249,7
DA:250,7
DA:251,7
DA:253,1
DA:256,1
DA:257,1
DA:260,1
DA:261,1
DA:262,1
DA:263,1
DA:264,1
DA:265,1
DA:266,1
DA:268,1
DA:269,1
DA:270,1
DA:271,1
DA:273,1
DA:274,1
DA:275,1
DA:277,1
DA:278,1
DA:279,1
DA:281,1
DA:284,1
DA:285,1
DA:288,1
DA:289,1
DA:290,1
DA:291,1
DA:292,1
DA:293,1
DA:294,1
DA:295,1
DA:296,1
DA:299,1
DA:300,1
DA:301,1
DA:302,1
DA:304,1
DA:305,1
DA:306,1
DA:308,1
DA:309,1
DA:310,1
DA:312,1
DA:315,1
DA:316,1
DA:317,1
DA:318,1
DA:319,1
DA:320,1
DA:321,1
DA:322,1
DA:323,1
DA:324,1
DA:328,6
DA:329,5
DA:330,5
DA:331,5
DA:332,5
DA:333,5
DA:335,1
DA:338,1
DA:340,1
DA:341,1
DA:342,1
DA:344,1
DA:346,1
DA:347,1
DA:348,1
DA:349,1
DA:351,1
DA:354,1
DA:355,1
DA:356,1
DA:359,1
DA:360,1
DA:361,1
DA:362,1
DA:363,1
DA:365,1
DA:366,1
DA:369,1
DA:370,1
DA:371,1
DA:372,1
DA:373,1
DA:374,1
DA:376,1
DA:377,1
DA:378,1
DA:381,1
DA:382,1
DA:383,1
DA:384,1
DA:385,1
DA:388,1
DA:389,1
DA:390,1
DA:391,1
DA:392,1
DA:393,1
DA:394,1
DA:396,1
DA:397,1
DA:398,1
DA:399,1
DA:400,1
DA:403,1
DA:404,1
DA:405,1
DA:406,1
DA:407,1
DA:409,1
DA:410,1
DA:413,1
DA:414,1
DA:415,1
DA:416,1
DA:417,1
DA:418,1
DA:420,1
DA:421,1
DA:422,1
DA:425,1
DA:426,1
DA:427,1
DA:428,1
DA:430,1
DA:432,1
DA:433,1
DA:434,1
DA:435,1
DA:436,1
DA:437,1
DA:438,1
DA:439,1
DA:442,1
DA:443,1
DA:444,1
DA:445,1
DA:447,1
DA:449,1
DA:452,1
DA:453,1
DA:455,1
DA:456,1
DA:457,1
DA:458,1
DA:459,1
DA:460,1
DA:463,8
DA:464,7
DA:465,7
DA:466,7
DA:467,7
DA:468,7
DA:470,1
DA:473,1
DA:474,1
DA:476,1
DA:477,1
DA:478,1
DA:479,1
DA:480,1
DA:481,1
DA:484,8
DA:485,7
DA:486,7
DA:487,7
DA:488,7
DA:489,7
DA:491,1
DA:494,1
DA:495,1
DA:498,1
DA:499,1
DA:500,1
DA:501,1
DA:502,1
DA:503,1
DA:504,1
DA:505,1
DA:506,1
DA:507,1
DA:508,1
DA:509,1
DA:510,1
DA:512,1
DA:513,1
DA:514,1
DA:515,1
DA:516,1
DA:518,1
DA:519,1
DA:520,1
DA:522,1
DA:523,1
DA:524,1
DA:526,1
DA:527,1
DA:528,1
DA:530,1
DA:533,1
DA:534,1
DA:537,1
DA:538,1
DA:539,1
DA:540,1
DA:541,1
DA:542,1
DA:543,1
DA:544,1
DA:545,1
DA:548,1
DA:549,1
DA:550,1
DA:551,1
DA:552,1
DA:553,1
DA:554,1
DA:558,1
DA:559,1
DA:560,1
DA:561,1
DA:563,1
DA:564,1
DA:565,1
DA:566,1
DA:567,1
DA:568,1
DA:569,1
DA:571,1
DA:572,1
DA:573,1
DA:574,1
DA:575,1
DA:576,1
DA:577,1
DA:578,1
DA:580,1
DA:583,1
DA:584,1
DA:585,1
DA:586,1
DA:587,1
DA:588,1
DA:589,1
DA:591,1
DA:592,1
DA:593,1
DA:596,1
DA:598,1
DA:599,1
DA:600,100
DA:601,100
DA:602,100
DA:603,100
DA:604,1
DA:606,1
DA:608,100
DA:609,100
DA:610,100
DA:612,1
DA:615,1
DA:616,1
DA:617,1
DA:618,1
DA:619,1
DA:620,1
DA:621,1
DA:622,1
DA:623,1
DA:624,1
DA:625,1
DA:626,1
DA:627,1
DA:628,1
DA:629,1
DA:632,1
DA:633,1
DA:634,1
DA:635,1
DA:636,1
DA:637,1
DA:638,1
DA:639,1
BRF:0
BRH:0
LF:368
LH:368
end_of_record
SF:/Users/zool/RustroverProjects/open-lark/src/core/api_resp.rs
FN:74,_RNCNvMNtNtCs532nfEa3ofR_9open_lark4core8api_respINtB4_12BaseResponsepE12is_retryable0B8_
FN:54,_RNCNvMNtNtCs532nfEa3ofR_9open_lark4core8api_respINtB4_12BaseResponsepE13is_auth_error0B8_
FN:68,_RNCNvMNtNtCs532nfEa3ofR_9open_lark4core8api_respINtB4_12BaseResponsepE15is_client_error0B8_
FN:61,_RNCNvMNtNtCs532nfEa3ofR_9open_lark4core8api_respINtB4_12BaseResponsepE15is_server_error0B8_
FN:47,_RNCNvMNtNtCs532nfEa3ofR_9open_lark4core8api_respINtB4_12BaseResponsepE19is_permission_error0B8_
FN:73,_RNvMNtNtCs532nfEa3ofR_9open_lark4core8api_respINtB2_12BaseResponsepE12is_retryableB6_
FN:52,_RNvMNtNtCs532nfEa3ofR_9open_lark4core8api_respINtB2_12BaseResponsepE13is_auth_errorB6_
FN:40,_RNvMNtNtCs532nfEa3ofR_9open_lark4core8api_respINtB2_12BaseResponsepE13is_error_codeB6_
FN:66,_RNvMNtNtCs532nfEa3ofR_9open_lark4core8api_respINtB2_12BaseResponsepE15is_client_errorB6_
FN:59,_RNvMNtNtCs532nfEa3ofR_9open_lark4core8api_respINtB2_12BaseResponsepE15is_server_errorB6_
FN:45,_RNvMNtNtCs532nfEa3ofR_9open_lark4core8api_respINtB2_12BaseResponsepE19is_permission_errorB6_
FN:265,_RNvYpNtNtNtCs532nfEa3ofR_9open_lark4core8api_resp16ApiResponseTrait11from_binaryB9_
FN:85,_RNCNvMNtNtCs532nfEa3ofR_9open_lark4core8api_respINtB4_12BaseResponseNtNtCsiTraAjBDcu4_5alloc6string6StringE13data_or_error0B8_
FN:100,_RNCNvMNtNtCs532nfEa3ofR_9open_lark4core8api_respINtB4_12BaseResponseNtNtCsiTraAjBDcu4_5alloc6string6StringE17data_or_api_error0B8_
FN:148,_RNCNvMNtNtCs532nfEa3ofR_9open_lark4core8api_respINtB4_12BaseResponseNtNtCsiTraAjBDcu4_5alloc6string6StringE19user_friendly_error0B8_
FN:149,_RNCNvMNtNtCs532nfEa3ofR_9open_lark4core8api_respINtB4_12BaseResponseNtNtCsiTraAjBDcu4_5alloc6string6StringE19user_friendly_errors_0B8_
FN:79,_RNCNvMNtNtCs532nfEa3ofR_9open_lark4core8api_respINtB4_12BaseResponseNtNtCsiTraAjBDcu4_5alloc6string6StringE21suggested_retry_delay0B8_
FN:35,_RNvMNtNtCs532nfEa3ofR_9open_lark4core8api_respINtB2_12BaseResponseNtNtCsiTraAjBDcu4_5alloc6string6StringE10error_codeB6_
FN:194,_RNvMNtNtCs532nfEa3ofR_9open_lark4core8api_respINtB2_12BaseResponseNtNtCsiTraAjBDcu4_5alloc6string6StringE10help_linksB6_
FN:83,_RNvMNtNtCs532nfEa3ofR_9open_lark4core8api_respINtB2_12BaseResponseNtNtCsiTraAjBDcu4_5alloc6string6StringE13data_or_errorB6_
FN:154,_RNvMNtNtCs532nfEa3ofR_9open_lark4core8api_respINtB2_12BaseResponseNtNtCsiTraAjBDcu4_5alloc6string6StringE15error_solutionsB6_
FN:97,_RNvMNtNtCs532nfEa3ofR_9open_lark4core8api_respINtB2_12BaseResponseNtNtCsiTraAjBDcu4_5alloc6string6StringE17data_or_api_errorB6_
FN:222,_RNvMNtNtCs532nfEa3ofR_9open_lark4core8api_respINtB2_12BaseResponseNtNtCsiTraAjBDcu4_5alloc6string6StringE19print_error_detailsB6_
FN:141,_RNvMNtNtCs532nfEa3ofR_9open_lark4core8api_respINtB2_12BaseResponseNtNtCsiTraAjBDcu4_5alloc6string6StringE19user_friendly_errorB6_
FN:111,_RNvMNtNtCs532nfEa3ofR_9open_lark4core8api_respINtB2_12BaseResponseNtNtCsiTraAjBDcu4_5alloc6string6StringE20handle_common_errorsB6_
FN:78,_RNvMNtNtCs532nfEa3ofR_9open_lark4core8api_respINtB2_12BaseResponseNtNtCsiTraAjBDcu4_5alloc6string6StringE21suggested_retry_delayB6_
FN:30,_RNvMNtNtCs532nfEa3ofR_9open_lark4core8api_respINtB2_12BaseResponseNtNtCsiTraAjBDcu4_5alloc6string6StringE3errB6_
FN:26,_RNvMNtNtCs532nfEa3ofR_9open_lark4core8api_respINtB2_12BaseResponseNtNtCsiTraAjBDcu4_5alloc6string6StringE3msgB6_
FN:22,_RNvMNtNtCs532nfEa3ofR_9open_lark4core8api_respINtB2_12BaseResponseNtNtCsiTraAjBDcu4_5alloc6string6StringE4codeB6_
FN:18,_RNvMNtNtCs532nfEa3ofR_9open_lark4core8api_respINtB2_12BaseResponseNtNtCsiTraAjBDcu4_5alloc6string6StringE7successB6_
FN:30,_RNvMNtNtCs532nfEa3ofR_9open_lark4core8api_respINtB2_12BaseResponseNtNtNtB4_17standard_response5tests8TestDataE3errB6_
FN:26,_RNvMNtNtCs532nfEa3ofR_9open_lark4core8api_respINtB2_12BaseResponseNtNtNtB4_17standard_response5tests8TestDataE3msgB6_
FN:22,_RNvMNtNtCs532nfEa3ofR_9open_lark4core8api_respINtB2_12BaseResponseNtNtNtB4_17standard_response5tests8TestDataE4codeB6_
FN:18,_RNvMNtNtCs532nfEa3ofR_9open_lark4core8api_respINtB2_12BaseResponseNtNtNtB4_17standard_response5tests8TestDataE7successB6_
FN:18,_RNvMNtNtCs532nfEa3ofR_9open_lark4core8api_respINtB2_12BaseResponselE7successB6_
FN:297,_RNvXs0_NtNtCs532nfEa3ofR_9open_lark4core8api_respNtB5_11RawResponseNtNtCsaNl6UpbT7bw_4core3fmt7Display3fmt
FN:307,_RNvXs1_NtNtCs532nfEa3ofR_9open_lark4core8api_respNtB5_13EmptyResponseNtB5_16ApiResponseTrait11data_format
FN:329,_RNvXs3_NtNtCs532nfEa3ofR_9open_lark4core8api_respNtB5_14BinaryResponseNtB5_16ApiResponseTrait11data_format
FN:333,_RNvXs3_NtNtCs532nfEa3ofR_9open_lark4core8api_respNtB5_14BinaryResponseNtB5_16ApiResponseTrait11from_binary
FN:291,_RNvXs_NtNtCs532nfEa3ofR_9open_lark4core8api_respNtB4_11RawResponseNtB4_16ApiResponseTrait11data_format
FN:400,_RNvNtNtNtCs532nfEa3ofR_9open_lark4core8api_resp5tests24create_test_raw_response
FN:804,_RNvNtNtNtCs532nfEa3ofR_9open_lark4core8api_resp5testss_21test_error_info_clone
FN:790,_RNvNtNtNtCs532nfEa3ofR_9open_lark4core8api_resp5testss_21test_error_info_debug
FN:601,_RNvNtNtNtCs532nfEa3ofR_9open_lark4core8api_resp5testss_23test_raw_response_clone
FN:587,_RNvNtNtNtCs532nfEa3ofR_9open_lark4core8api_resp5testss_23test_raw_response_debug
FN:870,_RNvNtNtNtCs532nfEa3ofR_9open_lark4core8api_resp5testss_24test_base_response_debug
FN:637,_RNvNtNtNtCs532nfEa3ofR_9open_lark4core8api_resp5testss_25test_empty_response_debug
FN:911,_RNvNtNtNtCs532nfEa3ofR_9open_lark4core8api_resp5testss_25test_multiple_error_types
FN:614,_RNvNtNtNtCs532nfEa3ofR_9open_lark4core8api_resp5testss_25test_raw_response_default
FN:566,_RNvNtNtNtCs532nfEa3ofR_9open_lark4core8api_resp5testss_25test_raw_response_display
FN:903,_RNvNtNtNtCs532nfEa3ofR_9open_lark4core8api_resp5testss_25test_response_format_enum
FN:417,_RNvNtNtNtCs532nfEa3ofR_9open_lark4core8api_resp5testss_26test_base_response_success
FN:685,_RNvNtNtNtCs532nfEa3ofR_9open_lark4core8api_resp5testss_26test_binary_response_debug
FN:713,_RNvNtNtNtCs532nfEa3ofR_9open_lark4core8api_resp5testss_28test_error_info_with_details
FN:697,_RNvNtNtNtCs532nfEa3ofR_9open_lark4core8api_resp5testss_29test_error_info_serialization
FN:579,_RNvNtNtNtCs532nfEa3ofR_9open_lark4core8api_resp5testss_29test_raw_response_data_format
FN:644,_RNvNtNtNtCs532nfEa3ofR_9open_lark4core8api_resp5testss_30test_json_response_data_format
FN:427,_RNvNtNtNtCs532nfEa3ofR_9open_lark4core8api_resp5testss_31test_base_response_code_and_msg
FN:622,_RNvNtNtNtCs532nfEa3ofR_9open_lark4core8api_resp5testss_31test_empty_response_data_format
FN:549,_RNvNtNtNtCs532nfEa3ofR_9open_lark4core8api_resp5testss_31test_raw_response_serialization
FN:850,_RNvNtNtNtCs532nfEa3ofR_9open_lark4core8api_resp5testss_32test_base_response_serialization
FN:649,_RNvNtNtNtCs532nfEa3ofR_9open_lark4core8api_resp5testss_32test_binary_response_data_format
FN:657,_RNvNtNtNtCs532nfEa3ofR_9open_lark4core8api_resp5testss_32test_binary_response_from_binary
FN:627,_RNvNtNtNtCs532nfEa3ofR_9open_lark4core8api_resp5testss_33test_empty_response_serialization
FN:879,_RNvNtNtNtCs532nfEa3ofR_9open_lark4core8api_resp5testss_34test_base_response_with_error_info
FN:670,_RNvNtNtNtCs532nfEa3ofR_9open_lark4core8api_resp5testss_34test_binary_response_serialization
FN:946,_RNvNtNtNtCs532nfEa3ofR_9open_lark4core8api_resp5testss_36test_base_response_memory_efficiency
FN:818,_RNvNtNtNtCs532nfEa3ofR_9open_lark4core8api_resp5testss_36test_code_error_detail_serialization
FN:530,_RNvNtNtNtCs532nfEa3ofR_9open_lark4core8api_resp5testss_37test_base_response_help_links_failure
FN:523,_RNvNtNtNtCs532nfEa3ofR_9open_lark4core8api_resp5testss_37test_base_response_help_links_success
FN:763,_RNvNtNtNtCs532nfEa3ofR_9open_lark4core8api_resp5testss_37test_error_info_with_field_violations
FN:538,_RNvNtNtNtCs532nfEa3ofR_9open_lark4core8api_resp5testss_38test_base_response_print_error_details
FN:834,_RNvNtNtNtCs532nfEa3ofR_9open_lark4core8api_resp5testss_39test_code_error_detail_with_none_values
FN:451,_RNvNtNtNtCs532nfEa3ofR_9open_lark4core8api_resp5testss_40test_base_response_data_or_error_failure
FN:434,_RNvNtNtNtCs532nfEa3ofR_9open_lark4core8api_resp5testss_40test_base_response_data_or_error_success
FN:515,_RNvNtNtNtCs532nfEa3ofR_9open_lark4core8api_resp5testss_42test_base_response_error_solutions_failure
FN:508,_RNvNtNtNtCs532nfEa3ofR_9open_lark4core8api_resp5testss_42test_base_response_error_solutions_success
FN:736,_RNvNtNtNtCs532nfEa3ofR_9open_lark4core8api_resp5testss_42test_error_info_with_permission_violations
FN:470,_RNvNtNtNtCs532nfEa3ofR_9open_lark4core8api_resp5testss_44test_base_response_data_or_api_error_failure
FN:461,_RNvNtNtNtCs532nfEa3ofR_9open_lark4core8api_resp5testss_44test_base_response_data_or_api_error_success
FN:500,_RNvNtNtNtCs532nfEa3ofR_9open_lark4core8api_resp5testss_46test_base_response_user_friendly_error_failure
FN:493,_RNvNtNtNtCs532nfEa3ofR_9open_lark4core8api_resp5testss_46test_base_response_user_friendly_error_success
FN:485,_RNvNtNtNtCs532nfEa3ofR_9open_lark4core8api_resp5testss_47test_base_response_handle_common_errors_success
FN:443,_RNvNtNtNtCs532nfEa3ofR_9open_lark4core8api_resp5testss_52test_base_response_data_or_error_success_but_no_data
FN:316,_RNvXs2_NtNtCs532nfEa3ofR_9open_lark4core8api_respNtNtCsc62nNOP8w9G_10serde_json5value5ValueNtB5_16ApiResponseTrait11data_format
FN:409,_RINvNtNtNtCs532nfEa3ofR_9open_lark4core8api_resp5tests20create_test_responseNtNtCsiTraAjBDcu4_5alloc6string6StringEB8_
FN:409,_RINvNtNtNtCs532nfEa3ofR_9open_lark4core8api_resp5tests20create_test_responselEB8_
FN:949,_RNCNvNtNtNtCs532nfEa3ofR_9open_lark4core8api_resp5testss_36test_base_response_memory_efficiency0B9_
FN:534,_RNCNvNtNtNtCs532nfEa3ofR_9open_lark4core8api_resp5testss_37test_base_response_help_links_failure0B9_
FNDA:0,_RNCNvMNtNtCs532nfEa3ofR_9open_lark4core8api_respINtB4_12BaseResponsepE12is_retryable0B8_
FNDA:0,_RNCNvMNtNtCs532nfEa3ofR_9open_lark4core8api_respINtB4_12BaseResponsepE13is_auth_error0B8_
FNDA:0,_RNCNvMNtNtCs532nfEa3ofR_9open_lark4core8api_respINtB4_12BaseResponsepE15is_client_error0B8_
FNDA:0,_RNCNvMNtNtCs532nfEa3ofR_9open_lark4core8api_respINtB4_12BaseResponsepE15is_server_error0B8_
FNDA:0,_RNCNvMNtNtCs532nfEa3ofR_9open_lark4core8api_respINtB4_12BaseResponsepE19is_permission_error0B8_
FNDA:0,_RNvMNtNtCs532nfEa3ofR_9open_lark4core8api_respINtB2_12BaseResponsepE12is_retryableB6_
FNDA:0,_RNvMNtNtCs532nfEa3ofR_9open_lark4core8api_respINtB2_12BaseResponsepE13is_auth_errorB6_
FNDA:0,_RNvMNtNtCs532nfEa3ofR_9open_lark4core8api_respINtB2_12BaseResponsepE13is_error_codeB6_
FNDA:0,_RNvMNtNtCs532nfEa3ofR_9open_lark4core8api_respINtB2_12BaseResponsepE15is_client_errorB6_
FNDA:0,_RNvMNtNtCs532nfEa3ofR_9open_lark4core8api_respINtB2_12BaseResponsepE15is_server_errorB6_
FNDA:0,_RNvMNtNtCs532nfEa3ofR_9open_lark4core8api_respINtB2_12BaseResponsepE19is_permission_errorB6_
FNDA:0,_RNvYpNtNtNtCs532nfEa3ofR_9open_lark4core8api_resp16ApiResponseTrait11from_binaryB9_
FNDA:1,_RNCNvMNtNtCs532nfEa3ofR_9open_lark4core8api_respINtB4_12BaseResponseNtNtCsiTraAjBDcu4_5alloc6string6StringE13data_or_error0B8_
FNDA:0,_RNCNvMNtNtCs532nfEa3ofR_9open_lark4core8api_respINtB4_12BaseResponseNtNtCsiTraAjBDcu4_5alloc6string6StringE17data_or_api_error0B8_
FNDA:0,_RNCNvMNtNtCs532nfEa3ofR_9open_lark4core8api_respINtB4_12BaseResponseNtNtCsiTraAjBDcu4_5alloc6string6StringE19user_friendly_error0B8_
FNDA:1,_RNCNvMNtNtCs532nfEa3ofR_9open_lark4core8api_respINtB4_12BaseResponseNtNtCsiTraAjBDcu4_5alloc6string6StringE19user_friendly_errors_0B8_
FNDA:0,_RNCNvMNtNtCs532nfEa3ofR_9open_lark4core8api_respINtB4_12BaseResponseNtNtCsiTraAjBDcu4_5alloc6string6StringE21suggested_retry_delay0B8_
FNDA:8,_RNvMNtNtCs532nfEa3ofR_9open_lark4core8api_respINtB2_12BaseResponseNtNtCsiTraAjBDcu4_5alloc6string6StringE10error_codeB6_
FNDA:3,_RNvMNtNtCs532nfEa3ofR_9open_lark4core8api_respINtB2_12BaseResponseNtNtCsiTraAjBDcu4_5alloc6string6StringE10help_linksB6_
FNDA:3,_RNvMNtNtCs532nfEa3ofR_9open_lark4core8api_respINtB2_12BaseResponseNtNtCsiTraAjBDcu4_5alloc6string6StringE13data_or_errorB6_
FNDA:3,_RNvMNtNtCs532nfEa3ofR_9open_lark4core8api_respINtB2_12BaseResponseNtNtCsiTraAjBDcu4_5alloc6string6StringE15error_solutionsB6_
FNDA:2,_RNvMNtNtCs532nfEa3ofR_9open_lark4core8api_respINtB2_12BaseResponseNtNtCsiTraAjBDcu4_5alloc6string6StringE17data_or_api_errorB6_
FNDA:2,_RNvMNtNtCs532nfEa3ofR_9open_lark4core8api_respINtB2_12BaseResponseNtNtCsiTraAjBDcu4_5alloc6string6StringE19print_error_detailsB6_
FNDA:2,_RNvMNtNtCs532nfEa3ofR_9open_lark4core8api_respINtB2_12BaseResponseNtNtCsiTraAjBDcu4_5alloc6string6StringE19user_friendly_errorB6_
FNDA:1,_RNvMNtNtCs532nfEa3ofR_9open_lark4core8api_respINtB2_12BaseResponseNtNtCsiTraAjBDcu4_5alloc6string6StringE20handle_common_errorsB6_
FNDA:1,_RNvMNtNtCs532nfEa3ofR_9open_lark4core8api_respINtB2_12BaseResponseNtNtCsiTraAjBDcu4_5alloc6string6StringE21suggested_retry_delayB6_
FNDA:2,_RNvMNtNtCs532nfEa3ofR_9open_lark4core8api_respINtB2_12BaseResponseNtNtCsiTraAjBDcu4_5alloc6string6StringE3errB6_
FNDA:5,_RNvMNtNtCs532nfEa3ofR_9open_lark4core8api_respINtB2_12BaseResponseNtNtCsiTraAjBDcu4_5alloc6string6StringE3msgB6_
FNDA:14,_RNvMNtNtCs532nfEa3ofR_9open_lark4core8api_respINtB2_12BaseResponseNtNtCsiTraAjBDcu4_5alloc6string6StringE4codeB6_
FNDA:19,_RNvMNtNtCs532nfEa3ofR_9open_lark4core8api_respINtB2_12BaseResponseNtNtCsiTraAjBDcu4_5alloc6string6StringE7successB6_
FNDA:1,_RNvMNtNtCs532nfEa3ofR_9open_lark4core8api_respINtB2_12BaseResponseNtNtNtB4_17standard_response5tests8TestDataE3errB6_
FNDA:1,_RNvMNtNtCs532nfEa3ofR_9open_lark4core8api_respINtB2_12BaseResponseNtNtNtB4_17standard_response5tests8TestDataE3msgB6_
FNDA:1,_RNvMNtNtCs532nfEa3ofR_9open_lark4core8api_respINtB2_12BaseResponseNtNtNtB4_17standard_response5tests8TestDataE4codeB6_
FNDA:6,_RNvMNtNtCs532nfEa3ofR_9open_lark4core8api_respINtB2_12BaseResponseNtNtNtB4_17standard_response5tests8TestDataE7successB6_
FNDA:100,_RNvMNtNtCs532nfEa3ofR_9open_lark4core8api_respINtB2_12BaseResponselE7successB6_
FNDA:1,_RNvXs0_NtNtCs532nfEa3ofR_9open_lark4core8api_respNtB5_11RawResponseNtNtCsaNl6UpbT7bw_4core3fmt7Display3fmt
FNDA:1,_RNvXs1_NtNtCs532nfEa3ofR_9open_lark4core8api_respNtB5_13EmptyResponseNtB5_16ApiResponseTrait11data_format
FNDA:1,_RNvXs3_NtNtCs532nfEa3ofR_9open_lark4core8api_respNtB5_14BinaryResponseNtB5_16ApiResponseTrait11data_format
FNDA:1,_RNvXs3_NtNtCs532nfEa3ofR_9open_lark4core8api_respNtB5_14BinaryResponseNtB5_16ApiResponseTrait11from_binary
FNDA:1,_RNvXs_NtNtCs532nfEa3ofR_9open_lark4core8api_respNtB4_11RawResponseNtB4_16ApiResponseTrait11data_format
FNDA:119,_RNvNtNtNtCs532nfEa3ofR_9open_lark4core8api_resp5tests24create_test_raw_response
FNDA:1,_RNvNtNtNtCs532nfEa3ofR_9open_lark4core8api_resp5testss_21test_error_info_clone
FNDA:1,_RNvNtNtNtCs532nfEa3ofR_9open_lark4core8api_resp5testss_21test_error_info_debug
FNDA:1,_RNvNtNtNtCs532nfEa3ofR_9open_lark4core8api_resp5testss_23test_raw_response_clone
FNDA:1,_RNvNtNtNtCs532nfEa3ofR_9open_lark4core8api_resp5testss_23test_raw_response_debug
FNDA:1,_RNvNtNtNtCs532nfEa3ofR_9open_lark4core8api_resp5testss_24test_base_response_debug
FNDA:1,_RNvNtNtNtCs532nfEa3ofR_9open_lark4core8api_resp5testss_25test_empty_response_debug
FNDA:1,_RNvNtNtNtCs532nfEa3ofR_9open_lark4core8api_resp5testss_25test_multiple_error_types
FNDA:1,_RNvNtNtNtCs532nfEa3ofR_9open_lark4core8api_resp5testss_25test_raw_response_default
FNDA:1,_RNvNtNtNtCs532nfEa3ofR_9open_lark4core8api_resp5testss_25test_raw_response_display
FNDA:1,_RNvNtNtNtCs532nfEa3ofR_9open_lark4core8api_resp5testss_25test_response_format_enum
FNDA:1,_RNvNtNtNtCs532nfEa3ofR_9open_lark4core8api_resp5testss_26test_base_response_success
FNDA:1,_RNvNtNtNtCs532nfEa3ofR_9open_lark4core8api_resp5testss_26test_binary_response_debug
FNDA:1,_RNvNtNtNtCs532nfEa3ofR_9open_lark4core8api_resp5testss_28test_error_info_with_details
FNDA:1,_RNvNtNtNtCs532nfEa3ofR_9open_lark4core8api_resp5testss_29test_error_info_serialization
FNDA:1,_RNvNtNtNtCs532nfEa3ofR_9open_lark4core8api_resp5testss_29test_raw_response_data_format
FNDA:1,_RNvNtNtNtCs532nfEa3ofR_9open_lark4core8api_resp5testss_30test_json_response_data_format
FNDA:1,_RNvNtNtNtCs532nfEa3ofR_9open_lark4core8api_resp5testss_31test_base_response_code_and_msg
FNDA:1,_RNvNtNtNtCs532nfEa3ofR_9open_lark4core8api_resp5testss_31test_empty_response_data_format
FNDA:1,_RNvNtNtNtCs532nfEa3ofR_9open_lark4core8api_resp5testss_31test_raw_response_serialization
FNDA:1,_RNvNtNtNtCs532nfEa3ofR_9open_lark4core8api_resp5testss_32test_base_response_serialization
FNDA:1,_RNvNtNtNtCs532nfEa3ofR_9open_lark4core8api_resp5testss_32test_binary_response_data_format
FNDA:1,_RNvNtNtNtCs532nfEa3ofR_9open_lark4core8api_resp5testss_32test_binary_response_from_binary
FNDA:1,_RNvNtNtNtCs532nfEa3ofR_9open_lark4core8api_resp5testss_33test_empty_response_serialization
FNDA:1,_RNvNtNtNtCs532nfEa3ofR_9open_lark4core8api_resp5testss_34test_base_response_with_error_info
FNDA:1,_RNvNtNtNtCs532nfEa3ofR_9open_lark4core8api_resp5testss_34test_binary_response_serialization
FNDA:1,_RNvNtNtNtCs532nfEa3ofR_9open_lark4core8api_resp5testss_36test_base_response_memory_efficiency
FNDA:1,_RNvNtNtNtCs532nfEa3ofR_9open_lark4core8api_resp5testss_36test_code_error_detail_serialization
FNDA:1,_RNvNtNtNtCs532nfEa3ofR_9open_lark4core8api_resp5testss_37test_base_response_help_links_failure
FNDA:1,_RNvNtNtNtCs532nfEa3ofR_9open_lark4core8api_resp5testss_37test_base_response_help_links_success
FNDA:1,_RNvNtNtNtCs532nfEa3ofR_9open_lark4core8api_resp5testss_37test_error_info_with_field_violations
FNDA:1,_RNvNtNtNtCs532nfEa3ofR_9open_lark4core8api_resp5testss_38test_base_response_print_error_details
FNDA:1,_RNvNtNtNtCs532nfEa3ofR_9open_lark4core8api_resp5testss_39test_code_error_detail_with_none_values
FNDA:1,_RNvNtNtNtCs532nfEa3ofR_9open_lark4core8api_resp5testss_40test_base_response_data_or_error_failure
FNDA:1,_RNvNtNtNtCs532nfEa3ofR_9open_lark4core8api_resp5testss_40test_base_response_data_or_error_success
FNDA:1,_RNvNtNtNtCs532nfEa3ofR_9open_lark4core8api_resp5testss_42test_base_response_error_solutions_failure
FNDA:1,_RNvNtNtNtCs532nfEa3ofR_9open_lark4core8api_resp5testss_42test_base_response_error_solutions_success
FNDA:1,_RNvNtNtNtCs532nfEa3ofR_9open_lark4core8api_resp5testss_42test_error_info_with_permission_violations
FNDA:1,_RNvNtNtNtCs532nfEa3ofR_9open_lark4core8api_resp5testss_44test_base_response_data_or_api_error_failure
FNDA:1,_RNvNtNtNtCs532nfEa3ofR_9open_lark4core8api_resp5testss_44test_base_response_data_or_api_error_success
FNDA:1,_RNvNtNtNtCs532nfEa3ofR_9open_lark4core8api_resp5testss_46test_base_response_user_friendly_error_failure
FNDA:1,_RNvNtNtNtCs532nfEa3ofR_9open_lark4core8api_resp5testss_46test_base_response_user_friendly_error_success
FNDA:1,_RNvNtNtNtCs532nfEa3ofR_9open_lark4core8api_resp5testss_47test_base_response_handle_common_errors_success
FNDA:1,_RNvNtNtNtCs532nfEa3ofR_9open_lark4core8api_resp5testss_52test_base_response_data_or_error_success_but_no_data
FNDA:1,_RNvXs2_NtNtCs532nfEa3ofR_9open_lark4core8api_respNtNtCsc62nNOP8w9G_10serde_json5value5ValueNtB5_16ApiResponseTrait11data_format
FNDA:18,_RINvNtNtNtCs532nfEa3ofR_9open_lark4core8api_resp5tests20create_test_responseNtNtCsiTraAjBDcu4_5alloc6string6StringEB8_
FNDA:100,_RINvNtNtNtCs532nfEa3ofR_9open_lark4core8api_resp5tests20create_test_responselEB8_
FNDA:100,_RNCNvNtNtNtCs532nfEa3ofR_9open_lark4core8api_resp5testss_36test_base_response_memory_efficiency0B9_
FNDA:1,_RNCNvNtNtNtCs532nfEa3ofR_9open_lark4core8api_resp5testss_37test_base_response_help_links_failure0B9_
FNF:83
FNH:68
DA:18,125
DA:19,125
DA:20,125
DA:22,15
DA:23,15
DA:24,15
DA:26,6
DA:27,6
DA:28,6
DA:30,3
DA:31,3
DA:32,3
DA:35,8
DA:36,8
DA:37,8
DA:40,0
DA:41,0
DA:42,0
DA:45,0
DA:46,0
DA:47,0
DA:48,0
DA:49,0
DA:52,0
DA:53,0
DA:54,0
DA:55,0
DA:56,0
DA:59,0
DA:60,0
DA:61,0
DA:62,0
DA:63,0
DA:66,0
DA:67,0
DA:68,0
DA:69,0
DA:70,0
DA:73,0
DA:74,0
DA:75,0
DA:78,1
DA:79,1
DA:80,1
DA:83,3
DA:84,3
DA:85,2
DA:87,1
DA:88,0
DA:90,1
DA:92,1
DA:94,3
DA:97,2
DA:98,2
DA:99,1
DA:100,1
DA:102,1
DA:103,1
DA:104,1
DA:105,1
DA:106,1
DA:108,2
DA:111,1
DA:112,1
DA:113,1
DA:114,0
DA:116,0
DA:117,0
DA:118,0
DA:119,0
DA:120,0
DA:121,0
DA:122,0
DA:123,0
DA:124,0
DA:125,0
DA:126,0
DA:127,0
DA:128,0
DA:130,0
DA:132,0
DA:135,0
DA:138,1
DA:141,2
DA:142,2
DA:143,1
DA:144,1
DA:147,1
DA:148,1
DA:149,1
DA:151,2
DA:154,3
DA:155,3
DA:156,1
DA:157,2
DA:159,2
DA:160,0
DA:161,0
DA:162,0
DA:164,0
DA:165,0
DA:166,0
DA:168,0
DA:169,0
DA:170,0
DA:172,0
DA:173,0
DA:174,0
DA:175,0
DA:177,0
DA:178,0
DA:179,0
DA:180,0
DA:182,0
DA:183,0
DA:184,0
DA:186,2
DA:187,2
DA:188,2
DA:191,3
DA:194,3
DA:195,3
DA:196,1
DA:197,2
DA:199,2
DA:200,0
DA:201,0
DA:202,0
DA:203,0
DA:204,0
DA:205,0
DA:206,0
DA:207,0
DA:208,0
DA:209,0
DA:211,2
DA:212,2
DA:213,2
DA:214,2
DA:215,2
DA:216,2
DA:219,3
DA:222,2
DA:223,2
DA:224,1
DA:225,1
DA:226,1
DA:228,1
DA:229,1
DA:231,1
DA:232,0
DA:233,0
DA:234,1
DA:236,1
DA:238,1
DA:239,1
DA:240,1
DA:241,2
DA:242,2
DA:243,2
DA:244,0
DA:246,1
DA:247,1
DA:248,1
DA:249,3
DA:250,2
DA:251,2
DA:252,0
DA:254,1
DA:255,0
DA:256,1
DA:257,2
DA:265,0
DA:266,0
DA:267,0
DA:291,1
DA:292,1
DA:293,1
DA:297,1
DA:298,1
DA:299,1
DA:307,1
DA:308,1
DA:309,1
DA:316,1
DA:317,1
DA:318,1
DA:329,1
DA:330,1
DA:331,1
DA:333,1
DA:334,1
DA:335,1
DA:400,119
DA:401,119
DA:402,119
DA:403,119
DA:404,119
DA:405,119
DA:406,119
DA:409,118
DA:410,118
DA:411,118
DA:412,118
DA:413,118
DA:414,118
DA:417,1
DA:418,1
DA:419,1
DA:420,1
DA:422,1
DA:423,1
DA:424,1
DA:427,1
DA:428,1
DA:429,1
DA:430,1
DA:431,1
DA:434,1
DA:435,1
DA:436,1
DA:437,1
DA:438,1
DA:439,1
DA:440,1
DA:443,1
DA:444,1
DA:445,1
DA:446,1
DA:447,1
DA:448,1
DA:451,1
DA:452,1
DA:453,1
DA:454,1
DA:455,1
DA:456,1
DA:457,1
DA:458,1
DA:461,1
DA:462,1
DA:463,1
DA:464,1
DA:465,1
DA:466,1
DA:467,1
DA:470,1
DA:471,1
DA:472,1
DA:473,1
DA:475,1
DA:476,1
DA:477,1
DA:478,1
DA:480,0
DA:482,1
DA:485,1
DA:486,1
DA:487,1
DA:488,1
DA:489,1
DA:490,1
DA:493,1
DA:494,1
DA:495,1
DA:496,1
DA:497,1
DA:500,1
DA:501,1
DA:502,1
DA:503,1
DA:504,1
DA:505,1
DA:508,1
DA:509,1
DA:510,1
DA:511,1
DA:512,1
DA:515,1
DA:516,1
DA:517,1
DA:518,1
DA:519,1
DA:520,1
DA:523,1
DA:524,1
DA:525,1
DA:526,1
DA:527,1
DA:530,1
DA:531,1
DA:532,1
DA:533,1
DA:534,1
DA:535,1
DA:538,1
DA:539,1
DA:540,1
DA:542,1
DA:544,1
DA:545,1
DA:546,1
DA:549,1
DA:550,1
DA:551,1
DA:552,1
DA:553,1
DA:554,1
DA:556,1
DA:557,1
DA:558,1
DA:560,1
DA:561,1
DA:562,1
DA:563,1
DA:566,1
DA:567,1
DA:568,1
DA:569,1
DA:570,1
DA:571,1
DA:573,1
DA:574,1
DA:575,1
DA:576,1
DA:579,1
DA:580,1
DA:581,1
DA:584,1
DA:587,1
DA:588,1
DA:589,1
DA:590,1
DA:591,1
DA:592,1
DA:594,1
DA:595,1
DA:596,1
DA:597,1
DA:598,1
DA:601,1
DA:602,1
DA:603,1
DA:604,1
DA:605,1
DA:606,1
DA:608,1
DA:609,1
DA:610,1
DA:611,1
DA:614,1
DA:615,1
DA:616,1
DA:617,1
DA:618,1
DA:619,1
DA:622,1
DA:623,1
DA:624,1
DA:627,1
DA:628,1
DA:629,1
DA:630,1
DA:632,1
DA:633,1
DA:634,1
DA:637,1
DA:638,1
DA:639,1
DA:640,1
DA:641,1
DA:644,1
DA:645,1
DA:646,1
DA:649,1
DA:650,1
DA:651,1
DA:654,1
DA:657,1
DA:658,1
DA:659,1
DA:661,1
DA:662,1
DA:664,1
DA:665,1
DA:666,1
DA:667,1
DA:670,1
DA:671,1
DA:672,1
DA:673,1
DA:674,1
DA:676,1
DA:677,1
DA:679,1
DA:680,1
DA:681,1
DA:682,1
DA:685,1
DA:686,1
DA:687,1
DA:688,1
DA:689,1
DA:691,1
DA:692,1
DA:693,1
DA:694,1
DA:697,1
DA:698,1
DA:699,1
DA:700,1
DA:701,1
DA:702,1
DA:703,1
DA:705,1
DA:706,1
DA:708,1
DA:709,1
DA:710,1
DA:713,1
DA:714,1
DA:715,1
DA:716,1
DA:717,1
DA:719,1
DA:720,1
DA:721,1
DA:722,1
DA:723,1
DA:724,1
DA:726,1
DA:727,1
DA:728,1
DA:730,1
DA:731,1
DA:732,1
DA:733,1
DA:736,1
DA:737,1
DA:738,1
DA:739,1
DA:740,1
DA:741,1
DA:743,1
DA:744,1
DA:745,1
DA:746,1
DA:747,1
DA:748,1
DA:750,1
DA:751,1
DA:752,1
DA:754,1
DA:755,1
DA:756,1
DA:757,1
DA:758,1
DA:760,1
DA:763,1
DA:764,1
DA:765,1
DA:766,1
DA:767,1
DA:768,1
DA:770,1
DA:771,1
DA:772,1
DA:773,1
DA:774,1
DA:775,1
DA:777,1
DA:778,1
DA:779,1
DA:781,1
DA:782,1
DA:783,1
DA:784,1
DA:785,1
DA:787,1
DA:790,1
DA:791,1
DA:792,1
DA:793,1
DA:794,1
DA:795,1
DA:796,1
DA:798,1
DA:799,1
DA:800,1
DA:801,1
DA:804,1
DA:805,1
DA:806,1
DA:807,1
DA:808,1
DA:809,1
DA:810,1
DA:812,1
DA:813,1
DA:814,1
DA:815,1
DA:818,1
DA:819,1
DA:820,1
DA:821,1
DA:822,1
DA:824,1
DA:825,1
DA:826,1
DA:828,1
DA:829,1
DA:830,1
DA:831,1
DA:834,1
DA:835,1
DA:836,1
DA:837,1
DA:838,1
DA:840,1
DA:842,1
DA:844,1
DA:845,1
DA:846,1
DA:847,1
DA:850,1
DA:851,1
DA:852,1
DA:853,1
DA:854,1
DA:855,1
DA:856,1
DA:857,1
DA:858,1
DA:860,1
DA:861,1
DA:862,1
DA:864,1
DA:865,1
DA:866,1
DA:867,1
DA:870,1
DA:871,1
DA:872,1
DA:873,1
DA:874,1
DA:875,1
DA:876,1
DA:879,1
DA:880,1
DA:881,1
DA:882,1
DA:883,1
DA:884,1
DA:885,1
DA:886,1
DA:888,1
DA:889,1
DA:890,1
DA:891,1
DA:893,1
DA:894,1
DA:895,1
DA:896,1
DA:897,1
DA:898,1
DA:900,1
DA:903,1
DA:905,1
DA:906,1
DA:907,1
DA:908,1
DA:911,1
DA:912,1
DA:913,1
DA:914,1
DA:915,1
DA:916,1
DA:917,1
DA:918,1
DA:919,1
DA:920,1
DA:921,1
DA:922,1
DA:923,1
DA:924,1
DA:925,1
DA:926,1
DA:927,1
DA:928,1
DA:929,1
DA:930,1
DA:931,1
DA:932,1
DA:933,1
DA:934,1
DA:936,1
DA:937,1
DA:939,1
DA:940,1
DA:941,1
DA:942,1
DA:943,1
DA:946,1
DA:948,1
DA:949,100
DA:950,1
DA:952,1
DA:955,100
DA:956,100
DA:957,100
DA:959,1
BRF:0
BRH:0
LF:623
LH:532
end_of_record
SF:/Users/zool/RustroverProjects/open-lark/src/core/app_ticket_manager.rs
FN:247,_RNCNvNtNtNtCs532nfEa3ofR_9open_lark4core18app_ticket_manager5testss_26test_get_with_empty_ticket0B9_
FN:235,_RNCNvNtNtNtCs532nfEa3ofR_9open_lark4core18app_ticket_manager5testss_27test_get_with_cached_ticket0B9_
FN:260,_RNCNvNtNtNtCs532nfEa3ofR_9open_lark4core18app_ticket_manager5testss_30test_get_without_cached_ticket0B9_
FN:33,_RNCNvMs_NtNtCs532nfEa3ofR_9open_lark4core18app_ticket_managerNtB6_16AppTicketManager3get0Ba_
FN:52,_RNCNvNtNtCs532nfEa3ofR_9open_lark4core18app_ticket_manager16apply_app_ticket0B7_
FN:33,_RNvMs_NtNtCs532nfEa3ofR_9open_lark4core18app_ticket_managerNtB4_16AppTicketManager3get
FN:22,_RNvMs_NtNtCs532nfEa3ofR_9open_lark4core18app_ticket_managerNtB4_16AppTicketManager3new
FN:28,_RNvMs_NtNtCs532nfEa3ofR_9open_lark4core18app_ticket_managerNtB4_16AppTicketManager3set
FN:48,_RNvNtNtCs532nfEa3ofR_9open_lark4core18app_ticket_manager14app_ticket_key
FN:52,_RNvNtNtCs532nfEa3ofR_9open_lark4core18app_ticket_manager16apply_app_ticket
FN:16,_RNvXNtNtCs532nfEa3ofR_9open_lark4core18app_ticket_managerNtB2_16AppTicketManagerNtNtCsaNl6UpbT7bw_4core7default7Default7default
FN:85,_RNvNtNtNtCs532nfEa3ofR_9open_lark4core18app_ticket_manager5tests18create_test_config
FN:185,_RNvNtNtNtCs532nfEa3ofR_9open_lark4core18app_ticket_manager5testss_17test_empty_app_id
FN:150,_RNvNtNtNtCs532nfEa3ofR_9open_lark4core18app_ticket_manager5testss_22test_ticket_expiration
FN:119,_RNvNtNtNtCs532nfEa3ofR_9open_lark4core18app_ticket_manager5testss_23test_set_and_get_ticket
FN:207,_RNvNtNtNtCs532nfEa3ofR_9open_lark4core18app_ticket_manager5testss_25test_zero_expiration_time
FN:307,_RNvNtNtNtCs532nfEa3ofR_9open_lark4core18app_ticket_manager5testss_26test_app_ticket_key_format
FN:247,_RNvNtNtNtCs532nfEa3ofR_9open_lark4core18app_ticket_manager5testss_26test_get_with_empty_ticket
FN:235,_RNvNtNtNtCs532nfEa3ofR_9open_lark4core18app_ticket_manager5testss_27test_get_with_cached_ticket
FN:223,_RNvNtNtNtCs532nfEa3ofR_9open_lark4core18app_ticket_manager5testss_27test_very_long_ticket_value
FN:110,_RNvNtNtNtCs532nfEa3ofR_9open_lark4core18app_ticket_manager5testss_30test_app_ticket_key_generation
FN:260,_RNvNtNtNtCs532nfEa3ofR_9open_lark4core18app_ticket_manager5testss_30test_get_without_cached_ticket
FN:169,_RNvNtNtNtCs532nfEa3ofR_9open_lark4core18app_ticket_manager5testss_30test_overwrite_existing_ticket
FN:102,_RNvNtNtNtCs532nfEa3ofR_9open_lark4core18app_ticket_manager5testss_31test_app_ticket_manager_default
FN:94,_RNvNtNtNtCs532nfEa3ofR_9open_lark4core18app_ticket_manager5testss_32test_app_ticket_manager_creation
FN:196,_RNvNtNtNtCs532nfEa3ofR_9open_lark4core18app_ticket_manager5testss_33test_special_characters_in_app_id
FN:288,_RNvNtNtNtCs532nfEa3ofR_9open_lark4core18app_ticket_manager5testss_35test_multiple_managers_independence
FN:134,_RNvNtNtNtCs532nfEa3ofR_9open_lark4core18app_ticket_manager5testss_38test_set_ticket_with_different_app_ids
FN:270,_RNvNtNtNtCs532nfEa3ofR_9open_lark4core18app_ticket_manager5testss_40test_resend_app_ticket_req_serialization
FNDA:1,_RNCNvNtNtNtCs532nfEa3ofR_9open_lark4core18app_ticket_manager5testss_26test_get_with_empty_ticket0B9_
FNDA:1,_RNCNvNtNtNtCs532nfEa3ofR_9open_lark4core18app_ticket_manager5testss_27test_get_with_cached_ticket0B9_
FNDA:1,_RNCNvNtNtNtCs532nfEa3ofR_9open_lark4core18app_ticket_manager5testss_30test_get_without_cached_ticket0B9_
FNDA:4,_RNCNvMs_NtNtCs532nfEa3ofR_9open_lark4core18app_ticket_managerNtB6_16AppTicketManager3get0Ba_
FNDA:1,_RNCNvNtNtCs532nfEa3ofR_9open_lark4core18app_ticket_manager16apply_app_ticket0B7_
FNDA:4,_RNvMs_NtNtCs532nfEa3ofR_9open_lark4core18app_ticket_managerNtB4_16AppTicketManager3get
FNDA:267,_RNvMs_NtNtCs532nfEa3ofR_9open_lark4core18app_ticket_managerNtB4_16AppTicketManager3new
FNDA:14,_RNvMs_NtNtCs532nfEa3ofR_9open_lark4core18app_ticket_managerNtB4_16AppTicketManager3set
FNDA:34,_RNvNtNtCs532nfEa3ofR_9open_lark4core18app_ticket_manager14app_ticket_key
FNDA:1,_RNvNtNtCs532nfEa3ofR_9open_lark4core18app_ticket_manager16apply_app_ticket
FNDA:1,_RNvXNtNtCs532nfEa3ofR_9open_lark4core18app_ticket_managerNtB2_16AppTicketManagerNtNtCsaNl6UpbT7bw_4core7default7Default7default
FNDA:3,_RNvNtNtNtCs532nfEa3ofR_9open_lark4core18app_ticket_manager5tests18create_test_config
FNDA:1,_RNvNtNtNtCs532nfEa3ofR_9open_lark4core18app_ticket_manager5testss_17test_empty_app_id
FNDA:1,_RNvNtNtNtCs532nfEa3ofR_9open_lark4core18app_ticket_manager5testss_22test_ticket_expiration
FNDA:1,_RNvNtNtNtCs532nfEa3ofR_9open_lark4core18app_ticket_manager5testss_23test_set_and_get_ticket
FNDA:1,_RNvNtNtNtCs532nfEa3ofR_9open_lark4core18app_ticket_manager5testss_25test_zero_expiration_time
FNDA:1,_RNvNtNtNtCs532nfEa3ofR_9open_lark4core18app_ticket_manager5testss_26test_app_ticket_key_format
FNDA:1,_RNvNtNtNtCs532nfEa3ofR_9open_lark4core18app_ticket_manager5testss_26test_get_with_empty_ticket
FNDA:1,_RNvNtNtNtCs532nfEa3ofR_9open_lark4core18app_ticket_manager5testss_27test_get_with_cached_ticket
FNDA:1,_RNvNtNtNtCs532nfEa3ofR_9open_lark4core18app_ticket_manager5testss_27test_very_long_ticket_value
FNDA:1,_RNvNtNtNtCs532nfEa3ofR_9open_lark4core18app_ticket_manager5testss_30test_app_ticket_key_generation
FNDA:1,_RNvNtNtNtCs532nfEa3ofR_9open_lark4core18app_ticket_manager5testss_30test_get_without_cached_ticket
FNDA:1,_RNvNtNtNtCs532nfEa3ofR_9open_lark4core18app_ticket_manager5testss_30test_overwrite_existing_ticket
FNDA:1,_RNvNtNtNtCs532nfEa3ofR_9open_lark4core18app_ticket_manager5testss_31test_app_ticket_manager_default
FNDA:1,_RNvNtNtNtCs532nfEa3ofR_9open_lark4core18app_ticket_manager5testss_32test_app_ticket_manager_creation
FNDA:1,_RNvNtNtNtCs532nfEa3ofR_9open_lark4core18app_ticket_manager5testss_33test_special_characters_in_app_id
FNDA:1,_RNvNtNtNtCs532nfEa3ofR_9open_lark4core18app_ticket_manager5testss_35test_multiple_managers_independence
FNDA:1,_RNvNtNtNtCs532nfEa3ofR_9open_lark4core18app_ticket_manager5testss_38test_set_ticket_with_different_app_ids
FNDA:1,_RNvNtNtNtCs532nfEa3ofR_9open_lark4core18app_ticket_manager5testss_40test_resend_app_ticket_req_serialization
FNF:29
FNH:29
DA:16,1
DA:17,1
DA:18,1
DA:22,267
DA:23,267
DA:24,267
DA:25,267
DA:26,267
DA:28,14
DA:29,14
DA:30,14
DA:31,14
DA:33,4
DA:34,4
DA:35,4
DA:36,2
DA:37,2
DA:38,2
DA:39,1
DA:40,1
DA:42,2
DA:45,4
DA:48,34
DA:49,34
DA:50,34
DA:52,1
DA:53,1
DA:55,1
DA:56,1
DA:57,1
DA:58,1
DA:60,1
DA:62,0
DA:63,1
DA:85,3
DA:86,3
DA:87,3
DA:88,3
DA:89,3
DA:90,3
DA:91,3
DA:94,1
DA:95,1
DA:98,1
DA:99,1
DA:102,1
DA:103,1
DA:106,1
DA:107,1
DA:110,1
DA:111,1
DA:112,1
DA:114,1
DA:115,1
DA:116,1
DA:119,1
DA:120,1
DA:121,1
DA:122,1
DA:125,1
DA:128,1
DA:129,1
DA:130,1
DA:131,1
DA:134,1
DA:135,1
DA:138,1
DA:139,1
DA:142,1
DA:143,1
DA:145,1
DA:146,1
DA:147,1
DA:150,1
DA:151,1
DA:152,1
DA:155,1
DA:158,1
DA:159,1
DA:162,1
DA:165,1
DA:166,1
DA:169,1
DA:170,1
DA:171,1
DA:174,1
DA:177,1
DA:180,1
DA:181,1
DA:182,1
DA:185,1
DA:186,1
DA:189,1
DA:191,1
DA:192,1
DA:193,1
DA:196,1
DA:197,1
DA:198,1
DA:200,1
DA:202,1
DA:203,1
DA:204,1
DA:207,1
DA:208,1
DA:209,1
DA:212,1
DA:215,1
DA:217,1
DA:219,1
DA:220,1
DA:223,1
DA:224,1
DA:225,1
DA:226,1
DA:228,1
DA:230,1
DA:231,1
DA:232,1
DA:235,1
DA:236,1
DA:237,1
DA:240,1
DA:242,1
DA:243,1
DA:244,1
DA:247,1
DA:248,1
DA:249,1
DA:252,1
DA:255,1
DA:256,1
DA:257,1
DA:260,1
DA:261,1
DA:262,1
DA:265,1
DA:266,1
DA:267,1
DA:270,1
DA:271,1
DA:272,1
DA:273,1
DA:274,1
DA:277,1
DA:278,1
DA:279,1
DA:282,1
DA:283,1
DA:284,1
DA:285,1
DA:288,1
DA:289,1
DA:290,1
DA:292,1
DA:293,1
DA:296,1
DA:297,1
DA:299,1
DA:300,1
DA:302,1
DA:303,1
DA:304,1
DA:307,1
DA:308,1
DA:309,1
DA:310,1
DA:311,1
DA:312,1
DA:315,5
DA:316,4
DA:317,4
DA:319,4
DA:321,1
BRF:0
BRH:0
LF:182
LH:181
end_of_record
SF:/Users/zool/RustroverProjects/open-lark/src/core/cache.rs
FN:103,_RNvNtNtNtCs532nfEa3ofR_9open_lark4core5cache5testss_18test_cache_default
FN:95,_RNvNtNtNtCs532nfEa3ofR_9open_lark4core5cache5testss_19test_cache_creation
FN:123,_RNvNtNtNtCs532nfEa3ofR_9open_lark4core5cache5testss_21test_cache_expiration
FN:274,_RNvNtNtNtCs532nfEa3ofR_9open_lark4core5cache5testss_22test_cache_debug_trait
FN:298,_RNvNtNtNtCs532nfEa3ofR_9open_lark4core5cache5testss_22test_cache_entry_clone
FN:111,_RNvNtNtNtCs532nfEa3ofR_9open_lark4core5cache5testss_22test_cache_set_and_get
FN:227,_RNvNtNtNtCs532nfEa3ofR_9open_lark4core5cache5testss_24test_cache_multiple_keys
FN:214,_RNvNtNtNtCs532nfEa3ofR_9open_lark4core5cache5testss_24test_cache_overwrite_key
FN:282,_RNvNtNtNtCs532nfEa3ofR_9open_lark4core5cache5testss_24test_zero_expiry_seconds
FN:140,_RNvNtNtNtCs532nfEa3ofR_9open_lark4core5cache5testss_26test_cache_nonexistent_key
FN:148,_RNvNtNtNtCs532nfEa3ofR_9open_lark4core5cache5testss_27test_cache_with_expiry_info
FN:311,_RNvNtNtNtCs532nfEa3ofR_9open_lark4core5cache5testss_27test_cache_with_zero_expiry
FN:262,_RNvNtNtNtCs532nfEa3ofR_9open_lark4core5cache5testss_28test_cache_entry_debug_trait
FN:335,_RNvNtNtNtCs532nfEa3ofR_9open_lark4core5cache5testss_28test_cache_large_expiry_time
FN:394,_RNvNtNtNtCs532nfEa3ofR_9open_lark4core5cache5testss_28test_cache_memory_efficiency
FN:383,_RNvNtNtNtCs532nfEa3ofR_9open_lark4core5cache5testss_28test_cache_with_long_strings
FN:437,_RNvNtNtNtCs532nfEa3ofR_9open_lark4core5cache5testss_29test_cache_entry_exact_timing
FN:479,_RNvNtNtNtCs532nfEa3ofR_9open_lark4core5cache5testss_29test_cache_with_complex_types
FN:355,_RNvNtNtNtCs532nfEa3ofR_9open_lark4core5cache5testss_29test_cache_with_empty_strings
FN:179,_RNvNtNtNtCs532nfEa3ofR_9open_lark4core5cache5testss_31test_cache_entry_expires_within
FN:165,_RNvNtNtNtCs532nfEa3ofR_9open_lark4core5cache5testss_31test_cache_entry_expiry_seconds
FN:195,_RNvNtNtNtCs532nfEa3ofR_9open_lark4core5cache5testss_31test_cache_with_different_types
FN:322,_RNvNtNtNtCs532nfEa3ofR_9open_lark4core5cache5testss_31test_cache_with_negative_expiry
FN:372,_RNvNtNtNtCs532nfEa3ofR_9open_lark4core5cache5testss_31test_cache_with_unicode_strings
FN:242,_RNvNtNtNtCs532nfEa3ofR_9open_lark4core5cache5testss_32test_cache_expired_entry_cleanup
FN:455,_RNvNtNtNtCs532nfEa3ofR_9open_lark4core5cache5testss_36test_cache_entry_boundary_conditions
FN:500,_RNvNtNtNtCs532nfEa3ofR_9open_lark4core5cache5testss_36test_get_with_expiry_expired_cleanup
FN:347,_RNvNtNtNtCs532nfEa3ofR_9open_lark4core5cache5testss_36test_get_with_expiry_nonexistent_key
FN:411,_RNvNtNtNtCs532nfEa3ofR_9open_lark4core5cache5testss_38test_cache_concurrent_style_simulation
FN:83,_RNvMs0_NtNtCs532nfEa3ofR_9open_lark4core5cacheINtB5_10CacheEntryNtNtCsiTraAjBDcu4_5alloc6string6StringE14expires_withinB9_
FN:74,_RNvMs0_NtNtCs532nfEa3ofR_9open_lark4core5cacheINtB5_10CacheEntryNtNtCsiTraAjBDcu4_5alloc6string6StringE14expiry_secondsB9_
FN:74,_RNvMs0_NtNtCs532nfEa3ofR_9open_lark4core5cacheINtB5_10CacheEntrylE14expiry_secondsB9_
FN:23,_RNvMs_NtNtCs532nfEa3ofR_9open_lark4core5cacheINtB4_10QuickCacheINtNtCsaNl6UpbT7bw_4core6option6OptionlEE3getB8_
FN:18,_RNvMs_NtNtCs532nfEa3ofR_9open_lark4core5cacheINtB4_10QuickCacheINtNtCsaNl6UpbT7bw_4core6option6OptionlEE3newB8_
FN:38,_RNvMs_NtNtCs532nfEa3ofR_9open_lark4core5cacheINtB4_10QuickCacheINtNtCsaNl6UpbT7bw_4core6option6OptionlEE3setB8_
FN:23,_RNvMs_NtNtCs532nfEa3ofR_9open_lark4core5cacheINtB4_10QuickCacheINtNtCsiTraAjBDcu4_5alloc3vec3VecIB10_hEEE3getB8_
FN:18,_RNvMs_NtNtCs532nfEa3ofR_9open_lark4core5cacheINtB4_10QuickCacheINtNtCsiTraAjBDcu4_5alloc3vec3VecIB10_hEEE3newB8_
FN:38,_RNvMs_NtNtCs532nfEa3ofR_9open_lark4core5cacheINtB4_10QuickCacheINtNtCsiTraAjBDcu4_5alloc3vec3VecIB10_hEEE3setB8_
FN:44,_RNvMs_NtNtCs532nfEa3ofR_9open_lark4core5cacheINtB4_10QuickCacheINtNtCsiTraAjBDcu4_5alloc3vec3VeclEE15get_with_expiryB8_
FN:23,_RNvMs_NtNtCs532nfEa3ofR_9open_lark4core5cacheINtB4_10QuickCacheINtNtCsiTraAjBDcu4_5alloc3vec3VeclEE3getB8_
FN:18,_RNvMs_NtNtCs532nfEa3ofR_9open_lark4core5cacheINtB4_10QuickCacheINtNtCsiTraAjBDcu4_5alloc3vec3VeclEE3newB8_
FN:38,_RNvMs_NtNtCs532nfEa3ofR_9open_lark4core5cacheINtB4_10QuickCacheINtNtCsiTraAjBDcu4_5alloc3vec3VeclEE3setB8_
FN:23,_RNvMs_NtNtCs532nfEa3ofR_9open_lark4core5cacheINtB4_10QuickCacheINtNtNtNtCsht3nMU9UgFu_3std11collections4hash3map7HashMapNtNtCsiTraAjBDcu4_5alloc6string6StringB1U_EE3getB8_
FN:18,_RNvMs_NtNtCs532nfEa3ofR_9open_lark4core5cacheINtB4_10QuickCacheINtNtNtNtCsht3nMU9UgFu_3std11collections4hash3map7HashMapNtNtCsiTraAjBDcu4_5alloc6string6StringB1U_EE3newB8_
FN:38,_RNvMs_NtNtCs532nfEa3ofR_9open_lark4core5cacheINtB4_10QuickCacheINtNtNtNtCsht3nMU9UgFu_3std11collections4hash3map7HashMapNtNtCsiTraAjBDcu4_5alloc6string6StringB1U_EE3setB8_
FN:44,_RNvMs_NtNtCs532nfEa3ofR_9open_lark4core5cacheINtB4_10QuickCacheNtNtCsiTraAjBDcu4_5alloc6string6StringE15get_with_expiryB8_
FN:23,_RNvMs_NtNtCs532nfEa3ofR_9open_lark4core5cacheINtB4_10QuickCacheNtNtCsiTraAjBDcu4_5alloc6string6StringE3getB8_
FN:18,_RNvMs_NtNtCs532nfEa3ofR_9open_lark4core5cacheINtB4_10QuickCacheNtNtCsiTraAjBDcu4_5alloc6string6StringE3newB8_
FN:38,_RNvMs_NtNtCs532nfEa3ofR_9open_lark4core5cacheINtB4_10QuickCacheNtNtCsiTraAjBDcu4_5alloc6string6StringE3setB8_
FN:44,_RNvMs_NtNtCs532nfEa3ofR_9open_lark4core5cacheINtB4_10QuickCachelE15get_with_expiryB8_
FN:23,_RNvMs_NtNtCs532nfEa3ofR_9open_lark4core5cacheINtB4_10QuickCachelE3getB8_
FN:18,_RNvMs_NtNtCs532nfEa3ofR_9open_lark4core5cacheINtB4_10QuickCachelE3newB8_
FN:38,_RNvMs_NtNtCs532nfEa3ofR_9open_lark4core5cacheINtB4_10QuickCachelE3setB8_
FN:12,_RNvXNtNtCs532nfEa3ofR_9open_lark4core5cacheINtB2_10QuickCachelENtNtCsaNl6UpbT7bw_4core7default7Default7defaultB6_
FNDA:1,_RNvNtNtNtCs532nfEa3ofR_9open_lark4core5cache5testss_18test_cache_default
FNDA:1,_RNvNtNtNtCs532nfEa3ofR_9open_lark4core5cache5testss_19test_cache_creation
FNDA:1,_RNvNtNtNtCs532nfEa3ofR_9open_lark4core5cache5testss_21test_cache_expiration
FNDA:1,_RNvNtNtNtCs532nfEa3ofR_9open_lark4core5cache5testss_22test_cache_debug_trait
FNDA:1,_RNvNtNtNtCs532nfEa3ofR_9open_lark4core5cache5testss_22test_cache_entry_clone
FNDA:1,_RNvNtNtNtCs532nfEa3ofR_9open_lark4core5cache5testss_22test_cache_set_and_get
FNDA:1,_RNvNtNtNtCs532nfEa3ofR_9open_lark4core5cache5testss_24test_cache_multiple_keys
FNDA:1,_RNvNtNtNtCs532nfEa3ofR_9open_lark4core5cache5testss_24test_cache_overwrite_key
FNDA:1,_RNvNtNtNtCs532nfEa3ofR_9open_lark4core5cache5testss_24test_zero_expiry_seconds
FNDA:1,_RNvNtNtNtCs532nfEa3ofR_9open_lark4core5cache5testss_26test_cache_nonexistent_key
FNDA:1,_RNvNtNtNtCs532nfEa3ofR_9open_lark4core5cache5testss_27test_cache_with_expiry_info
FNDA:1,_RNvNtNtNtCs532nfEa3ofR_9open_lark4core5cache5testss_27test_cache_with_zero_expiry
FNDA:1,_RNvNtNtNtCs532nfEa3ofR_9open_lark4core5cache5testss_28test_cache_entry_debug_trait
FNDA:1,_RNvNtNtNtCs532nfEa3ofR_9open_lark4core5cache5testss_28test_cache_large_expiry_time
FNDA:1,_RNvNtNtNtCs532nfEa3ofR_9open_lark4core5cache5testss_28test_cache_memory_efficiency
FNDA:1,_RNvNtNtNtCs532nfEa3ofR_9open_lark4core5cache5testss_28test_cache_with_long_strings
FNDA:1,_RNvNtNtNtCs532nfEa3ofR_9open_lark4core5cache5testss_29test_cache_entry_exact_timing
FNDA:1,_RNvNtNtNtCs532nfEa3ofR_9open_lark4core5cache5testss_29test_cache_with_complex_types
FNDA:1,_RNvNtNtNtCs532nfEa3ofR_9open_lark4core5cache5testss_29test_cache_with_empty_strings
FNDA:1,_RNvNtNtNtCs532nfEa3ofR_9open_lark4core5cache5testss_31test_cache_entry_expires_within
FNDA:1,_RNvNtNtNtCs532nfEa3ofR_9open_lark4core5cache5testss_31test_cache_entry_expiry_seconds
FNDA:1,_RNvNtNtNtCs532nfEa3ofR_9open_lark4core5cache5testss_31test_cache_with_different_types
FNDA:1,_RNvNtNtNtCs532nfEa3ofR_9open_lark4core5cache5testss_31test_cache_with_negative_expiry
FNDA:1,_RNvNtNtNtCs532nfEa3ofR_9open_lark4core5cache5testss_31test_cache_with_unicode_strings
FNDA:1,_RNvNtNtNtCs532nfEa3ofR_9open_lark4core5cache5testss_32test_cache_expired_entry_cleanup
FNDA:1,_RNvNtNtNtCs532nfEa3ofR_9open_lark4core5cache5testss_36test_cache_entry_boundary_conditions
FNDA:1,_RNvNtNtNtCs532nfEa3ofR_9open_lark4core5cache5testss_36test_get_with_expiry_expired_cleanup
FNDA:1,_RNvNtNtNtCs532nfEa3ofR_9open_lark4core5cache5testss_36test_get_with_expiry_nonexistent_key
FNDA:1,_RNvNtNtNtCs532nfEa3ofR_9open_lark4core5cache5testss_38test_cache_concurrent_style_simulation
FNDA:11,_RNvMs0_NtNtCs532nfEa3ofR_9open_lark4core5cacheINtB5_10CacheEntryNtNtCsiTraAjBDcu4_5alloc6string6StringE14expires_withinB9_
FNDA:20,_RNvMs0_NtNtCs532nfEa3ofR_9open_lark4core5cacheINtB5_10CacheEntryNtNtCsiTraAjBDcu4_5alloc6string6StringE14expiry_secondsB9_
FNDA:2,_RNvMs0_NtNtCs532nfEa3ofR_9open_lark4core5cacheINtB5_10CacheEntrylE14expiry_secondsB9_
FNDA:2,_RNvMs_NtNtCs532nfEa3ofR_9open_lark4core5cacheINtB4_10QuickCacheINtNtCsaNl6UpbT7bw_4core6option6OptionlEE3getB8_
FNDA:1,_RNvMs_NtNtCs532nfEa3ofR_9open_lark4core5cacheINtB4_10QuickCacheINtNtCsaNl6UpbT7bw_4core6option6OptionlEE3newB8_
FNDA:2,_RNvMs_NtNtCs532nfEa3ofR_9open_lark4core5cacheINtB4_10QuickCacheINtNtCsaNl6UpbT7bw_4core6option6OptionlEE3setB8_
FNDA:2,_RNvMs_NtNtCs532nfEa3ofR_9open_lark4core5cacheINtB4_10QuickCacheINtNtCsiTraAjBDcu4_5alloc3vec3VecIB10_hEEE3getB8_
FNDA:2,_RNvMs_NtNtCs532nfEa3ofR_9open_lark4core5cacheINtB4_10QuickCacheINtNtCsiTraAjBDcu4_5alloc3vec3VecIB10_hEEE3newB8_
FNDA:1,_RNvMs_NtNtCs532nfEa3ofR_9open_lark4core5cacheINtB4_10QuickCacheINtNtCsiTraAjBDcu4_5alloc3vec3VecIB10_hEEE3setB8_
FNDA:1,_RNvMs_NtNtCs532nfEa3ofR_9open_lark4core5cacheINtB4_10QuickCacheINtNtCsiTraAjBDcu4_5alloc3vec3VeclEE15get_with_expiryB8_
FNDA:1,_RNvMs_NtNtCs532nfEa3ofR_9open_lark4core5cacheINtB4_10QuickCacheINtNtCsiTraAjBDcu4_5alloc3vec3VeclEE3getB8_
FNDA:2,_RNvMs_NtNtCs532nfEa3ofR_9open_lark4core5cacheINtB4_10QuickCacheINtNtCsiTraAjBDcu4_5alloc3vec3VeclEE3newB8_
FNDA:2,_RNvMs_NtNtCs532nfEa3ofR_9open_lark4core5cacheINtB4_10QuickCacheINtNtCsiTraAjBDcu4_5alloc3vec3VeclEE3setB8_
FNDA:1,_RNvMs_NtNtCs532nfEa3ofR_9open_lark4core5cacheINtB4_10QuickCacheINtNtNtNtCsht3nMU9UgFu_3std11collections4hash3map7HashMapNtNtCsiTraAjBDcu4_5alloc6string6StringB1U_EE3getB8_
FNDA:1,_RNvMs_NtNtCs532nfEa3ofR_9open_lark4core5cacheINtB4_10QuickCacheINtNtNtNtCsht3nMU9UgFu_3std11collections4hash3map7HashMapNtNtCsiTraAjBDcu4_5alloc6string6StringB1U_EE3newB8_
FNDA:1,_RNvMs_NtNtCs532nfEa3ofR_9open_lark4core5cacheINtB4_10QuickCacheINtNtNtNtCsht3nMU9UgFu_3std11collections4hash3map7HashMapNtNtCsiTraAjBDcu4_5alloc6string6StringB1U_EE3setB8_
FNDA:10,_RNvMs_NtNtCs532nfEa3ofR_9open_lark4core5cacheINtB4_10QuickCacheNtNtCsiTraAjBDcu4_5alloc6string6StringE15get_with_expiryB8_
FNDA:87,_RNvMs_NtNtCs532nfEa3ofR_9open_lark4core5cacheINtB4_10QuickCacheNtNtCsiTraAjBDcu4_5alloc6string6StringE3getB8_
FNDA:598,_RNvMs_NtNtCs532nfEa3ofR_9open_lark4core5cacheINtB4_10QuickCacheNtNtCsiTraAjBDcu4_5alloc6string6StringE3newB8_
FNDA:50,_RNvMs_NtNtCs532nfEa3ofR_9open_lark4core5cacheINtB4_10QuickCacheNtNtCsiTraAjBDcu4_5alloc6string6StringE3setB8_
FNDA:1,_RNvMs_NtNtCs532nfEa3ofR_9open_lark4core5cacheINtB4_10QuickCachelE15get_with_expiryB8_
FNDA:2,_RNvMs_NtNtCs532nfEa3ofR_9open_lark4core5cacheINtB4_10QuickCachelE3getB8_
FNDA:3,_RNvMs_NtNtCs532nfEa3ofR_9open_lark4core5cacheINtB4_10QuickCachelE3newB8_
FNDA:2,_RNvMs_NtNtCs532nfEa3ofR_9open_lark4core5cacheINtB4_10QuickCachelE3setB8_
FNDA:1,_RNvXNtNtCs532nfEa3ofR_9open_lark4core5cacheINtB2_10QuickCachelENtNtCsaNl6UpbT7bw_4core7default7Default7defaultB6_
FNF:36
FNH:36
DA:12,1
DA:13,1
DA:14,1
DA:18,607
DA:19,607
DA:20,607
DA:21,607
DA:23,95
DA:24,95
DA:25,35
DA:26,60
DA:27,60
DA:28,54
DA:30,6
DA:31,6
DA:35,95
DA:38,58
DA:39,58
DA:40,58
DA:41,58
DA:44,12
DA:45,12
DA:46,2
DA:47,10
DA:48,10
DA:49,10
DA:50,9
DA:51,9
DA:52,9
DA:53,9
DA:54,9
DA:56,1
DA:57,1
DA:61,12
DA:74,22
DA:75,22
DA:76,17
DA:78,5
DA:80,22
DA:83,11
DA:84,11
DA:85,11
DA:95,1
DA:96,1
DA:99,1
DA:100,1
DA:103,1
DA:104,1
DA:107,1
DA:108,1
DA:111,1
DA:112,1
DA:115,1
DA:118,1
DA:119,1
DA:120,1
DA:123,1
DA:124,1
DA:127,1
DA:130,1
DA:133,1
DA:136,1
DA:137,1
DA:140,1
DA:141,1
DA:144,1
DA:145,1
DA:148,1
DA:149,1
DA:152,1
DA:155,1
DA:156,1
DA:158,1
DA:159,1
DA:160,1
DA:161,1
DA:162,1
DA:165,1
DA:166,1
DA:169,1
DA:171,1
DA:172,1
DA:175,1
DA:176,1
DA:179,1
DA:180,1
DA:183,1
DA:185,1
DA:188,1
DA:191,1
DA:192,1
DA:195,1
DA:196,1
DA:197,1
DA:198,1
DA:201,1
DA:202,1
DA:205,1
DA:206,1
DA:209,1
DA:210,1
DA:211,1
DA:214,1
DA:215,1
DA:218,1
DA:219,1
DA:222,1
DA:223,1
DA:224,1
DA:227,1
DA:228,1
DA:231,1
DA:232,1
DA:233,1
DA:236,1
DA:237,1
DA:238,1
DA:239,1
DA:242,1
DA:243,1
DA:246,1
DA:249,1
DA:252,1
DA:255,1
DA:258,1
DA:259,1
DA:262,1
DA:263,1
DA:264,1
DA:266,1
DA:267,1
DA:269,1
DA:270,1
DA:271,1
DA:274,1
DA:275,1
DA:276,1
DA:278,1
DA:279,1
DA:282,1
DA:283,1
DA:284,1
DA:286,1
DA:287,1
DA:288,1
DA:289,1
DA:290,1
DA:293,1
DA:294,1
DA:295,1
DA:298,1
DA:299,1
DA:300,1
DA:302,1
DA:303,1
DA:305,1
DA:306,1
DA:307,1
DA:308,1
DA:311,1
DA:312,1
DA:315,1
DA:318,1
DA:319,1
DA:322,1
DA:323,1
DA:328,1
DA:331,1
DA:332,1
DA:335,1
DA:336,1
DA:339,1
DA:341,1
DA:342,1
DA:343,1
DA:344,1
DA:347,1
DA:348,1
DA:351,1
DA:352,1
DA:355,1
DA:356,1
DA:359,1
DA:360,1
DA:363,1
DA:364,1
DA:367,1
DA:368,1
DA:369,1
DA:372,1
DA:373,1
DA:375,1
DA:376,1
DA:378,1
DA:379,1
DA:380,1
DA:383,1
DA:384,1
DA:386,1
DA:387,1
DA:389,1
DA:390,1
DA:391,1
DA:394,1
DA:395,1
DA:398,9
DA:399,8
DA:400,8
DA:403,9
DA:404,8
DA:405,8
DA:406,8
DA:408,1
DA:411,1
DA:413,1
DA:416,3
DA:417,8
DA:418,6
DA:419,6
DA:421,6
DA:422,6
DA:427,3
DA:428,8
DA:429,6
DA:430,6
DA:431,6
DA:434,1
DA:437,1
DA:439,1
DA:440,1
DA:442,1
DA:443,1
DA:444,1
DA:445,1
DA:446,1
DA:448,1
DA:449,1
DA:450,1
DA:451,1
DA:452,1
DA:455,1
DA:456,1
DA:459,1
DA:460,1
DA:461,1
DA:462,1
DA:463,1
DA:464,1
DA:465,1
DA:466,1
DA:469,1
DA:470,1
DA:471,1
DA:472,1
DA:473,1
DA:474,1
DA:475,1
DA:476,1
DA:479,1
DA:483,1
DA:484,1
DA:485,1
DA:487,1
DA:488,1
DA:491,1
DA:492,1
DA:493,1
DA:495,1
DA:496,1
DA:497,1
DA:500,1
DA:501,1
DA:504,1
DA:507,1
DA:510,1
DA:513,1
DA:516,1
DA:517,1
BRF:0
BRH:0
LF:278
LH:278
end_of_record
SF:/Users/zool/RustroverProjects/open-lark/src/core/config.rs
FN:90,_RNvMs0_NtNtCs532nfEa3ofR_9open_lark4core6configNtB5_13ConfigBuilder11http_client
FN:100,_RNvMs0_NtNtCs532nfEa3ofR_9open_lark4core6configNtB5_13ConfigBuilder6header
FN:472,_RNCNvNtNtNtCs532nfEa3ofR_9open_lark4core6config5testss_29test_config_memory_efficiency0B9_
FN:95,_RNvMs0_NtNtCs532nfEa3ofR_9open_lark4core6configNtB5_13ConfigBuilder11req_timeout
FN:80,_RNvMs0_NtNtCs532nfEa3ofR_9open_lark4core6configNtB5_13ConfigBuilder18enable_token_cache
FN:105,_RNvMs0_NtNtCs532nfEa3ofR_9open_lark4core6configNtB5_13ConfigBuilder5build
FN:85,_RNvMs0_NtNtCs532nfEa3ofR_9open_lark4core6configNtB5_13ConfigBuilder8app_type
FN:47,_RNvMs_NtNtCs532nfEa3ofR_9open_lark4core6configNtB4_6Config7builder
FN:30,_RNvXNtNtCs532nfEa3ofR_9open_lark4core6configNtB2_6ConfigNtNtCsaNl6UpbT7bw_4core7default7Default7default
FN:70,_RINvMs0_NtNtCs532nfEa3ofR_9open_lark4core6configNtB6_13ConfigBuilder10app_secretReEBa_
FN:65,_RINvMs0_NtNtCs532nfEa3ofR_9open_lark4core6configNtB6_13ConfigBuilder6app_idReEBa_
FN:75,_RINvMs0_NtNtCs532nfEa3ofR_9open_lark4core6configNtB6_13ConfigBuilder8base_urlReEBa_
FN:166,_RNvNtNtNtCs532nfEa3ofR_9open_lark4core6config5testss_17test_config_clone
FN:200,_RNvNtNtNtCs532nfEa3ofR_9open_lark4core6config5testss_17test_config_debug
FN:153,_RNvNtNtNtCs532nfEa3ofR_9open_lark4core6config5testss_19test_config_default
FN:131,_RNvNtNtNtCs532nfEa3ofR_9open_lark4core6config5testss_20test_config_creation
FN:318,_RNvNtNtNtCs532nfEa3ofR_9open_lark4core6config5testss_28test_config_long_credentials
FN:382,_RNvNtNtNtCs532nfEa3ofR_9open_lark4core6config5testss_29test_config_concurrent_access
FN:311,_RNvNtNtNtCs532nfEa3ofR_9open_lark4core6config5testss_29test_config_empty_credentials
FN:373,_RNvNtNtNtCs532nfEa3ofR_9open_lark4core6config5testss_29test_config_managers_creation
FN:468,_RNvNtNtNtCs532nfEa3ofR_9open_lark4core6config5testss_29test_config_memory_efficiency
FN:211,_RNvNtNtNtCs532nfEa3ofR_9open_lark4core6config5testss_30test_config_with_custom_header
FN:293,_RNvNtNtNtCs532nfEa3ofR_9open_lark4core6config5testss_31test_config_base_url_variations
FN:395,_RNvNtNtNtCs532nfEa3ofR_9open_lark4core6config5testss_31test_config_header_manipulation
FN:350,_RNvNtNtNtCs532nfEa3ofR_9open_lark4core6config5testss_31test_config_unicode_credentials
FN:365,_RNvNtNtNtCs532nfEa3ofR_9open_lark4core6config5testss_32test_config_http_client_creation
FN:277,_RNvNtNtNtCs532nfEa3ofR_9open_lark4core6config5testss_32test_config_token_cache_settings
FN:446,_RNvNtNtNtCs532nfEa3ofR_9open_lark4core6config5testss_34test_config_extreme_timeout_values
FN:249,_RNvNtNtNtCs532nfEa3ofR_9open_lark4core6config5testss_35test_config_with_timeout_variations
FN:232,_RNvNtNtNtCs532nfEa3ofR_9open_lark4core6config5testss_36test_config_with_different_app_types
FN:427,_RNvNtNtNtCs532nfEa3ofR_9open_lark4core6config5testss_38test_config_timeout_duration_precision
FN:335,_RNvNtNtNtCs532nfEa3ofR_9open_lark4core6config5testss_45test_config_special_characters_in_credentials
FNDA:0,_RNvMs0_NtNtCs532nfEa3ofR_9open_lark4core6configNtB5_13ConfigBuilder11http_client
FNDA:0,_RNvMs0_NtNtCs532nfEa3ofR_9open_lark4core6configNtB5_13ConfigBuilder6header
FNDA:100,_RNCNvNtNtNtCs532nfEa3ofR_9open_lark4core6config5testss_29test_config_memory_efficiency0B9_
FNDA:9,_RNvMs0_NtNtCs532nfEa3ofR_9open_lark4core6configNtB5_13ConfigBuilder11req_timeout
FNDA:2,_RNvMs0_NtNtCs532nfEa3ofR_9open_lark4core6configNtB5_13ConfigBuilder18enable_token_cache
FNDA:59,_RNvMs0_NtNtCs532nfEa3ofR_9open_lark4core6configNtB5_13ConfigBuilder5build
FNDA:2,_RNvMs0_NtNtCs532nfEa3ofR_9open_lark4core6configNtB5_13ConfigBuilder8app_type
FNDA:59,_RNvMs_NtNtCs532nfEa3ofR_9open_lark4core6configNtB4_6Config7builder
FNDA:248,_RNvXNtNtCs532nfEa3ofR_9open_lark4core6configNtB2_6ConfigNtNtCsaNl6UpbT7bw_4core7default7Default7default
FNDA:59,_RINvMs0_NtNtCs532nfEa3ofR_9open_lark4core6configNtB6_13ConfigBuilder10app_secretReEBa_
FNDA:59,_RINvMs0_NtNtCs532nfEa3ofR_9open_lark4core6configNtB6_13ConfigBuilder6app_idReEBa_
FNDA:11,_RINvMs0_NtNtCs532nfEa3ofR_9open_lark4core6configNtB6_13ConfigBuilder8base_urlReEBa_
FNDA:1,_RNvNtNtNtCs532nfEa3ofR_9open_lark4core6config5testss_17test_config_clone
FNDA:1,_RNvNtNtNtCs532nfEa3ofR_9open_lark4core6config5testss_17test_config_debug
FNDA:1,_RNvNtNtNtCs532nfEa3ofR_9open_lark4core6config5testss_19test_config_default
FNDA:1,_RNvNtNtNtCs532nfEa3ofR_9open_lark4core6config5testss_20test_config_creation
FNDA:1,_RNvNtNtNtCs532nfEa3ofR_9open_lark4core6config5testss_28test_config_long_credentials
FNDA:1,_RNvNtNtNtCs532nfEa3ofR_9open_lark4core6config5testss_29test_config_concurrent_access
FNDA:1,_RNvNtNtNtCs532nfEa3ofR_9open_lark4core6config5testss_29test_config_empty_credentials
FNDA:1,_RNvNtNtNtCs532nfEa3ofR_9open_lark4core6config5testss_29test_config_managers_creation
FNDA:1,_RNvNtNtNtCs532nfEa3ofR_9open_lark4core6config5testss_29test_config_memory_efficiency
FNDA:1,_RNvNtNtNtCs532nfEa3ofR_9open_lark4core6config5testss_30test_config_with_custom_header
FNDA:1,_RNvNtNtNtCs532nfEa3ofR_9open_lark4core6config5testss_31test_config_base_url_variations
FNDA:1,_RNvNtNtNtCs532nfEa3ofR_9open_lark4core6config5testss_31test_config_header_manipulation
FNDA:1,_RNvNtNtNtCs532nfEa3ofR_9open_lark4core6config5testss_31test_config_unicode_credentials
FNDA:1,_RNvNtNtNtCs532nfEa3ofR_9open_lark4core6config5testss_32test_config_http_client_creation
FNDA:1,_RNvNtNtNtCs532nfEa3ofR_9open_lark4core6config5testss_32test_config_token_cache_settings
FNDA:1,_RNvNtNtNtCs532nfEa3ofR_9open_lark4core6config5testss_34test_config_extreme_timeout_values
FNDA:1,_RNvNtNtNtCs532nfEa3ofR_9open_lark4core6config5testss_35test_config_with_timeout_variations
FNDA:1,_RNvNtNtNtCs532nfEa3ofR_9open_lark4core6config5testss_36test_config_with_different_app_types
FNDA:1,_RNvNtNtNtCs532nfEa3ofR_9open_lark4core6config5testss_38test_config_timeout_duration_precision
FNDA:1,_RNvNtNtNtCs532nfEa3ofR_9open_lark4core6config5testss_45test_config_special_characters_in_credentials
FNF:32
FNH:30
DA:30,248
DA:31,248
DA:32,248
DA:33,248
DA:34,248
DA:35,248
DA:36,248
DA:37,248
DA:38,248
DA:39,248
DA:40,248
DA:41,248
DA:42,248
DA:43,248
DA:47,59
DA:48,59
DA:49,59
DA:65,59
DA:66,59
DA:67,59
DA:68,59
DA:70,59
DA:71,59
DA:72,59
DA:73,59
DA:75,11
DA:76,11
DA:77,11
DA:78,11
DA:80,2
DA:81,2
DA:82,2
DA:83,2
DA:85,2
DA:86,2
DA:87,2
DA:88,2
DA:90,0
DA:91,0
DA:92,0
DA:93,0
DA:95,9
DA:96,9
DA:97,9
DA:98,9
DA:100,0
DA:101,0
DA:102,0
DA:103,0
DA:105,59
DA:106,59
DA:107,59
DA:108,59
DA:109,59
DA:110,59
DA:111,59
DA:112,59
DA:113,59
DA:114,59
DA:115,59
DA:116,59
DA:117,59
DA:118,59
DA:119,59
DA:120,59
DA:121,59
DA:131,1
DA:132,1
DA:133,1
DA:134,1
DA:135,1
DA:136,1
DA:137,1
DA:138,1
DA:139,1
DA:140,1
DA:141,1
DA:142,1
DA:143,1
DA:145,1
DA:146,1
DA:147,1
DA:148,1
DA:149,1
DA:150,1
DA:153,1
DA:154,1
DA:156,1
DA:157,1
DA:158,1
DA:159,1
DA:160,1
DA:161,1
DA:162,1
DA:163,1
DA:166,1
DA:167,1
DA:168,1
DA:169,1
DA:170,1
DA:171,1
DA:172,1
DA:173,1
DA:174,1
DA:175,1
DA:176,1
DA:177,1
DA:178,1
DA:179,1
DA:180,1
DA:181,1
DA:182,1
DA:184,1
DA:186,1
DA:187,1
DA:188,1
DA:189,1
DA:190,1
DA:191,1
DA:192,1
DA:193,1
DA:194,1
DA:195,1
DA:197,1
DA:200,1
DA:201,1
DA:202,1
DA:204,1
DA:205,1
DA:206,1
DA:207,1
DA:208,1
DA:211,1
DA:212,1
DA:213,1
DA:214,1
DA:215,1
DA:216,1
DA:217,1
DA:218,1
DA:220,1
DA:221,1
DA:222,1
DA:223,1
DA:225,1
DA:226,1
DA:227,1
DA:229,1
DA:232,1
DA:233,1
DA:234,1
DA:235,1
DA:236,1
DA:238,1
DA:239,1
DA:240,1
DA:241,1
DA:243,1
DA:244,1
DA:245,1
DA:246,1
DA:249,1
DA:250,1
DA:251,1
DA:252,1
DA:253,1
DA:255,1
DA:256,1
DA:257,1
DA:258,1
DA:260,1
DA:261,1
DA:262,1
DA:263,1
DA:265,1
DA:266,1
DA:268,1
DA:270,1
DA:272,1
DA:274,1
DA:277,1
DA:278,1
DA:279,1
DA:280,1
DA:281,1
DA:283,1
DA:284,1
DA:285,1
DA:286,1
DA:288,1
DA:289,1
DA:290,1
DA:293,1
DA:294,1
DA:295,1
DA:297,1
DA:298,1
DA:299,1
DA:300,1
DA:301,1
DA:303,1
DA:304,1
DA:305,1
DA:306,1
DA:307,1
DA:308,1
DA:311,1
DA:312,1
DA:313,1
DA:314,1
DA:315,1
DA:318,1
DA:319,1
DA:320,1
DA:322,1
DA:323,1
DA:324,1
DA:325,1
DA:326,1
DA:328,1
DA:329,1
DA:330,1
DA:331,1
DA:332,1
DA:335,1
DA:336,1
DA:337,1
DA:339,1
DA:340,1
DA:341,1
DA:342,1
DA:343,1
DA:345,1
DA:346,1
DA:347,1
DA:350,1
DA:351,1
DA:352,1
DA:354,1
DA:355,1
DA:356,1
DA:357,1
DA:358,1
DA:360,1
DA:361,1
DA:362,1
DA:365,1
DA:366,1
DA:369,1
DA:370,1
DA:373,1
DA:374,1
DA:377,1
DA:378,1
DA:379,1
DA:382,1
DA:383,1
DA:384,1
DA:387,1
DA:388,1
DA:390,1
DA:391,1
DA:392,1
DA:395,1
DA:396,1
DA:399,1
DA:402,1
DA:403,1
DA:404,1
DA:405,1
DA:406,1
DA:407,1
DA:408,1
DA:411,1
DA:412,1
DA:413,1
DA:414,1
DA:415,1
DA:416,1
DA:417,1
DA:421,1
DA:422,1
DA:423,1
DA:424,1
DA:427,1
DA:428,1
DA:429,1
DA:430,1
DA:431,1
DA:433,1
DA:434,1
DA:435,1
DA:436,1
DA:438,1
DA:439,1
DA:441,1
DA:443,1
DA:446,1
DA:447,1
DA:448,1
DA:449,1
DA:450,1
DA:452,1
DA:453,1
DA:454,1
DA:455,1
DA:457,1
DA:459,1
DA:461,1
DA:463,1
DA:465,1
DA:468,1
DA:470,1
DA:471,1
DA:472,100
DA:473,100
DA:474,100
DA:475,100
DA:476,1
DA:478,1
DA:481,100
DA:482,100
DA:483,100
DA:485,1
BRF:0
BRH:0
LF:324
LH:316
end_of_record
SF:/Users/zool/RustroverProjects/open-lark/src/core/constants.rs
FN:33,_RNvXNtNtCs532nfEa3ofR_9open_lark4core9constantsNtB2_15AccessTokenTypeNtNtCsaNl6UpbT7bw_4core3fmt7Display3fmt
FN:188,_RNvNtNtNtCs532nfEa3ofR_9open_lark4core9constants5testss_19test_version_format
FN:76,_RNvNtNtNtCs532nfEa3ofR_9open_lark4core9constants5testss_21test_app_type_default
FN:126,_RNvNtNtNtCs532nfEa3ofR_9open_lark4core9constants5testss_21test_constants_values
FN:89,_RNvNtNtNtCs532nfEa3ofR_9open_lark4core9constants5testss_22test_app_type_equality
FN:222,_RNvNtNtNtCs532nfEa3ofR_9open_lark4core9constants5testss_22test_error_code_ranges
FN:81,_RNvNtNtNtCs532nfEa3ofR_9open_lark4core9constants5testss_25test_app_type_debug_clone
FN:251,_RNvNtNtNtCs532nfEa3ofR_9open_lark4core9constants5testss_25test_content_type_formats
FN:208,_RNvNtNtNtCs532nfEa3ofR_9open_lark4core9constants5testss_25test_url_constants_format
FN:243,_RNvNtNtNtCs532nfEa3ofR_9open_lark4core9constants5testss_28test_expiry_delta_reasonable
FN:96,_RNvNtNtNtCs532nfEa3ofR_9open_lark4core9constants5testss_30test_access_token_type_default
FN:101,_RNvNtNtNtCs532nfEa3ofR_9open_lark4core9constants5testss_30test_access_token_type_display
FN:117,_RNvNtNtNtCs532nfEa3ofR_9open_lark4core9constants5testss_31test_access_token_type_equality
FN:109,_RNvNtNtNtCs532nfEa3ofR_9open_lark4core9constants5testss_34test_access_token_type_debug_clone
FNDA:4,_RNvXNtNtCs532nfEa3ofR_9open_lark4core9constantsNtB2_15AccessTokenTypeNtNtCsaNl6UpbT7bw_4core3fmt7Display3fmt
FNDA:1,_RNvNtNtNtCs532nfEa3ofR_9open_lark4core9constants5testss_19test_version_format
FNDA:1,_RNvNtNtNtCs532nfEa3ofR_9open_lark4core9constants5testss_21test_app_type_default
FNDA:1,_RNvNtNtNtCs532nfEa3ofR_9open_lark4core9constants5testss_21test_constants_values
FNDA:1,_RNvNtNtNtCs532nfEa3ofR_9open_lark4core9constants5testss_22test_app_type_equality
FNDA:1,_RNvNtNtNtCs532nfEa3ofR_9open_lark4core9constants5testss_22test_error_code_ranges
FNDA:1,_RNvNtNtNtCs532nfEa3ofR_9open_lark4core9constants5testss_25test_app_type_debug_clone
FNDA:1,_RNvNtNtNtCs532nfEa3ofR_9open_lark4core9constants5testss_25test_content_type_formats
FNDA:1,_RNvNtNtNtCs532nfEa3ofR_9open_lark4core9constants5testss_25test_url_constants_format
FNDA:1,_RNvNtNtNtCs532nfEa3ofR_9open_lark4core9constants5testss_28test_expiry_delta_reasonable
FNDA:1,_RNvNtNtNtCs532nfEa3ofR_9open_lark4core9constants5testss_30test_access_token_type_default
FNDA:1,_RNvNtNtNtCs532nfEa3ofR_9open_lark4core9constants5testss_30test_access_token_type_display
FNDA:1,_RNvNtNtNtCs532nfEa3ofR_9open_lark4core9constants5testss_31test_access_token_type_equality
FNDA:1,_RNvNtNtNtCs532nfEa3ofR_9open_lark4core9constants5testss_34test_access_token_type_debug_clone
FNF:14
FNH:14
DA:33,4
DA:34,4
DA:35,1
DA:36,1
DA:37,1
DA:38,1
DA:40,4
DA:41,4
DA:76,1
DA:77,1
DA:78,1
DA:81,1
DA:82,1
DA:83,1
DA:84,1
DA:85,1
DA:86,1
DA:89,1
DA:90,1
DA:91,1
DA:92,1
DA:93,1
DA:96,1
DA:97,1
DA:98,1
DA:101,1
DA:102,1
DA:103,1
DA:104,1
DA:105,1
DA:106,1
DA:109,1
DA:110,1
DA:111,1
DA:112,1
DA:113,1
DA:114,1
DA:117,1
DA:118,1
DA:119,1
DA:120,1
DA:121,1
DA:122,1
DA:123,1
DA:126,1
DA:128,1
DA:132,1
DA:136,1
DA:140,1
DA:144,1
DA:150,1
DA:152,1
DA:153,1
DA:154,0
DA:158,1
DA:159,1
DA:162,1
DA:163,1
DA:164,1
DA:167,1
DA:168,1
DA:169,1
DA:170,1
DA:171,1
DA:172,1
DA:175,1
DA:176,1
DA:177,1
DA:180,1
DA:181,1
DA:182,1
DA:183,1
DA:184,1
DA:185,1
DA:188,1
DA:190,1
DA:191,1
DA:192,1
DA:193,0
DA:197,4
DA:198,3
DA:200,3
DA:201,3
DA:202,0
DA:205,1
DA:208,1
DA:210,1
DA:211,1
DA:214,1
DA:215,1
DA:216,1
DA:217,1
DA:218,1
DA:219,1
DA:222,1
DA:228,1
DA:229,1
DA:230,1
DA:231,1
DA:232,1
DA:233,1
DA:235,4
DA:236,6
DA:237,6
DA:240,1
DA:243,1
DA:245,1
DA:248,1
DA:251,1
DA:252,1
DA:253,1
DA:254,1
DA:255,1
DA:256,1
BRF:0
BRH:0
LF:114
LH:111
end_of_record
SF:/Users/zool/RustroverProjects/open-lark/src/core/endpoints.rs
FN:2989,_RNvMs_NtNtCs532nfEa3ofR_9open_lark4core9endpointsNtB4_15EndpointBuilder25replace_params_from_array
FN:3061,_RNvMs0_NtNtCs532nfEa3ofR_9open_lark4core9endpointsNtB5_23CalendarEndpointBuilder11set_primary
FN:3046,_RNvMs0_NtNtCs532nfEa3ofR_9open_lark4core9endpointsNtB5_23CalendarEndpointBuilder3get
FN:3051,_RNvMs0_NtNtCs532nfEa3ofR_9open_lark4core9endpointsNtB5_23CalendarEndpointBuilder5patch
FN:3056,_RNvMs0_NtNtCs532nfEa3ofR_9open_lark4core9endpointsNtB5_23CalendarEndpointBuilder6delete
FN:3070,_RNvMs0_NtNtCs532nfEa3ofR_9open_lark4core9endpointsNtB5_23CalendarEndpointBuilder6search
FN:3092,_RNvMs1_NtNtCs532nfEa3ofR_9open_lark4core9endpointsNtB5_28CalendarEventEndpointBuilder3get
FN:3142,_RNvMs1_NtNtCs532nfEa3ofR_9open_lark4core9endpointsNtB5_28CalendarEventEndpointBuilder4list
FN:3102,_RNvMs1_NtNtCs532nfEa3ofR_9open_lark4core9endpointsNtB5_28CalendarEventEndpointBuilder5patch
FN:3122,_RNvMs1_NtNtCs532nfEa3ofR_9open_lark4core9endpointsNtB5_28CalendarEventEndpointBuilder5reply
FN:3083,_RNvMs1_NtNtCs532nfEa3ofR_9open_lark4core9endpointsNtB5_28CalendarEventEndpointBuilder6create
FN:3112,_RNvMs1_NtNtCs532nfEa3ofR_9open_lark4core9endpointsNtB5_28CalendarEventEndpointBuilder6delete
FN:3132,_RNvMs1_NtNtCs532nfEa3ofR_9open_lark4core9endpointsNtB5_28CalendarEventEndpointBuilder6search
FN:3158,_RNvMs2_NtNtCs532nfEa3ofR_9open_lark4core9endpointsNtB5_24ImMessageEndpointBuilder3get
FN:3163,_RNvMs2_NtNtCs532nfEa3ofR_9open_lark4core9endpointsNtB5_24ImMessageEndpointBuilder5patch
FN:3172,_RNvMs2_NtNtCs532nfEa3ofR_9open_lark4core9endpointsNtB5_24ImMessageEndpointBuilder6delete
FN:3198,_RNvMs3_NtNtCs532nfEa3ofR_9open_lark4core9endpointsNtB5_24VcMeetingEndpointBuilder3end
FN:3188,_RNvMs3_NtNtCs532nfEa3ofR_9open_lark4core9endpointsNtB5_24VcMeetingEndpointBuilder3get
FN:3203,_RNvMs3_NtNtCs532nfEa3ofR_9open_lark4core9endpointsNtB5_24VcMeetingEndpointBuilder6invite
FN:3193,_RNvMs3_NtNtCs532nfEa3ofR_9open_lark4core9endpointsNtB5_24VcMeetingEndpointBuilder6update
FN:3208,_RNvMs3_NtNtCs532nfEa3ofR_9open_lark4core9endpointsNtB5_24VcMeetingEndpointBuilder7kickout
FN:3224,_RNvMs4_NtNtCs532nfEa3ofR_9open_lark4core9endpointsNtB5_21VcRoomEndpointBuilder3get
FN:3234,_RNvMs5_NtNtCs532nfEa3ofR_9open_lark4core9endpointsNtB5_24WorkplaceEndpointBuilder11access_data
FN:3239,_RNvMs5_NtNtCs532nfEa3ofR_9open_lark4core9endpointsNtB5_24WorkplaceEndpointBuilder13app_recommend
FN:3013,_RNvMs_NtNtCs532nfEa3ofR_9open_lark4core9endpointsNtB4_15EndpointBuilder10im_message
FN:3020,_RNvMs_NtNtCs532nfEa3ofR_9open_lark4core9endpointsNtB4_15EndpointBuilder10vc_meeting
FN:2948,_RNvMs_NtNtCs532nfEa3ofR_9open_lark4core9endpointsNtB4_15EndpointBuilder13replace_param
FN:3005,_RNvMs_NtNtCs532nfEa3ofR_9open_lark4core9endpointsNtB4_15EndpointBuilder14calendar_event
FN:2967,_RNvMs_NtNtCs532nfEa3ofR_9open_lark4core9endpointsNtB4_15EndpointBuilder14replace_params
FN:3027,_RNvMs_NtNtCs532nfEa3ofR_9open_lark4core9endpointsNtB4_15EndpointBuilder7vc_room
FN:2998,_RNvMs_NtNtCs532nfEa3ofR_9open_lark4core9endpointsNtB4_15EndpointBuilder8calendar
FN:3034,_RNvMs_NtNtCs532nfEa3ofR_9open_lark4core9endpointsNtB4_15EndpointBuilder9workplace
FN:3586,_RNvNtNtNtCs532nfEa3ofR_9open_lark4core9endpoints5testss_17test_vc_endpoints
FN:3489,_RNvNtNtNtCs532nfEa3ofR_9open_lark4core9endpoints5testss_20test_multiple_params
FN:3483,_RNvNtNtNtCs532nfEa3ofR_9open_lark4core9endpoints5testss_21test_endpoint_builder
FN:3608,_RNvNtNtNtCs532nfEa3ofR_9open_lark4core9endpoints5testss_24test_workplace_endpoints
FN:3505,_RNvNtNtNtCs532nfEa3ofR_9open_lark4core9endpoints5testss_30test_vc_room_endpoints_builder
FN:3511,_RNvNtNtNtCs532nfEa3ofR_9open_lark4core9endpoints5testss_31test_calendar_endpoints_builder
FN:3569,_RNvNtNtNtCs532nfEa3ofR_9open_lark4core9endpoints5testss_33test_im_message_endpoints_builder
FN:3536,_RNvNtNtNtCs532nfEa3ofR_9open_lark4core9endpoints5testss_37test_calendar_event_endpoints_builder
FNDA:0,_RNvMs_NtNtCs532nfEa3ofR_9open_lark4core9endpointsNtB4_15EndpointBuilder25replace_params_from_array
FNDA:1,_RNvMs0_NtNtCs532nfEa3ofR_9open_lark4core9endpointsNtB5_23CalendarEndpointBuilder11set_primary
FNDA:1,_RNvMs0_NtNtCs532nfEa3ofR_9open_lark4core9endpointsNtB5_23CalendarEndpointBuilder3get
FNDA:1,_RNvMs0_NtNtCs532nfEa3ofR_9open_lark4core9endpointsNtB5_23CalendarEndpointBuilder5patch
FNDA:1,_RNvMs0_NtNtCs532nfEa3ofR_9open_lark4core9endpointsNtB5_23CalendarEndpointBuilder6delete
FNDA:1,_RNvMs0_NtNtCs532nfEa3ofR_9open_lark4core9endpointsNtB5_23CalendarEndpointBuilder6search
FNDA:1,_RNvMs1_NtNtCs532nfEa3ofR_9open_lark4core9endpointsNtB5_28CalendarEventEndpointBuilder3get
FNDA:1,_RNvMs1_NtNtCs532nfEa3ofR_9open_lark4core9endpointsNtB5_28CalendarEventEndpointBuilder4list
FNDA:1,_RNvMs1_NtNtCs532nfEa3ofR_9open_lark4core9endpointsNtB5_28CalendarEventEndpointBuilder5patch
FNDA:1,_RNvMs1_NtNtCs532nfEa3ofR_9open_lark4core9endpointsNtB5_28CalendarEventEndpointBuilder5reply
FNDA:1,_RNvMs1_NtNtCs532nfEa3ofR_9open_lark4core9endpointsNtB5_28CalendarEventEndpointBuilder6create
FNDA:1,_RNvMs1_NtNtCs532nfEa3ofR_9open_lark4core9endpointsNtB5_28CalendarEventEndpointBuilder6delete
FNDA:1,_RNvMs1_NtNtCs532nfEa3ofR_9open_lark4core9endpointsNtB5_28CalendarEventEndpointBuilder6search
FNDA:1,_RNvMs2_NtNtCs532nfEa3ofR_9open_lark4core9endpointsNtB5_24ImMessageEndpointBuilder3get
FNDA:1,_RNvMs2_NtNtCs532nfEa3ofR_9open_lark4core9endpointsNtB5_24ImMessageEndpointBuilder5patch
FNDA:1,_RNvMs2_NtNtCs532nfEa3ofR_9open_lark4core9endpointsNtB5_24ImMessageEndpointBuilder6delete
FNDA:1,_RNvMs3_NtNtCs532nfEa3ofR_9open_lark4core9endpointsNtB5_24VcMeetingEndpointBuilder3end
FNDA:1,_RNvMs3_NtNtCs532nfEa3ofR_9open_lark4core9endpointsNtB5_24VcMeetingEndpointBuilder3get
FNDA:1,_RNvMs3_NtNtCs532nfEa3ofR_9open_lark4core9endpointsNtB5_24VcMeetingEndpointBuilder6invite
FNDA:1,_RNvMs3_NtNtCs532nfEa3ofR_9open_lark4core9endpointsNtB5_24VcMeetingEndpointBuilder6update
FNDA:1,_RNvMs3_NtNtCs532nfEa3ofR_9open_lark4core9endpointsNtB5_24VcMeetingEndpointBuilder7kickout
FNDA:1,_RNvMs4_NtNtCs532nfEa3ofR_9open_lark4core9endpointsNtB5_21VcRoomEndpointBuilder3get
FNDA:1,_RNvMs5_NtNtCs532nfEa3ofR_9open_lark4core9endpointsNtB5_24WorkplaceEndpointBuilder11access_data
FNDA:1,_RNvMs5_NtNtCs532nfEa3ofR_9open_lark4core9endpointsNtB5_24WorkplaceEndpointBuilder13app_recommend
FNDA:1,_RNvMs_NtNtCs532nfEa3ofR_9open_lark4core9endpointsNtB4_15EndpointBuilder10im_message
FNDA:1,_RNvMs_NtNtCs532nfEa3ofR_9open_lark4core9endpointsNtB4_15EndpointBuilder10vc_meeting
FNDA:27,_RNvMs_NtNtCs532nfEa3ofR_9open_lark4core9endpointsNtB4_15EndpointBuilder13replace_param
FNDA:1,_RNvMs_NtNtCs532nfEa3ofR_9open_lark4core9endpointsNtB4_15EndpointBuilder14calendar_event
FNDA:1,_RNvMs_NtNtCs532nfEa3ofR_9open_lark4core9endpointsNtB4_15EndpointBuilder14replace_params
FNDA:1,_RNvMs_NtNtCs532nfEa3ofR_9open_lark4core9endpointsNtB4_15EndpointBuilder7vc_room
FNDA:1,_RNvMs_NtNtCs532nfEa3ofR_9open_lark4core9endpointsNtB4_15EndpointBuilder8calendar
FNDA:1,_RNvMs_NtNtCs532nfEa3ofR_9open_lark4core9endpointsNtB4_15EndpointBuilder9workplace
FNDA:1,_RNvNtNtNtCs532nfEa3ofR_9open_lark4core9endpoints5testss_17test_vc_endpoints
FNDA:1,_RNvNtNtNtCs532nfEa3ofR_9open_lark4core9endpoints5testss_20test_multiple_params
FNDA:1,_RNvNtNtNtCs532nfEa3ofR_9open_lark4core9endpoints5testss_21test_endpoint_builder
FNDA:1,_RNvNtNtNtCs532nfEa3ofR_9open_lark4core9endpoints5testss_24test_workplace_endpoints
FNDA:1,_RNvNtNtNtCs532nfEa3ofR_9open_lark4core9endpoints5testss_30test_vc_room_endpoints_builder
FNDA:1,_RNvNtNtNtCs532nfEa3ofR_9open_lark4core9endpoints5testss_31test_calendar_endpoints_builder
FNDA:1,_RNvNtNtNtCs532nfEa3ofR_9open_lark4core9endpoints5testss_33test_im_message_endpoints_builder
FNDA:1,_RNvNtNtNtCs532nfEa3ofR_9open_lark4core9endpoints5testss_37test_calendar_event_endpoints_builder
FNF:40
FNH:39
DA:2948,27
DA:2949,27
DA:2950,27
DA:2967,1
DA:2968,1
DA:2969,1
DA:2970,1
DA:2971,1
DA:2972,3
DA:2973,2
DA:2974,2
DA:2975,1
DA:2976,1
DA:2989,0
DA:2990,0
DA:2991,0
DA:2992,0
DA:2993,0
DA:2994,0
DA:2995,0
DA:2998,1
DA:2999,1
DA:3000,1
DA:3001,1
DA:3002,1
DA:3005,1
DA:3006,1
DA:3007,1
DA:3008,1
DA:3009,1
DA:3010,1
DA:3013,1
DA:3014,1
DA:3015,1
DA:3016,1
DA:3017,1
DA:3020,1
DA:3021,1
DA:3022,1
DA:3023,1
DA:3024,1
DA:3027,1
DA:3028,1
DA:3029,1
DA:3030,1
DA:3031,1
DA:3034,1
DA:3035,1
DA:3036,1
DA:3046,1
DA:3047,1
DA:3048,1
DA:3051,1
DA:3052,1
DA:3053,1
DA:3056,1
DA:3057,1
DA:3058,1
DA:3061,1
DA:3062,1
DA:3063,1
DA:3064,1
DA:3065,1
DA:3067,1
DA:3070,1
DA:3071,1
DA:3072,1
DA:3083,1
DA:3084,1
DA:3085,1
DA:3086,1
DA:3087,1
DA:3089,1
DA:3092,1
DA:3093,1
DA:3094,1
DA:3095,1
DA:3096,1
DA:3098,1
DA:3099,1
DA:3102,1
DA:3103,1
DA:3104,1
DA:3105,1
DA:3106,1
DA:3108,1
DA:3109,1
DA:3112,1
DA:3113,1
DA:3114,1
DA:3115,1
DA:3116,1
DA:3118,1
DA:3119,1
DA:3122,1
DA:3123,1
DA:3124,1
DA:3125,1
DA:3126,1
DA:3128,1
DA:3129,1
DA:3132,1
DA:3133,1
DA:3134,1
DA:3135,1
DA:3136,1
DA:3138,1
DA:3139,1
DA:3142,1
DA:3143,1
DA:3144,1
DA:3145,1
DA:3146,1
DA:3148,1
DA:3158,1
DA:3159,1
DA:3160,1
DA:3163,1
DA:3164,1
DA:3165,1
DA:3166,1
DA:3167,1
DA:3169,1
DA:3172,1
DA:3173,1
DA:3174,1
DA:3175,1
DA:3176,1
DA:3178,1
DA:3188,1
DA:3189,1
DA:3190,1
DA:3193,1
DA:3194,1
DA:3195,1
DA:3198,1
DA:3199,1
DA:3200,1
DA:3203,1
DA:3204,1
DA:3205,1
DA:3208,1
DA:3209,1
DA:3210,1
DA:3211,1
DA:3212,1
DA:3214,1
DA:3224,1
DA:3225,1
DA:3226,1
DA:3234,1
DA:3235,1
DA:3236,1
DA:3239,1
DA:3240,1
DA:3241,1
DA:3483,1
DA:3484,1
DA:3485,1
DA:3486,1
DA:3489,1
DA:3490,1
DA:3491,1
DA:3492,1
DA:3494,1
DA:3495,1
DA:3496,1
DA:3498,1
DA:3502,1
DA:3505,1
DA:3506,1
DA:3507,1
DA:3508,1
DA:3511,1
DA:3512,1
DA:3513,1
DA:3514,1
DA:3517,1
DA:3518,1
DA:3521,1
DA:3522,1
DA:3525,1
DA:3526,1
DA:3529,1
DA:3530,1
DA:3533,1
DA:3536,1
DA:3537,1
DA:3538,1
DA:3539,1
DA:3542,1
DA:3543,1
DA:3546,1
DA:3547,1
DA:3550,1
DA:3551,1
DA:3554,1
DA:3555,1
DA:3558,1
DA:3559,1
DA:3562,1
DA:3563,1
DA:3566,1
DA:3569,1
DA:3570,1
DA:3571,1
DA:3572,1
DA:3575,1
DA:3576,1
DA:3579,1
DA:3580,1
DA:3583,1
DA:3586,1
DA:3587,1
DA:3588,1
DA:3589,1
DA:3590,1
DA:3593,1
DA:3594,1
DA:3597,1
DA:3598,1
DA:3601,1
DA:3602,1
DA:3605,1
DA:3608,1
DA:3609,1
DA:3610,1
DA:3611,1
DA:3614,1
DA:3615,1
DA:3618,1
BRF:0
BRH:0
LF:231
LH:224
end_of_record
SF:/Users/zool/RustroverProjects/open-lark/src/core/error.rs
FN:290,_RNvMs3_NtNtCs532nfEa3ofR_9open_lark4core5errorNtB5_12LarkAPIError12is_retryable
FN:259,_RNvMs3_NtNtCs532nfEa3ofR_9open_lark4core5errorNtB5_12LarkAPIError19is_permission_error
FN:326,_RNvMs3_NtNtCs532nfEa3ofR_9open_lark4core5errorNtB5_12LarkAPIError21user_friendly_message
FN:122,_RNvXNtNtCs532nfEa3ofR_9open_lark4core5errorNtB2_12LarkAPIErrorNtNtCsaNl6UpbT7bw_4core5clone5Clone5clone
FN:157,_RNvXs0_NtNtCs532nfEa3ofR_9open_lark4core5errorNtB5_12LarkAPIErrorINtNtCsaNl6UpbT7bw_4core7convert4FromNtNtCsc62nNOP8w9G_10serde_json5error5ErrorE4from
FN:163,_RNvXs1_NtNtCs532nfEa3ofR_9open_lark4core5errorNtB5_12LarkAPIErrorINtNtCsaNl6UpbT7bw_4core7convert4FromNtNtCs9yAWycYWkNf_7reqwest5error5ErrorE4from
FN:169,_RNvXs2_NtNtCs532nfEa3ofR_9open_lark4core5errorNtB5_12LarkAPIErrorINtNtCsaNl6UpbT7bw_4core7convert4FromNtNtCsgK2uieSOBPu_3url6parser10ParseErrorE4from
FN:151,_RNvXs_NtNtCs532nfEa3ofR_9open_lark4core5errorNtB4_12LarkAPIErrorINtNtCsaNl6UpbT7bw_4core7convert4FromNtNtNtCsht3nMU9UgFu_3std2io5error5ErrorE4from
FN:690,_RNvNtNtNtCs532nfEa3ofR_9open_lark4core5error5testss_16test_debug_trait
FN:437,_RNvNtNtNtCs532nfEa3ofR_9open_lark4core5error5testss_16test_error_clone
FN:582,_RNvNtNtNtCs532nfEa3ofR_9open_lark4core5error5testss_17test_is_retryable
FN:364,_RNvNtNtNtCs532nfEa3ofR_9open_lark4core5error5testss_18test_error_display
FN:468,_RNvNtNtNtCs532nfEa3ofR_9open_lark4core5error5testss_22test_from_std_io_error
FN:491,_RNvNtNtNtCs532nfEa3ofR_9open_lark4core5error5testss_23test_from_reqwest_error
FN:424,_RNvNtNtNtCs532nfEa3ofR_9open_lark4core5error5testss_23test_standard_api_error
FN:728,_RNvNtNtNtCs532nfEa3ofR_9open_lark4core5error5testss_24test_error_severity_hash
FN:562,_RNvNtNtNtCs532nfEa3ofR_9open_lark4core5error5testss_24test_is_permission_error
FN:525,_RNvNtNtNtCs532nfEa3ofR_9open_lark4core5error5testss_25test_error_severity_clone
FN:518,_RNvNtNtNtCs532nfEa3ofR_9open_lark4core5error5testss_25test_error_severity_debug
FN:498,_RNvNtNtNtCs532nfEa3ofR_9open_lark4core5error5testss_25test_from_url_parse_error
FN:532,_RNvNtNtNtCs532nfEa3ofR_9open_lark4core5error5testss_26test_api_error_constructor
FN:510,_RNvNtNtNtCs532nfEa3ofR_9open_lark4core5error5testss_26test_error_severity_values
FN:479,_RNvNtNtNtCs532nfEa3ofR_9open_lark4core5error5testss_26test_from_serde_json_error
FN:605,_RNvNtNtNtCs532nfEa3ofR_9open_lark4core5error5testss_26test_user_friendly_message
FN:397,_RNvNtNtNtCs532nfEa3ofR_9open_lark4core5error5testss_27test_api_error_with_context
FN:358,_RNvNtNtNtCs532nfEa3ofR_9open_lark4core5error5testss_28test_lark_api_error_creation
FN:660,_RNvNtNtNtCs532nfEa3ofR_9open_lark4core5error5testss_29test_all_error_variants_clone
FN:550,_RNvNtNtNtCs532nfEa3ofR_9open_lark4core5error5testss_30test_illegal_param_constructor
FN:411,_RNvNtNtNtCs532nfEa3ofR_9open_lark4core5error5testss_33test_api_error_without_request_id
FN:647,_RNvNtNtNtCs532nfEa3ofR_9open_lark4core5error5testss_36test_api_error_user_friendly_message
FN:704,_RNvNtNtNtCs532nfEa3ofR_9open_lark4core5error5testss_37test_api_error_with_string_conversion
FN:716,_RNvNtNtNtCs532nfEa3ofR_9open_lark4core5error5testss_41test_illegal_param_with_string_conversion
FN:248,_RINvMs3_NtNtCs532nfEa3ofR_9open_lark4core5errorNtB6_12LarkAPIError13illegal_paramNtNtCsiTraAjBDcu4_5alloc6string6StringEBa_
FN:248,_RINvMs3_NtNtCs532nfEa3ofR_9open_lark4core5errorNtB6_12LarkAPIError13illegal_paramReEBa_
FN:229,_RINvMs3_NtNtCs532nfEa3ofR_9open_lark4core5errorNtB6_12LarkAPIError9api_errorNtNtCsiTraAjBDcu4_5alloc6string6StringEBa_
FN:229,_RINvMs3_NtNtCs532nfEa3ofR_9open_lark4core5errorNtB6_12LarkAPIError9api_errorReEBa_
FNDA:13,_RNvMs3_NtNtCs532nfEa3ofR_9open_lark4core5errorNtB5_12LarkAPIError12is_retryable
FNDA:3,_RNvMs3_NtNtCs532nfEa3ofR_9open_lark4core5errorNtB5_12LarkAPIError19is_permission_error
FNDA:8,_RNvMs3_NtNtCs532nfEa3ofR_9open_lark4core5errorNtB5_12LarkAPIError21user_friendly_message
FNDA:16,_RNvXNtNtCs532nfEa3ofR_9open_lark4core5errorNtB2_12LarkAPIErrorNtNtCsaNl6UpbT7bw_4core5clone5Clone5clone
FNDA:4,_RNvXs0_NtNtCs532nfEa3ofR_9open_lark4core5errorNtB5_12LarkAPIErrorINtNtCsaNl6UpbT7bw_4core7convert4FromNtNtCsc62nNOP8w9G_10serde_json5error5ErrorE4from
FNDA:11,_RNvXs1_NtNtCs532nfEa3ofR_9open_lark4core5errorNtB5_12LarkAPIErrorINtNtCsaNl6UpbT7bw_4core7convert4FromNtNtCs9yAWycYWkNf_7reqwest5error5ErrorE4from
FNDA:2,_RNvXs2_NtNtCs532nfEa3ofR_9open_lark4core5errorNtB5_12LarkAPIErrorINtNtCsaNl6UpbT7bw_4core7convert4FromNtNtCsgK2uieSOBPu_3url6parser10ParseErrorE4from
FNDA:1,_RNvXs_NtNtCs532nfEa3ofR_9open_lark4core5errorNtB4_12LarkAPIErrorINtNtCsaNl6UpbT7bw_4core7convert4FromNtNtNtCsht3nMU9UgFu_3std2io5error5ErrorE4from
FNDA:1,_RNvNtNtNtCs532nfEa3ofR_9open_lark4core5error5testss_16test_debug_trait
FNDA:1,_RNvNtNtNtCs532nfEa3ofR_9open_lark4core5error5testss_16test_error_clone
FNDA:1,_RNvNtNtNtCs532nfEa3ofR_9open_lark4core5error5testss_17test_is_retryable
FNDA:1,_RNvNtNtNtCs532nfEa3ofR_9open_lark4core5error5testss_18test_error_display
FNDA:1,_RNvNtNtNtCs532nfEa3ofR_9open_lark4core5error5testss_22test_from_std_io_error
FNDA:1,_RNvNtNtNtCs532nfEa3ofR_9open_lark4core5error5testss_23test_from_reqwest_error
FNDA:1,_RNvNtNtNtCs532nfEa3ofR_9open_lark4core5error5testss_23test_standard_api_error
FNDA:1,_RNvNtNtNtCs532nfEa3ofR_9open_lark4core5error5testss_24test_error_severity_hash
FNDA:1,_RNvNtNtNtCs532nfEa3ofR_9open_lark4core5error5testss_24test_is_permission_error
FNDA:1,_RNvNtNtNtCs532nfEa3ofR_9open_lark4core5error5testss_25test_error_severity_clone
FNDA:1,_RNvNtNtNtCs532nfEa3ofR_9open_lark4core5error5testss_25test_error_severity_debug
FNDA:1,_RNvNtNtNtCs532nfEa3ofR_9open_lark4core5error5testss_25test_from_url_parse_error
FNDA:1,_RNvNtNtNtCs532nfEa3ofR_9open_lark4core5error5testss_26test_api_error_constructor
FNDA:1,_RNvNtNtNtCs532nfEa3ofR_9open_lark4core5error5testss_26test_error_severity_values
FNDA:1,_RNvNtNtNtCs532nfEa3ofR_9open_lark4core5error5testss_26test_from_serde_json_error
FNDA:1,_RNvNtNtNtCs532nfEa3ofR_9open_lark4core5error5testss_26test_user_friendly_message
FNDA:1,_RNvNtNtNtCs532nfEa3ofR_9open_lark4core5error5testss_27test_api_error_with_context
FNDA:1,_RNvNtNtNtCs532nfEa3ofR_9open_lark4core5error5testss_28test_lark_api_error_creation
FNDA:1,_RNvNtNtNtCs532nfEa3ofR_9open_lark4core5error5testss_29test_all_error_variants_clone
FNDA:1,_RNvNtNtNtCs532nfEa3ofR_9open_lark4core5error5testss_30test_illegal_param_constructor
FNDA:1,_RNvNtNtNtCs532nfEa3ofR_9open_lark4core5error5testss_33test_api_error_without_request_id
FNDA:1,_RNvNtNtNtCs532nfEa3ofR_9open_lark4core5error5testss_36test_api_error_user_friendly_message
FNDA:1,_RNvNtNtNtCs532nfEa3ofR_9open_lark4core5error5testss_37test_api_error_with_string_conversion
FNDA:1,_RNvNtNtNtCs532nfEa3ofR_9open_lark4core5error5testss_41test_illegal_param_with_string_conversion
FNDA:21,_RINvMs3_NtNtCs532nfEa3ofR_9open_lark4core5errorNtB6_12LarkAPIError13illegal_paramNtNtCsiTraAjBDcu4_5alloc6string6StringEBa_
FNDA:3,_RINvMs3_NtNtCs532nfEa3ofR_9open_lark4core5errorNtB6_12LarkAPIError13illegal_paramReEBa_
FNDA:1,_RINvMs3_NtNtCs532nfEa3ofR_9open_lark4core5errorNtB6_12LarkAPIError9api_errorNtNtCsiTraAjBDcu4_5alloc6string6StringEBa_
FNDA:11,_RINvMs3_NtNtCs532nfEa3ofR_9open_lark4core5errorNtB6_12LarkAPIError9api_errorReEBa_
FNF:34
FNH:34
DA:122,16
DA:123,16
DA:124,1
DA:125,1
DA:126,1
DA:127,1
DA:128,1
DA:130,7
DA:131,7
DA:132,7
DA:133,7
DA:134,7
DA:135,7
DA:136,7
DA:137,7
DA:138,1
DA:139,1
DA:140,1
DA:141,1
DA:142,1
DA:143,1
DA:144,1
DA:145,1
DA:147,16
DA:151,1
DA:152,1
DA:153,1
DA:157,4
DA:158,4
DA:159,4
DA:163,11
DA:164,11
DA:165,11
DA:169,2
DA:170,2
DA:171,2
DA:229,12
DA:230,12
DA:231,12
DA:232,12
DA:233,12
DA:234,12
DA:235,12
DA:248,24
DA:249,24
DA:250,24
DA:259,3
DA:260,3
DA:261,2
DA:262,2
DA:263,1
DA:264,1
DA:268,1
DA:270,3
DA:290,13
DA:291,13
DA:292,6
DA:293,6
DA:295,6
DA:297,0
DA:300,4
DA:301,4
DA:302,3
DA:303,2
DA:304,1
DA:306,3
DA:308,13
DA:326,8
DA:327,8
DA:328,1
DA:329,1
DA:331,0
DA:333,1
DA:336,2
DA:337,1
DA:338,3
DA:339,3
DA:340,1
DA:341,2
DA:342,1
DA:344,1
DA:347,1
DA:349,8
DA:358,1
DA:359,1
DA:360,1
DA:361,1
DA:364,1
DA:365,1
DA:366,1
DA:368,1
DA:369,1
DA:370,1
DA:374,1
DA:375,1
DA:376,1
DA:380,1
DA:381,1
DA:383,1
DA:384,1
DA:386,1
DA:387,1
DA:389,1
DA:390,1
DA:392,1
DA:393,1
DA:394,1
DA:397,1
DA:398,1
DA:399,1
DA:400,1
DA:401,1
DA:402,1
DA:404,1
DA:405,1
DA:406,1
DA:407,1
DA:408,1
DA:411,1
DA:412,1
DA:413,1
DA:414,1
DA:415,1
DA:416,1
DA:418,1
DA:419,1
DA:420,1
DA:421,1
DA:424,1
DA:425,1
DA:426,1
DA:427,1
DA:428,1
DA:429,1
DA:431,1
DA:432,1
DA:433,1
DA:434,1
DA:437,1
DA:438,1
DA:439,1
DA:440,1
DA:441,1
DA:442,1
DA:444,1
DA:446,1
DA:449,1
DA:450,1
DA:451,1
DA:454,1
DA:455,1
DA:456,1
DA:459,1
DA:460,1
DA:461,1
DA:463,0
DA:465,1
DA:468,1
DA:469,1
DA:470,1
DA:472,1
DA:473,1
DA:474,0
DA:476,1
DA:479,1
DA:480,1
DA:481,1
DA:482,1
DA:484,1
DA:485,1
DA:486,0
DA:488,1
DA:491,1
DA:493,1
DA:494,1
DA:495,1
DA:498,1
DA:499,1
DA:500,1
DA:501,1
DA:503,1
DA:504,1
DA:505,0
DA:507,1
DA:510,1
DA:511,1
DA:512,1
DA:513,1
DA:514,1
DA:515,1
DA:518,1
DA:519,1
DA:520,1
DA:521,1
DA:522,1
DA:525,1
DA:526,1
DA:527,1
DA:528,1
DA:529,1
DA:532,1
DA:533,1
DA:535,1
DA:537,1
DA:538,1
DA:539,1
DA:541,1
DA:542,1
DA:543,1
DA:545,0
DA:547,1
DA:550,1
DA:551,1
DA:553,1
DA:554,1
DA:555,1
DA:557,0
DA:559,1
DA:562,1
DA:563,1
DA:564,1
DA:565,1
DA:566,1
DA:567,1
DA:568,1
DA:570,1
DA:571,1
DA:572,1
DA:573,1
DA:574,1
DA:575,1
DA:577,1
DA:578,1
DA:579,1
DA:582,1
DA:584,1
DA:585,1
DA:587,1
DA:588,1
DA:590,1
DA:591,1
DA:594,1
DA:595,1
DA:597,1
DA:598,1
DA:600,1
DA:601,1
DA:602,1
DA:605,1
DA:607,1
DA:608,1
DA:609,1
DA:614,1
DA:615,1
DA:616,1
DA:621,1
DA:622,1
DA:623,1
DA:628,1
DA:629,1
DA:630,1
DA:635,1
DA:636,1
DA:637,1
DA:642,1
DA:643,1
DA:644,1
DA:647,1
DA:648,1
DA:649,1
DA:650,1
DA:651,1
DA:652,1
DA:654,1
DA:655,1
DA:656,1
DA:657,1
DA:660,1
DA:661,1
DA:662,1
DA:663,1
DA:664,1
DA:665,1
DA:666,1
DA:667,1
DA:668,1
DA:669,1
DA:670,1
DA:671,1
DA:672,1
DA:673,1
DA:674,1
DA:675,1
DA:676,1
DA:677,1
DA:678,1
DA:679,1
DA:682,11
DA:683,10
DA:685,10
DA:687,1
DA:690,1
DA:691,1
DA:692,1
DA:693,1
DA:694,1
DA:695,1
DA:697,1
DA:698,1
DA:699,1
DA:700,1
DA:701,1
DA:704,1
DA:705,1
DA:707,1
DA:708,1
DA:709,1
DA:711,0
DA:713,1
DA:716,1
DA:717,1
DA:719,1
DA:720,1
DA:721,1
DA:723,0
DA:725,1
DA:728,1
DA:731,1
DA:732,1
DA:733,1
DA:734,1
DA:735,1
DA:737,1
DA:738,1
DA:739,1
BRF:0
BRH:0
LF:335
LH:325
end_of_record
SF:/Users/zool/RustroverProjects/open-lark/src/core/error_codes.rs
FN:609,_RNvNtNtNtCs532nfEa3ofR_9open_lark4core11error_codes5testss_14test_help_urls
FN:466,_RNvNtNtNtCs532nfEa3ofR_9open_lark4core11error_codes5testss_16test_retry_delay
FN:475,_RNvNtNtNtCs532nfEa3ofR_9open_lark4core11error_codes5testss_19test_error_category
FN:623,_RNvNtNtNtCs532nfEa3ofR_9open_lark4core11error_codes5testss_20test_severity_levels
FN:588,_RNvNtNtNtCs532nfEa3ofR_9open_lark4core11error_codes5testss_23test_error_descriptions
FN:557,_RNvNtNtNtCs532nfEa3ofR_9open_lark4core11error_codes5testss_25test_business_error_codes
FN:457,_RNvNtNtNtCs532nfEa3ofR_9open_lark4core11error_codes5testss_25test_error_classification
FN:446,_RNvNtNtNtCs532nfEa3ofR_9open_lark4core11error_codes5testss_25test_error_code_from_code
FN:640,_RNvNtNtNtCs532nfEa3ofR_9open_lark4core11error_codes5testss_35test_comprehensive_error_properties
FN:162,_RNvMNtNtCs532nfEa3ofR_9open_lark4core11error_codesNtB2_13LarkErrorCode11description
FN:292,_RNvMNtNtCs532nfEa3ofR_9open_lark4core11error_codesNtB2_13LarkErrorCode12is_retryable
FN:260,_RNvMNtNtCs532nfEa3ofR_9open_lark4core11error_codesNtB2_13LarkErrorCode13is_auth_error
FN:280,_RNvMNtNtCs532nfEa3ofR_9open_lark4core11error_codesNtB2_13LarkErrorCode15is_client_error
FN:286,_RNvMNtNtCs532nfEa3ofR_9open_lark4core11error_codesNtB2_13LarkErrorCode15is_server_error
FN:272,_RNvMNtNtCs532nfEa3ofR_9open_lark4core11error_codesNtB2_13LarkErrorCode19is_permission_error
FN:211,_RNvMNtNtCs532nfEa3ofR_9open_lark4core11error_codesNtB2_13LarkErrorCode20detailed_description
FN:307,_RNvMNtNtCs532nfEa3ofR_9open_lark4core11error_codesNtB2_13LarkErrorCode21suggested_retry_delay
FN:337,_RNvMNtNtCs532nfEa3ofR_9open_lark4core11error_codesNtB2_13LarkErrorCode8help_url
FN:322,_RNvMNtNtCs532nfEa3ofR_9open_lark4core11error_codesNtB2_13LarkErrorCode8severity
FN:112,_RNvMNtNtCs532nfEa3ofR_9open_lark4core11error_codesNtB2_13LarkErrorCode9from_code
FN:385,_RNvMs0_NtNtCs532nfEa3ofR_9open_lark4core11error_codesNtB5_13LarkErrorCode8category
FN:357,_RNvXs_NtNtCs532nfEa3ofR_9open_lark4core11error_codesNtB4_13LarkErrorCodeNtNtCsaNl6UpbT7bw_4core3fmt7Display3fmt
FNDA:1,_RNvNtNtNtCs532nfEa3ofR_9open_lark4core11error_codes5testss_14test_help_urls
FNDA:1,_RNvNtNtNtCs532nfEa3ofR_9open_lark4core11error_codes5testss_16test_retry_delay
FNDA:1,_RNvNtNtNtCs532nfEa3ofR_9open_lark4core11error_codes5testss_19test_error_category
FNDA:1,_RNvNtNtNtCs532nfEa3ofR_9open_lark4core11error_codes5testss_20test_severity_levels
FNDA:1,_RNvNtNtNtCs532nfEa3ofR_9open_lark4core11error_codes5testss_23test_error_descriptions
FNDA:1,_RNvNtNtNtCs532nfEa3ofR_9open_lark4core11error_codes5testss_25test_business_error_codes
FNDA:1,_RNvNtNtNtCs532nfEa3ofR_9open_lark4core11error_codes5testss_25test_error_classification
FNDA:1,_RNvNtNtNtCs532nfEa3ofR_9open_lark4core11error_codes5testss_25test_error_code_from_code
FNDA:1,_RNvNtNtNtCs532nfEa3ofR_9open_lark4core11error_codes5testss_35test_comprehensive_error_properties
FNDA:5,_RNvMNtNtCs532nfEa3ofR_9open_lark4core11error_codesNtB2_13LarkErrorCode11description
FNDA:11,_RNvMNtNtCs532nfEa3ofR_9open_lark4core11error_codesNtB2_13LarkErrorCode12is_retryable
FNDA:6,_RNvMNtNtCs532nfEa3ofR_9open_lark4core11error_codesNtB2_13LarkErrorCode13is_auth_error
FNDA:4,_RNvMNtNtCs532nfEa3ofR_9open_lark4core11error_codesNtB2_13LarkErrorCode15is_client_error
FNDA:4,_RNvMNtNtCs532nfEa3ofR_9open_lark4core11error_codesNtB2_13LarkErrorCode15is_server_error
FNDA:6,_RNvMNtNtCs532nfEa3ofR_9open_lark4core11error_codesNtB2_13LarkErrorCode19is_permission_error
FNDA:4,_RNvMNtNtCs532nfEa3ofR_9open_lark4core11error_codesNtB2_13LarkErrorCode20detailed_description
FNDA:7,_RNvMNtNtCs532nfEa3ofR_9open_lark4core11error_codesNtB2_13LarkErrorCode21suggested_retry_delay
FNDA:6,_RNvMNtNtCs532nfEa3ofR_9open_lark4core11error_codesNtB2_13LarkErrorCode8help_url
FNDA:4,_RNvMNtNtCs532nfEa3ofR_9open_lark4core11error_codesNtB2_13LarkErrorCode8severity
FNDA:34,_RNvMNtNtCs532nfEa3ofR_9open_lark4core11error_codesNtB2_13LarkErrorCode9from_code
FNDA:27,_RNvMs0_NtNtCs532nfEa3ofR_9open_lark4core11error_codesNtB5_13LarkErrorCode8category
FNDA:0,_RNvXs_NtNtCs532nfEa3ofR_9open_lark4core11error_codesNtB4_13LarkErrorCodeNtNtCsaNl6UpbT7bw_4core3fmt7Display3fmt
FNF:22
FNH:21
DA:112,34
DA:113,34
DA:114,1
DA:115,0
DA:116,1
DA:117,0
DA:118,0
DA:119,0
DA:120,0
DA:121,0
DA:122,0
DA:123,0
DA:124,7
DA:125,2
DA:126,0
DA:127,0
DA:128,2
DA:129,5
DA:130,0
DA:131,0
DA:132,0
DA:133,1
DA:134,0
DA:135,0
DA:136,1
DA:137,0
DA:138,0
DA:139,0
DA:140,0
DA:141,0
DA:142,0
DA:143,1
DA:144,0
DA:145,0
DA:146,1
DA:147,0
DA:148,0
DA:149,0
DA:150,0
DA:151,0
DA:152,0
DA:153,1
DA:154,0
DA:155,0
DA:156,1
DA:157,10
DA:159,34
DA:162,5
DA:163,5
DA:164,1
DA:165,0
DA:166,0
DA:167,0
DA:168,0
DA:169,0
DA:170,0
DA:171,0
DA:172,0
DA:173,0
DA:174,0
DA:175,0
DA:176,0
DA:177,0
DA:178,0
DA:179,0
DA:180,0
DA:181,0
DA:182,0
DA:183,1
DA:184,0
DA:185,0
DA:186,1
DA:187,0
DA:188,0
DA:189,0
DA:190,0
DA:191,0
DA:192,0
DA:193,0
DA:194,0
DA:195,0
DA:196,0
DA:197,0
DA:198,1
DA:199,0
DA:200,0
DA:201,0
DA:202,0
DA:203,1
DA:204,0
DA:205,0
DA:206,0
DA:208,5
DA:211,4
DA:212,4
DA:213,0
DA:214,0
DA:215,0
DA:216,0
DA:217,0
DA:218,0
DA:219,0
DA:220,0
DA:221,0
DA:222,0
DA:223,1
DA:224,0
DA:225,0
DA:226,0
DA:227,1
DA:228,0
DA:229,0
DA:230,0
DA:231,0
DA:232,1
DA:233,0
DA:234,0
DA:235,0
DA:236,0
DA:237,0
DA:238,0
DA:239,0
DA:240,0
DA:241,0
DA:242,0
DA:243,0
DA:244,0
DA:245,0
DA:246,1
DA:247,0
DA:248,0
DA:249,0
DA:250,0
DA:251,0
DA:252,0
DA:253,0
DA:254,0
DA:255,0
DA:257,4
DA:260,6
DA:261,4
DA:262,6
DA:269,6
DA:272,6
DA:273,4
DA:274,6
DA:277,6
DA:280,4
DA:281,4
DA:282,4
DA:283,4
DA:286,4
DA:287,4
DA:288,4
DA:289,4
DA:292,11
DA:293,4
DA:294,11
DA:304,11
DA:307,7
DA:308,7
DA:309,2
DA:310,1
DA:311,0
DA:312,0
DA:313,0
DA:314,1
DA:315,0
DA:316,0
DA:317,3
DA:319,7
DA:322,4
DA:323,4
DA:324,1
DA:325,1
DA:327,1
DA:330,1
DA:332,0
DA:334,4
DA:337,6
DA:338,6
DA:343,2
DA:346,2
DA:349,2
DA:351,0
DA:353,6
DA:357,0
DA:358,0
DA:359,0
DA:385,27
DA:386,27
DA:391,4
DA:394,7
DA:404,4
DA:419,4
DA:421,1
DA:428,4
DA:434,3
DA:436,0
DA:438,27
DA:446,1
DA:447,1
DA:448,1
DA:449,1
DA:452,1
DA:453,1
DA:454,1
DA:457,1
DA:458,1
DA:459,1
DA:460,1
DA:461,1
DA:462,1
DA:463,1
DA:466,1
DA:467,1
DA:468,1
DA:471,1
DA:472,1
DA:475,1
DA:477,1
DA:478,1
DA:481,1
DA:482,1
DA:485,1
DA:486,1
DA:491,1
DA:492,1
DA:495,1
DA:496,1
DA:499,1
DA:500,1
DA:505,1
DA:506,1
DA:509,1
DA:510,1
DA:513,1
DA:514,1
DA:519,1
DA:520,1
DA:521,1
DA:524,1
DA:525,1
DA:530,1
DA:531,1
DA:536,1
DA:537,1
DA:540,1
DA:541,1
DA:546,1
DA:547,1
DA:550,1
DA:551,1
DA:554,1
DA:557,1
DA:559,1
DA:560,1
DA:563,1
DA:564,1
DA:567,1
DA:568,1
DA:571,1
DA:572,1
DA:577,1
DA:578,1
DA:581,1
DA:582,1
DA:585,1
DA:588,1
DA:590,1
DA:591,1
DA:592,1
DA:593,1
DA:594,1
DA:597,1
DA:598,1
DA:599,1
DA:600,1
DA:601,1
DA:602,1
DA:603,1
DA:604,1
DA:605,1
DA:606,1
DA:609,1
DA:611,1
DA:612,1
DA:613,1
DA:615,1
DA:616,1
DA:618,1
DA:619,1
DA:620,1
DA:623,1
DA:627,1
DA:628,1
DA:629,1
DA:632,1
DA:633,1
DA:634,1
DA:637,1
DA:640,1
DA:642,1
DA:643,1
DA:644,1
DA:645,1
DA:646,1
DA:647,1
DA:648,1
DA:649,1
DA:652,1
DA:653,1
DA:654,1
DA:655,1
DA:656,1
DA:657,1
DA:658,1
DA:659,1
DA:662,1
DA:663,1
DA:664,1
DA:665,1
DA:668,1
DA:669,1
DA:670,1
DA:671,1
DA:674,1
DA:675,1
DA:676,1
DA:677,1
DA:680,1
DA:681,1
DA:682,1
DA:683,1
DA:684,1
DA:685,1
DA:686,1
DA:687,1
DA:688,1
BRF:0
BRH:0
LF:339
LH:220
end_of_record
SF:/Users/zool/RustroverProjects/open-lark/src/core/error_helper.rs
FN:145,_RINvMNtNtCs532nfEa3ofR_9open_lark4core12error_helperNtB3_11ErrorHelper16analyze_responsepEB7_
FN:349,_RNvMs2_NtNtCs532nfEa3ofR_9open_lark4core12error_helperNtB5_12ErrorContext13print_details
FN:14,_RNvMNtNtCs532nfEa3ofR_9open_lark4core12error_helperNtB2_11ErrorHelper12handle_error
FN:51,_RNvMNtNtCs532nfEa3ofR_9open_lark4core12error_helperNtB2_11ErrorHelper16handle_api_error
FN:203,_RNvMNtNtCs532nfEa3ofR_9open_lark4core12error_helperNtB2_11ErrorHelper17format_user_error
FN:217,_RNvMNtNtCs532nfEa3ofR_9open_lark4core12error_helperNtB2_11ErrorHelper20create_error_context
FN:109,_RNvMNtNtCs532nfEa3ofR_9open_lark4core12error_helperNtB2_11ErrorHelper20handle_request_error
FN:163,_RNvMNtNtCs532nfEa3ofR_9open_lark4core12error_helperNtB2_11ErrorHelper21create_retry_strategy
FN:315,_RNvMs1_NtNtCs532nfEa3ofR_9open_lark4core12error_helperNtB5_13RetryStrategy15calculate_delay
FN:303,_RNvXs0_NtNtCs532nfEa3ofR_9open_lark4core12error_helperNtB5_13RetryStrategyNtNtCsaNl6UpbT7bw_4core7default7Default7default
FN:254,_RNvXs_NtNtCs532nfEa3ofR_9open_lark4core12error_helperNtB4_19ErrorHandlingAdviceNtNtCsaNl6UpbT7bw_4core7default7Default7default
FN:405,_RNvNtNtNtCs532nfEa3ofR_9open_lark4core12error_helper5testss_18test_error_context
FN:395,_RNvNtNtNtCs532nfEa3ofR_9open_lark4core12error_helper5testss_19test_retry_strategy
FN:385,_RNvNtNtNtCs532nfEa3ofR_9open_lark4core12error_helper5testss_27test_error_helper_api_error
FNDA:0,_RINvMNtNtCs532nfEa3ofR_9open_lark4core12error_helperNtB3_11ErrorHelper16analyze_responsepEB7_
FNDA:0,_RNvMs2_NtNtCs532nfEa3ofR_9open_lark4core12error_helperNtB5_12ErrorContext13print_details
FNDA:2,_RNvMNtNtCs532nfEa3ofR_9open_lark4core12error_helperNtB2_11ErrorHelper12handle_error
FNDA:1,_RNvMNtNtCs532nfEa3ofR_9open_lark4core12error_helperNtB2_11ErrorHelper16handle_api_error
FNDA:1,_RNvMNtNtCs532nfEa3ofR_9open_lark4core12error_helperNtB2_11ErrorHelper17format_user_error
FNDA:1,_RNvMNtNtCs532nfEa3ofR_9open_lark4core12error_helperNtB2_11ErrorHelper20create_error_context
FNDA:0,_RNvMNtNtCs532nfEa3ofR_9open_lark4core12error_helperNtB2_11ErrorHelper20handle_request_error
FNDA:2,_RNvMNtNtCs532nfEa3ofR_9open_lark4core12error_helperNtB2_11ErrorHelper21create_retry_strategy
FNDA:2,_RNvMs1_NtNtCs532nfEa3ofR_9open_lark4core12error_helperNtB5_13RetryStrategy15calculate_delay
FNDA:8,_RNvXs0_NtNtCs532nfEa3ofR_9open_lark4core12error_helperNtB5_13RetryStrategyNtNtCsaNl6UpbT7bw_4core7default7Default7default
FNDA:3,_RNvXs_NtNtCs532nfEa3ofR_9open_lark4core12error_helperNtB4_19ErrorHandlingAdviceNtNtCsaNl6UpbT7bw_4core7default7Default7default
FNDA:1,_RNvNtNtNtCs532nfEa3ofR_9open_lark4core12error_helper5testss_18test_error_context
FNDA:1,_RNvNtNtNtCs532nfEa3ofR_9open_lark4core12error_helper5testss_19test_retry_strategy
FNDA:1,_RNvNtNtNtCs532nfEa3ofR_9open_lark4core12error_helper5testss_27test_error_helper_api_error
FNF:14
FNH:11
DA:14,2
DA:15,2
DA:17,2
DA:18,1
DA:19,1
DA:20,1
DA:21,1
DA:22,0
DA:23,0
DA:24,0
DA:26,0
DA:27,0
DA:28,0
DA:29,1
DA:30,1
DA:31,1
DA:32,1
DA:33,1
DA:34,1
DA:35,0
DA:36,0
DA:37,0
DA:38,0
DA:39,0
DA:40,0
DA:41,0
DA:42,0
DA:43,0
DA:44,0
DA:47,2
DA:48,2
DA:51,1
DA:52,1
DA:53,1
DA:54,1
DA:55,1
DA:56,1
DA:58,1
DA:59,0
DA:60,0
DA:61,0
DA:62,0
DA:63,0
DA:64,0
DA:65,0
DA:66,0
DA:67,1
DA:68,1
DA:69,1
DA:70,1
DA:71,1
DA:72,1
DA:73,1
DA:74,1
DA:75,0
DA:76,0
DA:77,0
DA:78,0
DA:79,0
DA:80,0
DA:81,0
DA:82,0
DA:83,0
DA:84,0
DA:85,0
DA:86,0
DA:87,0
DA:88,0
DA:89,0
DA:90,0
DA:91,0
DA:92,0
DA:93,0
DA:94,0
DA:95,0
DA:96,0
DA:97,0
DA:98,0
DA:101,1
DA:102,1
DA:103,1
DA:105,1
DA:106,1
DA:109,0
DA:110,0
DA:111,0
DA:112,0
DA:113,0
DA:114,0
DA:116,0
DA:117,0
DA:118,0
DA:119,0
DA:120,0
DA:121,0
DA:122,0
DA:123,0
DA:124,0
DA:125,0
DA:126,0
DA:127,0
DA:128,0
DA:129,0
DA:130,0
DA:131,0
DA:132,0
DA:133,0
DA:134,0
DA:135,0
DA:136,0
DA:137,0
DA:138,0
DA:139,0
DA:141,0
DA:142,0
DA:145,0
DA:146,0
DA:147,0
DA:148,0
DA:150,0
DA:152,0
DA:153,0
DA:154,0
DA:155,0
DA:156,0
DA:157,0
DA:159,0
DA:160,0
DA:163,2
DA:164,2
DA:165,1
DA:166,1
DA:168,1
DA:170,1
DA:171,1
DA:172,1
DA:173,1
DA:174,1
DA:175,0
DA:176,0
DA:177,0
DA:178,0
DA:180,1
DA:181,1
DA:182,0
DA:184,0
DA:185,0
DA:186,0
DA:187,0
DA:188,0
DA:189,0
DA:190,0
DA:191,0
DA:193,0
DA:194,0
DA:195,0
DA:196,0
DA:199,1
DA:200,2
DA:203,1
DA:204,1
DA:205,0
DA:206,0
DA:207,0
DA:209,0
DA:212,1
DA:214,1
DA:217,1
DA:218,1
DA:219,1
DA:220,1
DA:221,1
DA:222,1
DA:223,1
DA:224,1
DA:225,1
DA:226,1
DA:227,1
DA:228,1
DA:229,1
DA:254,3
DA:255,3
DA:256,3
DA:257,3
DA:258,3
DA:259,3
DA:260,3
DA:261,3
DA:262,3
DA:263,3
DA:264,3
DA:265,3
DA:303,8
DA:304,8
DA:305,8
DA:306,8
DA:307,8
DA:308,8
DA:309,8
DA:310,8
DA:315,2
DA:316,2
DA:317,1
DA:318,1
DA:320,1
DA:321,1
DA:322,1
DA:323,2
DA:349,0
DA:350,0
DA:351,0
DA:353,0
DA:354,0
DA:355,0
DA:356,0
DA:357,0
DA:359,0
DA:360,0
DA:361,0
DA:362,0
DA:363,0
DA:364,0
DA:365,0
DA:367,0
DA:368,0
DA:369,0
DA:370,0
DA:371,0
DA:372,0
DA:374,0
DA:375,0
DA:376,0
DA:377,0
DA:385,1
DA:386,1
DA:387,1
DA:389,1
DA:390,1
DA:391,1
DA:392,1
DA:395,1
DA:396,1
DA:397,1
DA:399,1
DA:400,1
DA:401,1
DA:402,1
DA:405,1
DA:406,1
DA:407,1
DA:409,1
DA:410,1
DA:411,1
BRF:0
BRH:0
LF:253
LH:114
end_of_record
SF:/Users/zool/RustroverProjects/open-lark/src/core/error_logger.rs
FN:36,_RNvMNtNtCs532nfEa3ofR_9open_lark4core12error_loggerNtB2_8LogLevel19from_error_severity
FN:145,_RNvMs0_NtNtCs532nfEa3ofR_9open_lark4core12error_loggerNtB5_8LogEntry10with_error
FN:139,_RNvMs0_NtNtCs532nfEa3ofR_9open_lark4core12error_loggerNtB5_8LogEntry11with_caller
FN:133,_RNvMs0_NtNtCs532nfEa3ofR_9open_lark4core12error_loggerNtB5_8LogEntry12with_context
FN:116,_RNvMs0_NtNtCs532nfEa3ofR_9open_lark4core12error_loggerNtB5_8LogEntry16from_error_event
FN:492,_RNvMs8_NtNtCs532nfEa3ofR_9open_lark4core12error_loggerNtB5_11ErrorLogger10output_log
FN:461,_RNvMs8_NtNtCs532nfEa3ofR_9open_lark4core12error_loggerNtB5_11ErrorLogger13log_api_error
FN:517,_RNvMs8_NtNtCs532nfEa3ofR_9open_lark4core12error_loggerNtB5_11ErrorLogger13write_to_file
FN:468,_RNvMs8_NtNtCs532nfEa3ofR_9open_lark4core12error_loggerNtB5_11ErrorLogger15log_error_event
FN:454,_RNvMs8_NtNtCs532nfEa3ofR_9open_lark4core12error_loggerNtB5_11ErrorLogger18error_with_context
FN:430,_RNvMs8_NtNtCs532nfEa3ofR_9open_lark4core12error_loggerNtB5_11ErrorLogger3log
FN:480,_RNvMs8_NtNtCs532nfEa3ofR_9open_lark4core12error_loggerNtB5_11ErrorLogger4info
FN:474,_RNvMs8_NtNtCs532nfEa3ofR_9open_lark4core12error_loggerNtB5_11ErrorLogger4warn
FN:486,_RNvMs8_NtNtCs532nfEa3ofR_9open_lark4core12error_loggerNtB5_11ErrorLogger5debug
FN:448,_RNvMs8_NtNtCs532nfEa3ofR_9open_lark4core12error_loggerNtB5_11ErrorLogger5error
FN:546,_RNvMs9_NtNtCs532nfEa3ofR_9open_lark4core12error_loggerNtB5_13LoggerBuilder13simple_format
FN:564,_RNvMs9_NtNtCs532nfEa3ofR_9open_lark4core12error_loggerNtB5_13LoggerBuilder14output_to_file
FN:576,_RNvMs9_NtNtCs532nfEa3ofR_9open_lark4core12error_loggerNtB5_13LoggerBuilder15include_context
FN:558,_RNvMs9_NtNtCs532nfEa3ofR_9open_lark4core12error_loggerNtB5_13LoggerBuilder17structured_format
FN:418,_RNvXs7_NtNtCs532nfEa3ofR_9open_lark4core12error_loggerNtB5_11ErrorLoggerNtNtCsaNl6UpbT7bw_4core7default7Default7default
FN:74,_RNvXs_NtNtCs532nfEa3ofR_9open_lark4core12error_loggerNtB4_8LogLevelNtNtCsaNl6UpbT7bw_4core3fmt7Display3fmt
FN:588,_RNvXsa_NtNtCs532nfEa3ofR_9open_lark4core12error_loggerNtB5_13LoggerBuilderNtNtCsaNl6UpbT7bw_4core7default7Default7default
FN:46,_RNvMNtNtCs532nfEa3ofR_9open_lark4core12error_loggerNtB2_8LogLevel10color_code
FN:57,_RNvMNtNtCs532nfEa3ofR_9open_lark4core12error_loggerNtB2_8LogLevel11reset_color
FN:62,_RNvMNtNtCs532nfEa3ofR_9open_lark4core12error_loggerNtB2_8LogLevel5label
FN:102,_RNvMs0_NtNtCs532nfEa3ofR_9open_lark4core12error_loggerNtB5_8LogEntry3new
FN:425,_RNvMs8_NtNtCs532nfEa3ofR_9open_lark4core12error_loggerNtB5_11ErrorLogger3new
FN:552,_RNvMs9_NtNtCs532nfEa3ofR_9open_lark4core12error_loggerNtB5_13LoggerBuilder11json_format
FN:570,_RNvMs9_NtNtCs532nfEa3ofR_9open_lark4core12error_loggerNtB5_13LoggerBuilder16output_to_stderr
FN:533,_RNvMs9_NtNtCs532nfEa3ofR_9open_lark4core12error_loggerNtB5_13LoggerBuilder3new
FN:582,_RNvMs9_NtNtCs532nfEa3ofR_9open_lark4core12error_loggerNtB5_13LoggerBuilder5build
FN:540,_RNvMs9_NtNtCs532nfEa3ofR_9open_lark4core12error_loggerNtB5_13LoggerBuilder9min_level
FN:167,_RNvXs1_NtNtCs532nfEa3ofR_9open_lark4core12error_loggerNtB5_15SimpleFormatterNtNtCsaNl6UpbT7bw_4core7default7Default7default
FN:176,_RNvXs2_NtNtCs532nfEa3ofR_9open_lark4core12error_loggerNtB5_15SimpleFormatterNtB5_12LogFormatter6format
FN:240,_RNvXs3_NtNtCs532nfEa3ofR_9open_lark4core12error_loggerNtB5_13JsonFormatterNtB5_12LogFormatter6format
FN:312,_RNvXs4_NtNtCs532nfEa3ofR_9open_lark4core12error_loggerNtB5_19StructuredFormatterNtNtCsaNl6UpbT7bw_4core7default7Default7default
FN:321,_RNvXs5_NtNtCs532nfEa3ofR_9open_lark4core12error_loggerNtB5_19StructuredFormatterNtB5_12LogFormatter6format
FN:401,_RNvXs6_NtNtCs532nfEa3ofR_9open_lark4core12error_loggerNtB5_12LoggerConfigNtNtCsaNl6UpbT7bw_4core7default7Default7default
FN:288,_RNCNvXs3_NtNtCs532nfEa3ofR_9open_lark4core12error_loggerNtB7_13JsonFormatterNtB7_12LogFormatter6format0Bb_
FN:623,_RNvNtNtNtCs532nfEa3ofR_9open_lark4core12error_logger5testss_19test_json_formatter
FN:643,_RNvNtNtNtCs532nfEa3ofR_9open_lark4core12error_logger5testss_19test_logger_builder
FN:613,_RNvNtNtNtCs532nfEa3ofR_9open_lark4core12error_logger5testss_21test_simple_formatter
FN:605,_RNvNtNtNtCs532nfEa3ofR_9open_lark4core12error_logger5testss_23test_log_entry_creation
FN:598,_RNvNtNtNtCs532nfEa3ofR_9open_lark4core12error_logger5testss_23test_log_level_ordering
FN:633,_RNvNtNtNtCs532nfEa3ofR_9open_lark4core12error_logger5testss_25test_structured_formatter
FNDA:0,_RNvMNtNtCs532nfEa3ofR_9open_lark4core12error_loggerNtB2_8LogLevel19from_error_severity
FNDA:0,_RNvMs0_NtNtCs532nfEa3ofR_9open_lark4core12error_loggerNtB5_8LogEntry10with_error
FNDA:0,_RNvMs0_NtNtCs532nfEa3ofR_9open_lark4core12error_loggerNtB5_8LogEntry11with_caller
FNDA:0,_RNvMs0_NtNtCs532nfEa3ofR_9open_lark4core12error_loggerNtB5_8LogEntry12with_context
FNDA:0,_RNvMs0_NtNtCs532nfEa3ofR_9open_lark4core12error_loggerNtB5_8LogEntry16from_error_event
FNDA:0,_RNvMs8_NtNtCs532nfEa3ofR_9open_lark4core12error_loggerNtB5_11ErrorLogger10output_log
FNDA:0,_RNvMs8_NtNtCs532nfEa3ofR_9open_lark4core12error_loggerNtB5_11ErrorLogger13log_api_error
FNDA:0,_RNvMs8_NtNtCs532nfEa3ofR_9open_lark4core12error_loggerNtB5_11ErrorLogger13write_to_file
FNDA:0,_RNvMs8_NtNtCs532nfEa3ofR_9open_lark4core12error_loggerNtB5_11ErrorLogger15log_error_event
FNDA:0,_RNvMs8_NtNtCs532nfEa3ofR_9open_lark4core12error_loggerNtB5_11ErrorLogger18error_with_context
FNDA:0,_RNvMs8_NtNtCs532nfEa3ofR_9open_lark4core12error_loggerNtB5_11ErrorLogger3log
FNDA:0,_RNvMs8_NtNtCs532nfEa3ofR_9open_lark4core12error_loggerNtB5_11ErrorLogger4info
FNDA:0,_RNvMs8_NtNtCs532nfEa3ofR_9open_lark4core12error_loggerNtB5_11ErrorLogger4warn
FNDA:0,_RNvMs8_NtNtCs532nfEa3ofR_9open_lark4core12error_loggerNtB5_11ErrorLogger5debug
FNDA:0,_RNvMs8_NtNtCs532nfEa3ofR_9open_lark4core12error_loggerNtB5_11ErrorLogger5error
FNDA:0,_RNvMs9_NtNtCs532nfEa3ofR_9open_lark4core12error_loggerNtB5_13LoggerBuilder13simple_format
FNDA:0,_RNvMs9_NtNtCs532nfEa3ofR_9open_lark4core12error_loggerNtB5_13LoggerBuilder14output_to_file
FNDA:0,_RNvMs9_NtNtCs532nfEa3ofR_9open_lark4core12error_loggerNtB5_13LoggerBuilder15include_context
FNDA:0,_RNvMs9_NtNtCs532nfEa3ofR_9open_lark4core12error_loggerNtB5_13LoggerBuilder17structured_format
FNDA:0,_RNvXs7_NtNtCs532nfEa3ofR_9open_lark4core12error_loggerNtB5_11ErrorLoggerNtNtCsaNl6UpbT7bw_4core7default7Default7default
FNDA:0,_RNvXs_NtNtCs532nfEa3ofR_9open_lark4core12error_loggerNtB4_8LogLevelNtNtCsaNl6UpbT7bw_4core3fmt7Display3fmt
FNDA:0,_RNvXsa_NtNtCs532nfEa3ofR_9open_lark4core12error_loggerNtB5_13LoggerBuilderNtNtCsaNl6UpbT7bw_4core7default7Default7default
FNDA:1,_RNvMNtNtCs532nfEa3ofR_9open_lark4core12error_loggerNtB2_8LogLevel10color_code
FNDA:1,_RNvMNtNtCs532nfEa3ofR_9open_lark4core12error_loggerNtB2_8LogLevel11reset_color
FNDA:3,_RNvMNtNtCs532nfEa3ofR_9open_lark4core12error_loggerNtB2_8LogLevel5label
FNDA:4,_RNvMs0_NtNtCs532nfEa3ofR_9open_lark4core12error_loggerNtB5_8LogEntry3new
FNDA:1,_RNvMs8_NtNtCs532nfEa3ofR_9open_lark4core12error_loggerNtB5_11ErrorLogger3new
FNDA:1,_RNvMs9_NtNtCs532nfEa3ofR_9open_lark4core12error_loggerNtB5_13LoggerBuilder11json_format
FNDA:1,_RNvMs9_NtNtCs532nfEa3ofR_9open_lark4core12error_loggerNtB5_13LoggerBuilder16output_to_stderr
FNDA:1,_RNvMs9_NtNtCs532nfEa3ofR_9open_lark4core12error_loggerNtB5_13LoggerBuilder3new
FNDA:1,_RNvMs9_NtNtCs532nfEa3ofR_9open_lark4core12error_loggerNtB5_13LoggerBuilder5build
FNDA:1,_RNvMs9_NtNtCs532nfEa3ofR_9open_lark4core12error_loggerNtB5_13LoggerBuilder9min_level
FNDA:2,_RNvXs1_NtNtCs532nfEa3ofR_9open_lark4core12error_loggerNtB5_15SimpleFormatterNtNtCsaNl6UpbT7bw_4core7default7Default7default
FNDA:1,_RNvXs2_NtNtCs532nfEa3ofR_9open_lark4core12error_loggerNtB5_15SimpleFormatterNtB5_12LogFormatter6format
FNDA:1,_RNvXs3_NtNtCs532nfEa3ofR_9open_lark4core12error_loggerNtB5_13JsonFormatterNtB5_12LogFormatter6format
FNDA:1,_RNvXs4_NtNtCs532nfEa3ofR_9open_lark4core12error_loggerNtB5_19StructuredFormatterNtNtCsaNl6UpbT7bw_4core7default7Default7default
FNDA:1,_RNvXs5_NtNtCs532nfEa3ofR_9open_lark4core12error_loggerNtB5_19StructuredFormatterNtB5_12LogFormatter6format
FNDA:1,_RNvXs6_NtNtCs532nfEa3ofR_9open_lark4core12error_loggerNtB5_12LoggerConfigNtNtCsaNl6UpbT7bw_4core7default7Default7default
FNDA:0,_RNCNvXs3_NtNtCs532nfEa3ofR_9open_lark4core12error_loggerNtB7_13JsonFormatterNtB7_12LogFormatter6format0Bb_
FNDA:1,_RNvNtNtNtCs532nfEa3ofR_9open_lark4core12error_logger5testss_19test_json_formatter
FNDA:1,_RNvNtNtNtCs532nfEa3ofR_9open_lark4core12error_logger5testss_19test_logger_builder
FNDA:1,_RNvNtNtNtCs532nfEa3ofR_9open_lark4core12error_logger5testss_21test_simple_formatter
FNDA:1,_RNvNtNtNtCs532nfEa3ofR_9open_lark4core12error_logger5testss_23test_log_entry_creation
FNDA:1,_RNvNtNtNtCs532nfEa3ofR_9open_lark4core12error_logger5testss_23test_log_level_ordering
FNDA:1,_RNvNtNtNtCs532nfEa3ofR_9open_lark4core12error_logger5testss_25test_structured_formatter
FNF:45
FNH:22
DA:36,0
DA:37,0
DA:38,0
DA:39,0
DA:40,0
DA:41,0
DA:43,0
DA:46,1
DA:47,1
DA:48,0
DA:49,1
DA:50,0
DA:51,0
DA:52,0
DA:54,1
DA:57,1
DA:58,1
DA:59,1
DA:62,3
DA:63,3
DA:64,0
DA:65,1
DA:66,1
DA:67,1
DA:68,0
DA:70,3
DA:74,0
DA:75,0
DA:76,0
DA:102,4
DA:103,4
DA:104,4
DA:105,4
DA:106,4
DA:107,4
DA:108,4
DA:109,4
DA:110,4
DA:111,4
DA:112,4
DA:113,4
DA:116,0
DA:117,0
DA:118,0
DA:120,0
DA:121,0
DA:122,0
DA:123,0
DA:124,0
DA:125,0
DA:126,0
DA:127,0
DA:128,0
DA:129,0
DA:130,0
DA:133,0
DA:134,0
DA:135,0
DA:136,0
DA:139,0
DA:140,0
DA:141,0
DA:142,0
DA:145,0
DA:146,0
DA:147,0
DA:148,0
DA:167,2
DA:168,2
DA:169,2
DA:170,2
DA:171,2
DA:172,2
DA:176,1
DA:177,1
DA:180,1
DA:181,1
DA:182,1
DA:185,1
DA:186,1
DA:187,1
DA:188,1
DA:189,1
DA:190,1
DA:191,0
DA:194,1
DA:197,1
DA:200,1
DA:201,0
DA:202,1
DA:205,1
DA:206,0
DA:207,1
DA:210,1
DA:211,0
DA:212,0
DA:213,0
DA:214,0
DA:215,0
DA:216,0
DA:218,0
DA:219,1
DA:222,1
DA:223,0
DA:224,1
DA:227,1
DA:228,1
DA:229,1
DA:231,1
DA:232,1
DA:240,1
DA:243,1
DA:246,1
DA:247,1
DA:248,1
DA:250,1
DA:251,1
DA:252,1
DA:253,1
DA:254,1
DA:255,1
DA:256,1
DA:257,1
DA:258,1
DA:260,1
DA:263,1
DA:264,0
DA:265,1
DA:268,1
DA:269,0
DA:270,0
DA:271,0
DA:272,0
DA:273,1
DA:276,1
DA:277,0
DA:278,0
DA:279,0
DA:280,0
DA:281,1
DA:284,1
DA:285,0
DA:286,0
DA:287,0
DA:288,0
DA:289,0
DA:290,0
DA:291,1
DA:294,1
DA:295,0
DA:296,1
DA:298,1
DA:299,1
DA:312,1
DA:313,1
DA:314,1
DA:315,1
DA:316,1
DA:317,1
DA:321,1
DA:322,1
DA:325,1
DA:326,1
DA:327,1
DA:330,1
DA:333,1
DA:336,1
DA:337,0
DA:338,1
DA:341,1
DA:342,0
DA:343,1
DA:346,1
DA:347,0
DA:348,1
DA:351,1
DA:352,0
DA:353,0
DA:356,1
DA:357,0
DA:358,1
DA:360,1
DA:361,1
DA:401,1
DA:402,1
DA:403,1
DA:404,1
DA:405,1
DA:406,1
DA:407,1
DA:408,1
DA:409,1
DA:418,0
DA:419,0
DA:420,0
DA:425,1
DA:426,1
DA:427,1
DA:430,0
DA:432,0
DA:433,0
DA:434,0
DA:437,0
DA:438,0
DA:439,0
DA:440,0
DA:444,0
DA:445,0
DA:448,0
DA:449,0
DA:450,0
DA:451,0
DA:454,0
DA:455,0
DA:456,0
DA:457,0
DA:458,0
DA:461,0
DA:462,0
DA:463,0
DA:464,0
DA:465,0
DA:468,0
DA:469,0
DA:470,0
DA:471,0
DA:474,0
DA:475,0
DA:476,0
DA:477,0
DA:480,0
DA:481,0
DA:482,0
DA:483,0
DA:486,0
DA:487,0
DA:488,0
DA:489,0
DA:492,0
DA:493,0
DA:494,0
DA:495,0
DA:496,0
DA:497,0
DA:498,0
DA:499,0
DA:500,0
DA:501,0
DA:502,0
DA:503,0
DA:504,0
DA:505,0
DA:506,0
DA:507,0
DA:508,0
DA:509,0
DA:510,0
DA:511,0
DA:514,0
DA:517,0
DA:520,0
DA:521,0
DA:522,0
DA:523,0
DA:533,1
DA:534,1
DA:535,1
DA:536,1
DA:537,1
DA:540,1
DA:541,1
DA:542,1
DA:543,1
DA:546,0
DA:547,0
DA:548,0
DA:549,0
DA:552,1
DA:553,1
DA:554,1
DA:555,1
DA:558,0
DA:559,0
DA:560,0
DA:561,0
DA:564,0
DA:565,0
DA:566,0
DA:567,0
DA:570,1
DA:571,1
DA:572,1
DA:573,1
DA:576,0
DA:577,0
DA:578,0
DA:579,0
DA:582,1
DA:583,1
DA:584,1
DA:588,0
DA:589,0
DA:590,0
DA:598,1
DA:599,1
DA:600,1
DA:601,1
DA:602,1
DA:605,1
DA:606,1
DA:607,1
DA:608,1
DA:609,1
DA:610,1
DA:613,1
DA:614,1
DA:615,1
DA:616,1
DA:618,1
DA:619,1
DA:620,1
DA:623,1
DA:624,1
DA:625,1
DA:626,1
DA:628,1
DA:629,1
DA:630,1
DA:633,1
DA:634,1
DA:635,1
DA:636,1
DA:638,1
DA:639,1
DA:640,1
DA:643,1
DA:644,1
DA:645,1
DA:646,1
DA:647,1
DA:648,1
DA:650,1
DA:651,1
DA:652,1
DA:653,1
BRF:0
BRH:0
LF:346
LH:182
end_of_record
SF:/Users/zool/RustroverProjects/open-lark/src/core/error_metrics.rs
FN:240,_RNCNvMs0_NtNtCs532nfEa3ofR_9open_lark4core13error_metricsNtB7_15ErrorStatistics14print_detailed0Bb_
FN:191,_RNCNvMs0_NtNtCs532nfEa3ofR_9open_lark4core13error_metricsNtB7_15ErrorStatistics16highest_severity0Bb_
FN:415,_RNCNvMs4_NtNtCs532nfEa3ofR_9open_lark4core13error_metricsNtB7_12ErrorMonitor18cleanup_old_events0Bb_
FN:83,_RNvMNtNtCs532nfEa3ofR_9open_lark4core13error_metricsNtB2_10ErrorEvent12with_context
FN:89,_RNvMNtNtCs532nfEa3ofR_9open_lark4core13error_metricsNtB2_10ErrorEvent20with_processing_time
FN:205,_RNvMs0_NtNtCs532nfEa3ofR_9open_lark4core13error_metricsNtB5_15ErrorStatistics13print_summary
FN:229,_RNvMs0_NtNtCs532nfEa3ofR_9open_lark4core13error_metricsNtB5_15ErrorStatistics14print_detailed
FN:188,_RNvMs0_NtNtCs532nfEa3ofR_9open_lark4core13error_metricsNtB5_15ErrorStatistics16highest_severity
FN:180,_RNvMs0_NtNtCs532nfEa3ofR_9open_lark4core13error_metricsNtB5_15ErrorStatistics20most_common_category
FN:459,_RNvMs4_NtNtCs532nfEa3ofR_9open_lark4core13error_metricsNtB5_12ErrorMonitor15generate_report
FN:420,_RNvMs4_NtNtCs532nfEa3ofR_9open_lark4core13error_metricsNtB5_12ErrorMonitor16reset_statistics
FN:403,_RNvMs4_NtNtCs532nfEa3ofR_9open_lark4core13error_metricsNtB5_12ErrorMonitor17get_recent_events
FN:412,_RNvMs4_NtNtCs532nfEa3ofR_9open_lark4core13error_metricsNtB5_12ErrorMonitor18cleanup_old_events
FN:345,_RNvMs4_NtNtCs532nfEa3ofR_9open_lark4core13error_metricsNtB5_12ErrorMonitor25record_error_with_context
FN:517,_RNvMs5_NtNtCs532nfEa3ofR_9open_lark4core13error_metricsNtB5_11ErrorReport12save_to_file
FN:496,_RNvMs5_NtNtCs532nfEa3ofR_9open_lark4core13error_metricsNtB5_11ErrorReport5print
FN:570,_RNvNtNtNtCs532nfEa3ofR_9open_lark4core13error_metrics5testss_18test_error_monitor
FN:583,_RNvNtNtNtCs532nfEa3ofR_9open_lark4core13error_metrics5testss_19test_error_severity
FN:559,_RNvNtNtNtCs532nfEa3ofR_9open_lark4core13error_metrics5testss_21test_error_statistics
FN:549,_RNvNtNtNtCs532nfEa3ofR_9open_lark4core13error_metrics5testss_25test_error_event_creation
FN:42,_RNvMNtNtCs532nfEa3ofR_9open_lark4core13error_metricsNtB2_10ErrorEvent10from_error
FN:95,_RNvMNtNtCs532nfEa3ofR_9open_lark4core13error_metricsNtB2_10ErrorEvent14severity_level
FN:196,_RNvMs0_NtNtCs532nfEa3ofR_9open_lark4core13error_metricsNtB5_15ErrorStatistics20retryable_percentage
FN:167,_RNvMs0_NtNtCs532nfEa3ofR_9open_lark4core13error_metricsNtB5_15ErrorStatistics21error_rate_per_minute
FN:430,_RNvMs4_NtNtCs532nfEa3ofR_9open_lark4core13error_metricsNtB5_12ErrorMonitor12check_alerts
FN:339,_RNvMs4_NtNtCs532nfEa3ofR_9open_lark4core13error_metricsNtB5_12ErrorMonitor12record_error
FN:352,_RNvMs4_NtNtCs532nfEa3ofR_9open_lark4core13error_metricsNtB5_12ErrorMonitor12record_event
FN:453,_RNvMs4_NtNtCs532nfEa3ofR_9open_lark4core13error_metricsNtB5_12ErrorMonitor13trigger_alert
FN:398,_RNvMs4_NtNtCs532nfEa3ofR_9open_lark4core13error_metricsNtB5_12ErrorMonitor14get_statistics
FN:330,_RNvMs4_NtNtCs532nfEa3ofR_9open_lark4core13error_metricsNtB5_12ErrorMonitor3new
FN:134,_RNvMs_NtNtCs532nfEa3ofR_9open_lark4core13error_metricsNtB4_13ErrorSeverity6symbol
FN:124,_RNvMs_NtNtCs532nfEa3ofR_9open_lark4core13error_metricsNtB4_13ErrorSeverity6weight
FN:291,_RNvXs1_NtNtCs532nfEa3ofR_9open_lark4core13error_metricsNtB5_13MonitorConfigNtNtCsaNl6UpbT7bw_4core7default7Default7default
FN:313,_RNvXs2_NtNtCs532nfEa3ofR_9open_lark4core13error_metricsNtB5_15AlertThresholdsNtNtCsaNl6UpbT7bw_4core7default7Default7default
FN:323,_RNvXs3_NtNtCs532nfEa3ofR_9open_lark4core13error_metricsNtB5_12ErrorMonitorNtNtCsaNl6UpbT7bw_4core7default7Default7default
FNDA:0,_RNCNvMs0_NtNtCs532nfEa3ofR_9open_lark4core13error_metricsNtB7_15ErrorStatistics14print_detailed0Bb_
FNDA:0,_RNCNvMs0_NtNtCs532nfEa3ofR_9open_lark4core13error_metricsNtB7_15ErrorStatistics16highest_severity0Bb_
FNDA:0,_RNCNvMs4_NtNtCs532nfEa3ofR_9open_lark4core13error_metricsNtB7_12ErrorMonitor18cleanup_old_events0Bb_
FNDA:0,_RNvMNtNtCs532nfEa3ofR_9open_lark4core13error_metricsNtB2_10ErrorEvent12with_context
FNDA:0,_RNvMNtNtCs532nfEa3ofR_9open_lark4core13error_metricsNtB2_10ErrorEvent20with_processing_time
FNDA:0,_RNvMs0_NtNtCs532nfEa3ofR_9open_lark4core13error_metricsNtB5_15ErrorStatistics13print_summary
FNDA:0,_RNvMs0_NtNtCs532nfEa3ofR_9open_lark4core13error_metricsNtB5_15ErrorStatistics14print_detailed
FNDA:0,_RNvMs0_NtNtCs532nfEa3ofR_9open_lark4core13error_metricsNtB5_15ErrorStatistics16highest_severity
FNDA:0,_RNvMs0_NtNtCs532nfEa3ofR_9open_lark4core13error_metricsNtB5_15ErrorStatistics20most_common_category
FNDA:0,_RNvMs4_NtNtCs532nfEa3ofR_9open_lark4core13error_metricsNtB5_12ErrorMonitor15generate_report
FNDA:0,_RNvMs4_NtNtCs532nfEa3ofR_9open_lark4core13error_metricsNtB5_12ErrorMonitor16reset_statistics
FNDA:0,_RNvMs4_NtNtCs532nfEa3ofR_9open_lark4core13error_metricsNtB5_12ErrorMonitor17get_recent_events
FNDA:0,_RNvMs4_NtNtCs532nfEa3ofR_9open_lark4core13error_metricsNtB5_12ErrorMonitor18cleanup_old_events
FNDA:0,_RNvMs4_NtNtCs532nfEa3ofR_9open_lark4core13error_metricsNtB5_12ErrorMonitor25record_error_with_context
FNDA:0,_RNvMs5_NtNtCs532nfEa3ofR_9open_lark4core13error_metricsNtB5_11ErrorReport12save_to_file
FNDA:0,_RNvMs5_NtNtCs532nfEa3ofR_9open_lark4core13error_metricsNtB5_11ErrorReport5print
FNDA:1,_RNvNtNtNtCs532nfEa3ofR_9open_lark4core13error_metrics5testss_18test_error_monitor
FNDA:1,_RNvNtNtNtCs532nfEa3ofR_9open_lark4core13error_metrics5testss_19test_error_severity
FNDA:1,_RNvNtNtNtCs532nfEa3ofR_9open_lark4core13error_metrics5testss_21test_error_statistics
FNDA:1,_RNvNtNtNtCs532nfEa3ofR_9open_lark4core13error_metrics5testss_25test_error_event_creation
FNDA:3,_RNvMNtNtCs532nfEa3ofR_9open_lark4core13error_metricsNtB2_10ErrorEvent10from_error
FNDA:2,_RNvMNtNtCs532nfEa3ofR_9open_lark4core13error_metricsNtB2_10ErrorEvent14severity_level
FNDA:1,_RNvMs0_NtNtCs532nfEa3ofR_9open_lark4core13error_metricsNtB5_15ErrorStatistics20retryable_percentage
FNDA:3,_RNvMs0_NtNtCs532nfEa3ofR_9open_lark4core13error_metricsNtB5_15ErrorStatistics21error_rate_per_minute
FNDA:2,_RNvMs4_NtNtCs532nfEa3ofR_9open_lark4core13error_metricsNtB5_12ErrorMonitor12check_alerts
FNDA:2,_RNvMs4_NtNtCs532nfEa3ofR_9open_lark4core13error_metricsNtB5_12ErrorMonitor12record_error
FNDA:2,_RNvMs4_NtNtCs532nfEa3ofR_9open_lark4core13error_metricsNtB5_12ErrorMonitor12record_event
FNDA:1,_RNvMs4_NtNtCs532nfEa3ofR_9open_lark4core13error_metricsNtB5_12ErrorMonitor13trigger_alert
FNDA:3,_RNvMs4_NtNtCs532nfEa3ofR_9open_lark4core13error_metricsNtB5_12ErrorMonitor14get_statistics
FNDA:1,_RNvMs4_NtNtCs532nfEa3ofR_9open_lark4core13error_metricsNtB5_12ErrorMonitor3new
FNDA:1,_RNvMs_NtNtCs532nfEa3ofR_9open_lark4core13error_metricsNtB4_13ErrorSeverity6symbol
FNDA:2,_RNvMs_NtNtCs532nfEa3ofR_9open_lark4core13error_metricsNtB4_13ErrorSeverity6weight
FNDA:1,_RNvXs1_NtNtCs532nfEa3ofR_9open_lark4core13error_metricsNtB5_13MonitorConfigNtNtCsaNl6UpbT7bw_4core7default7Default7default
FNDA:1,_RNvXs2_NtNtCs532nfEa3ofR_9open_lark4core13error_metricsNtB5_15AlertThresholdsNtNtCsaNl6UpbT7bw_4core7default7Default7default
FNDA:1,_RNvXs3_NtNtCs532nfEa3ofR_9open_lark4core13error_metricsNtB5_12ErrorMonitorNtNtCsaNl6UpbT7bw_4core7default7Default7default
FNF:35
FNH:19
DA:42,3
DA:43,3
DA:44,3
DA:45,3
DA:46,3
DA:47,0
DA:48,2
DA:49,0
DA:50,0
DA:51,1
DA:52,0
DA:53,0
DA:54,0
DA:57,0
DA:60,0
DA:61,0
DA:62,0
DA:63,0
DA:66,3
DA:67,3
DA:68,0
DA:71,3
DA:72,3
DA:73,3
DA:74,3
DA:75,3
DA:76,3
DA:77,3
DA:78,3
DA:79,3
DA:80,3
DA:83,0
DA:84,0
DA:85,0
DA:86,0
DA:89,0
DA:90,0
DA:91,0
DA:92,0
DA:95,2
DA:96,2
DA:97,0
DA:98,1
DA:99,0
DA:100,1
DA:101,0
DA:102,0
DA:103,0
DA:104,0
DA:106,2
DA:124,2
DA:125,2
DA:126,0
DA:127,1
DA:128,0
DA:129,1
DA:131,2
DA:134,1
DA:135,1
DA:136,0
DA:137,0
DA:138,0
DA:139,1
DA:141,1
DA:167,3
DA:168,3
DA:169,3
DA:170,3
DA:171,3
DA:172,2
DA:173,1
DA:174,0
DA:175,0
DA:176,1
DA:177,3
DA:180,0
DA:181,0
DA:182,0
DA:183,0
DA:184,0
DA:185,0
DA:188,0
DA:189,0
DA:190,0
DA:191,0
DA:192,0
DA:193,0
DA:196,1
DA:197,1
DA:198,0
DA:200,1
DA:202,1
DA:205,0
DA:206,0
DA:207,0
DA:208,0
DA:209,0
DA:210,0
DA:212,0
DA:215,0
DA:216,0
DA:217,0
DA:219,0
DA:220,0
DA:221,0
DA:223,0
DA:224,0
DA:225,0
DA:226,0
DA:229,0
DA:230,0
DA:232,0
DA:233,0
DA:234,0
DA:235,0
DA:236,0
DA:238,0
DA:239,0
DA:240,0
DA:241,0
DA:242,0
DA:243,0
DA:244,0
DA:246,0
DA:247,0
DA:248,0
DA:249,0
DA:250,0
DA:251,0
DA:253,0
DA:254,0
DA:255,0
DA:256,0
DA:257,0
DA:258,0
DA:259,0
DA:260,0
DA:261,0
DA:262,0
DA:264,0
DA:291,1
DA:292,1
DA:293,1
DA:294,1
DA:295,1
DA:296,1
DA:297,1
DA:298,1
DA:313,1
DA:314,1
DA:315,1
DA:316,1
DA:317,1
DA:318,1
DA:319,1
DA:323,1
DA:324,1
DA:325,1
DA:330,1
DA:331,1
DA:332,1
DA:333,1
DA:334,1
DA:335,1
DA:336,1
DA:339,2
DA:340,2
DA:341,2
DA:342,2
DA:345,0
DA:346,0
DA:347,0
DA:348,0
DA:349,0
DA:352,2
DA:354,2
DA:355,2
DA:358,2
DA:361,2
DA:362,2
DA:363,2
DA:366,2
DA:367,2
DA:370,2
DA:371,1
DA:372,1
DA:375,2
DA:376,1
DA:377,1
DA:378,2
DA:379,0
DA:382,2
DA:383,2
DA:386,2
DA:387,0
DA:388,0
DA:389,0
DA:390,2
DA:391,0
DA:394,2
DA:395,2
DA:398,3
DA:399,3
DA:400,3
DA:403,0
DA:404,0
DA:405,0
DA:407,0
DA:409,0
DA:412,0
DA:413,0
DA:414,0
DA:415,0
DA:416,0
DA:417,0
DA:420,0
DA:421,0
DA:422,0
DA:423,0
DA:424,0
DA:425,0
DA:426,0
DA:427,0
DA:430,2
DA:431,2
DA:434,2
DA:435,1
DA:436,1
DA:437,1
DA:438,1
DA:439,1
DA:442,2
DA:443,1
DA:444,0
DA:445,0
DA:446,0
DA:447,0
DA:448,1
DA:449,1
DA:450,2
DA:453,1
DA:454,1
DA:456,1
DA:459,0
DA:460,0
DA:461,0
DA:463,0
DA:464,0
DA:465,0
DA:466,0
DA:467,0
DA:468,0
DA:469,0
DA:496,0
DA:497,0
DA:498,0
DA:499,0
DA:500,0
DA:502,0
DA:504,0
DA:505,0
DA:506,0
DA:507,0
DA:508,0
DA:509,0
DA:510,0
DA:511,0
DA:512,0
DA:513,0
DA:514,0
DA:517,0
DA:520,0
DA:522,0
DA:523,0
DA:524,0
DA:525,0
DA:527,0
DA:528,0
DA:529,0
DA:530,0
DA:531,0
DA:532,0
DA:533,0
DA:534,0
DA:535,0
DA:536,0
DA:537,0
DA:538,0
DA:540,0
DA:541,0
DA:549,1
DA:550,1
DA:551,1
DA:553,1
DA:554,1
DA:555,1
DA:556,1
DA:559,1
DA:560,1
DA:561,1
DA:562,1
DA:563,1
DA:564,1
DA:566,1
DA:567,1
DA:570,1
DA:571,1
DA:574,1
DA:575,1
DA:577,1
DA:578,1
DA:579,1
DA:580,1
DA:583,1
DA:584,1
DA:585,1
DA:586,1
DA:587,1
BRF:0
BRH:0
LF:321
LH:144
end_of_record
SF:/Users/zool/RustroverProjects/open-lark/src/core/http.rs
FN:51,_RNCNvMNtNtCs532nfEa3ofR_9open_lark4core4httpINtB4_9TransportpE10do_request0B8_
FN:69,_RNCNvMNtNtCs532nfEa3ofR_9open_lark4core4httpINtB4_9TransportpE7do_send0B8_
FN:28,_RNCNvMNtNtCs532nfEa3ofR_9open_lark4core4httpINtB4_9TransportpE7request0B8_
FN:46,_RNvMNtNtCs532nfEa3ofR_9open_lark4core4httpINtB2_9TransportpE10do_requestB6_
FN:65,_RNvMNtNtCs532nfEa3ofR_9open_lark4core4httpINtB2_9TransportpE7do_sendB6_
FN:24,_RNvMNtNtCs532nfEa3ofR_9open_lark4core4httpINtB2_9TransportpE7requestB6_
FN:218,_RNvNtNtCs532nfEa3ofR_9open_lark4core4http16decode_file_name
FN:89,_RNvNtNtCs532nfEa3ofR_9open_lark4core4http19validate_token_type
FN:114,_RNvNtNtCs532nfEa3ofR_9open_lark4core4http20determine_token_type
FN:156,_RNvNtNtCs532nfEa3ofR_9open_lark4core4http8validate
FN:248,_RNvNtNtNtCs532nfEa3ofR_9open_lark4core4http4test18create_test_config
FN:255,_RNvNtNtNtCs532nfEa3ofR_9open_lark4core4http4test30create_test_config_marketplace
FN:264,_RNvNtNtNtCs532nfEa3ofR_9open_lark4core4http4tests_21test_decode_file_name
FN:421,_RNvNtNtNtCs532nfEa3ofR_9open_lark4core4http4tests_26test_validate_empty_app_id
FN:525,_RNvNtNtNtCs532nfEa3ofR_9open_lark4core4http4tests_26test_validate_valid_config
FN:285,_RNvNtNtNtCs532nfEa3ofR_9open_lark4core4http4tests_27test_decode_file_name_empty
FN:271,_RNvNtNtNtCs532nfEa3ofR_9open_lark4core4http4tests_29test_decode_file_name_no_utf8
FN:433,_RNvNtNtNtCs532nfEa3ofR_9open_lark4core4http4tests_30test_validate_empty_app_secret
FN:482,_RNvNtNtNtCs532nfEa3ofR_9open_lark4core4http4tests_30test_validate_user_token_empty
FN:580,_RNvNtNtNtCs532nfEa3ofR_9open_lark4core4http4tests_31test_decode_file_name_no_equals
FN:491,_RNvNtNtNtCs532nfEa3ofR_9open_lark4core4http4tests_32test_validate_user_token_present
FN:452,_RNvNtNtNtCs532nfEa3ofR_9open_lark4core4http4tests_34test_validate_no_cache_with_tokens
FN:278,_RNvNtNtNtCs532nfEa3ofR_9open_lark4core4http4tests_36test_decode_file_name_multiple_parts
FN:371,_RNvNtNtNtCs532nfEa3ofR_9open_lark4core4http4tests_38test_determine_token_type_no_cache_app
FN:534,_RNvNtNtNtCs532nfEa3ofR_9open_lark4core4http4tests_38test_validate_no_cache_none_token_type
FN:383,_RNvNtNtNtCs532nfEa3ofR_9open_lark4core4http4tests_39test_determine_token_type_no_cache_none
FN:349,_RNvNtNtNtCs532nfEa3ofR_9open_lark4core4http4tests_39test_determine_token_type_no_cache_user
FN:463,_RNvNtNtNtCs532nfEa3ofR_9open_lark4core4http4tests_39test_validate_marketplace_tenant_no_key
FN:293,_RNvNtNtNtCs532nfEa3ofR_9open_lark4core4http4tests_39test_validate_token_type_empty_list_bug
FN:573,_RNvNtNtNtCs532nfEa3ofR_9open_lark4core4http4tests_41test_decode_file_name_whitespace_handling
FN:544,_RNvNtNtNtCs532nfEa3ofR_9open_lark4core4http4tests_41test_determine_token_type_first_is_tenant
FN:359,_RNvNtNtNtCs532nfEa3ofR_9open_lark4core4http4tests_41test_determine_token_type_no_cache_tenant
FN:513,_RNvNtNtNtCs532nfEa3ofR_9open_lark4core4http4tests_41test_validate_forbidden_header_request_id
FN:472,_RNvNtNtNtCs532nfEa3ofR_9open_lark4core4http4tests_41test_validate_marketplace_tenant_with_key
FN:553,_RNvNtNtNtCs532nfEa3ofR_9open_lark4core4http4tests_43test_determine_token_type_no_tenant_in_list
FN:339,_RNvNtNtNtCs532nfEa3ofR_9open_lark4core4http4tests_43test_validate_token_type_valid_combinations
FN:442,_RNvNtNtNtCs532nfEa3ofR_9open_lark4core4http4tests_44test_validate_no_cache_missing_access_tokens
FN:501,_RNvNtNtNtCs532nfEa3ofR_9open_lark4core4http4tests_45test_validate_forbidden_header_key_request_id
FN:326,_RNvNtNtNtCs532nfEa3ofR_9open_lark4core4http4tests_46test_validate_token_type_app_with_tenant_token
FN:401,_RNvNtNtNtCs532nfEa3ofR_9open_lark4core4http4tests_47test_determine_token_type_with_cache_tenant_key
FN:313,_RNvNtNtNtCs532nfEa3ofR_9open_lark4core4http4tests_47test_validate_token_type_tenant_with_user_token
FN:563,_RNvNtNtNtCs532nfEa3ofR_9open_lark4core4http4tests_49test_validate_token_type_edge_case_single_element
FN:303,_RNvNtNtNtCs532nfEa3ofR_9open_lark4core4http4tests_50test_validate_token_type_non_empty_list_returns_ok
FN:411,_RNvNtNtNtCs532nfEa3ofR_9open_lark4core4http4tests_54test_determine_token_type_with_cache_user_access_token
FN:392,_RNvNtNtNtCs532nfEa3ofR_9open_lark4core4http4tests_55test_determine_token_type_with_cache_defaults_to_tenant
FNDA:0,_RNCNvMNtNtCs532nfEa3ofR_9open_lark4core4httpINtB4_9TransportpE10do_request0B8_
FNDA:0,_RNCNvMNtNtCs532nfEa3ofR_9open_lark4core4httpINtB4_9TransportpE7do_send0B8_
FNDA:0,_RNCNvMNtNtCs532nfEa3ofR_9open_lark4core4httpINtB4_9TransportpE7request0B8_
FNDA:0,_RNvMNtNtCs532nfEa3ofR_9open_lark4core4httpINtB2_9TransportpE10do_requestB6_
FNDA:0,_RNvMNtNtCs532nfEa3ofR_9open_lark4core4httpINtB2_9TransportpE7do_sendB6_
FNDA:0,_RNvMNtNtCs532nfEa3ofR_9open_lark4core4httpINtB2_9TransportpE7requestB6_
FNDA:6,_RNvNtNtCs532nfEa3ofR_9open_lark4core4http16decode_file_name
FNDA:6,_RNvNtNtCs532nfEa3ofR_9open_lark4core4http19validate_token_type
FNDA:9,_RNvNtNtCs532nfEa3ofR_9open_lark4core4http20determine_token_type
FNDA:12,_RNvNtNtCs532nfEa3ofR_9open_lark4core4http8validate
FNDA:8,_RNvNtNtNtCs532nfEa3ofR_9open_lark4core4http4test18create_test_config
FNDA:2,_RNvNtNtNtCs532nfEa3ofR_9open_lark4core4http4test30create_test_config_marketplace
FNDA:1,_RNvNtNtNtCs532nfEa3ofR_9open_lark4core4http4tests_21test_decode_file_name
FNDA:1,_RNvNtNtNtCs532nfEa3ofR_9open_lark4core4http4tests_26test_validate_empty_app_id
FNDA:1,_RNvNtNtNtCs532nfEa3ofR_9open_lark4core4http4tests_26test_validate_valid_config
FNDA:1,_RNvNtNtNtCs532nfEa3ofR_9open_lark4core4http4tests_27test_decode_file_name_empty
FNDA:1,_RNvNtNtNtCs532nfEa3ofR_9open_lark4core4http4tests_29test_decode_file_name_no_utf8
FNDA:1,_RNvNtNtNtCs532nfEa3ofR_9open_lark4core4http4tests_30test_validate_empty_app_secret
FNDA:1,_RNvNtNtNtCs532nfEa3ofR_9open_lark4core4http4tests_30test_validate_user_token_empty
FNDA:1,_RNvNtNtNtCs532nfEa3ofR_9open_lark4core4http4tests_31test_decode_file_name_no_equals
FNDA:1,_RNvNtNtNtCs532nfEa3ofR_9open_lark4core4http4tests_32test_validate_user_token_present
FNDA:1,_RNvNtNtNtCs532nfEa3ofR_9open_lark4core4http4tests_34test_validate_no_cache_with_tokens
FNDA:1,_RNvNtNtNtCs532nfEa3ofR_9open_lark4core4http4tests_36test_decode_file_name_multiple_parts
FNDA:1,_RNvNtNtNtCs532nfEa3ofR_9open_lark4core4http4tests_38test_determine_token_type_no_cache_app
FNDA:1,_RNvNtNtNtCs532nfEa3ofR_9open_lark4core4http4tests_38test_validate_no_cache_none_token_type
FNDA:1,_RNvNtNtNtCs532nfEa3ofR_9open_lark4core4http4tests_39test_determine_token_type_no_cache_none
FNDA:1,_RNvNtNtNtCs532nfEa3ofR_9open_lark4core4http4tests_39test_determine_token_type_no_cache_user
FNDA:1,_RNvNtNtNtCs532nfEa3ofR_9open_lark4core4http4tests_39test_validate_marketplace_tenant_no_key
FNDA:1,_RNvNtNtNtCs532nfEa3ofR_9open_lark4core4http4tests_39test_validate_token_type_empty_list_bug
FNDA:1,_RNvNtNtNtCs532nfEa3ofR_9open_lark4core4http4tests_41test_decode_file_name_whitespace_handling
FNDA:1,_RNvNtNtNtCs532nfEa3ofR_9open_lark4core4http4tests_41test_determine_token_type_first_is_tenant
FNDA:1,_RNvNtNtNtCs532nfEa3ofR_9open_lark4core4http4tests_41test_determine_token_type_no_cache_tenant
FNDA:1,_RNvNtNtNtCs532nfEa3ofR_9open_lark4core4http4tests_41test_validate_forbidden_header_request_id
FNDA:1,_RNvNtNtNtCs532nfEa3ofR_9open_lark4core4http4tests_41test_validate_marketplace_tenant_with_key
FNDA:1,_RNvNtNtNtCs532nfEa3ofR_9open_lark4core4http4tests_43test_determine_token_type_no_tenant_in_list
FNDA:1,_RNvNtNtNtCs532nfEa3ofR_9open_lark4core4http4tests_43test_validate_token_type_valid_combinations
FNDA:1,_RNvNtNtNtCs532nfEa3ofR_9open_lark4core4http4tests_44test_validate_no_cache_missing_access_tokens
FNDA:1,_RNvNtNtNtCs532nfEa3ofR_9open_lark4core4http4tests_45test_validate_forbidden_header_key_request_id
FNDA:1,_RNvNtNtNtCs532nfEa3ofR_9open_lark4core4http4tests_46test_validate_token_type_app_with_tenant_token
FNDA:1,_RNvNtNtNtCs532nfEa3ofR_9open_lark4core4http4tests_47test_determine_token_type_with_cache_tenant_key
FNDA:1,_RNvNtNtNtCs532nfEa3ofR_9open_lark4core4http4tests_47test_validate_token_type_tenant_with_user_token
FNDA:1,_RNvNtNtNtCs532nfEa3ofR_9open_lark4core4http4tests_49test_validate_token_type_edge_case_single_element
FNDA:1,_RNvNtNtNtCs532nfEa3ofR_9open_lark4core4http4tests_50test_validate_token_type_non_empty_list_returns_ok
FNDA:1,_RNvNtNtNtCs532nfEa3ofR_9open_lark4core4http4tests_54test_determine_token_type_with_cache_user_access_token
FNDA:1,_RNvNtNtNtCs532nfEa3ofR_9open_lark4core4http4tests_55test_determine_token_type_with_cache_defaults_to_tenant
FNF:45
FNH:39
DA:24,0
DA:25,0
DA:26,0
DA:27,0
DA:28,0
DA:29,0
DA:31,0
DA:32,0
DA:33,0
DA:35,0
DA:36,0
DA:37,0
DA:38,0
DA:39,0
DA:41,0
DA:43,0
DA:44,0
DA:46,0
DA:47,0
DA:48,0
DA:49,0
DA:50,0
DA:51,0
DA:52,0
DA:53,0
DA:54,0
DA:55,0
DA:56,0
DA:58,0
DA:59,0
DA:60,0
DA:62,0
DA:63,0
DA:65,0
DA:66,0
DA:67,0
DA:68,0
DA:69,0
DA:70,0
DA:71,0
DA:73,0
DA:76,0
DA:77,0
DA:79,0
DA:81,0
DA:82,0
DA:83,0
DA:86,0
DA:89,6
DA:90,6
DA:91,6
DA:92,6
DA:93,6
DA:94,5
DA:95,1
DA:97,1
DA:99,1
DA:100,0
DA:101,0
DA:102,0
DA:103,1
DA:105,1
DA:106,0
DA:107,0
DA:108,0
DA:109,1
DA:111,1
DA:112,6
DA:114,9
DA:115,9
DA:116,9
DA:117,9
DA:118,9
DA:119,9
DA:120,4
DA:121,1
DA:122,3
DA:123,3
DA:124,1
DA:125,2
DA:126,2
DA:127,1
DA:128,1
DA:130,1
DA:131,5
DA:132,5
DA:133,5
DA:135,15
DA:136,10
DA:137,4
DA:138,6
DA:139,10
DA:142,5
DA:143,1
DA:144,1
DA:145,4
DA:147,5
DA:148,1
DA:149,1
DA:150,1
DA:151,4
DA:153,5
DA:154,9
DA:156,12
DA:157,12
DA:158,12
DA:159,12
DA:160,12
DA:161,12
DA:162,1
DA:163,1
DA:164,1
DA:165,11
DA:167,11
DA:168,1
DA:169,1
DA:170,1
DA:171,10
DA:173,10
DA:174,3
DA:175,1
DA:176,2
DA:177,2
DA:178,1
DA:179,1
DA:181,1
DA:182,1
DA:183,1
DA:184,1
DA:185,7
DA:187,8
DA:188,2
DA:189,2
DA:191,1
DA:192,1
DA:193,1
DA:194,7
DA:196,7
DA:197,1
DA:198,1
DA:199,1
DA:200,6
DA:202,6
DA:203,1
DA:204,1
DA:205,1
DA:206,5
DA:207,5
DA:208,1
DA:209,1
DA:210,1
DA:211,4
DA:213,4
DA:214,12
DA:218,6
DA:219,6
DA:221,17
DA:222,14
DA:223,3
DA:224,3
DA:225,3
DA:226,3
DA:227,3
DA:228,3
DA:229,11
DA:232,3
DA:233,6
DA:248,8
DA:249,8
DA:250,8
DA:251,8
DA:252,8
DA:253,8
DA:255,2
DA:256,2
DA:257,2
DA:258,2
DA:259,2
DA:260,2
DA:261,2
DA:264,1
DA:265,1
DA:266,1
DA:267,1
DA:268,1
DA:271,1
DA:272,1
DA:273,1
DA:274,1
DA:275,1
DA:278,1
DA:279,1
DA:280,1
DA:281,1
DA:282,1
DA:285,1
DA:286,1
DA:287,1
DA:288,1
DA:289,1
DA:293,1
DA:294,1
DA:295,1
DA:299,1
DA:300,1
DA:303,1
DA:304,1
DA:305,1
DA:308,1
DA:309,1
DA:310,1
DA:313,1
DA:314,1
DA:315,1
DA:316,1
DA:317,1
DA:318,1
DA:321,1
DA:322,1
DA:323,1
DA:326,1
DA:327,1
DA:328,1
DA:329,1
DA:330,1
DA:331,1
DA:334,1
DA:335,1
DA:336,1
DA:339,1
DA:340,1
DA:341,1
DA:342,1
DA:344,1
DA:345,1
DA:346,1
DA:349,1
DA:350,1
DA:351,1
DA:352,1
DA:354,1
DA:355,1
DA:356,1
DA:359,1
DA:360,1
DA:361,1
DA:362,1
DA:363,1
DA:364,1
DA:366,1
DA:367,1
DA:368,1
DA:371,1
DA:372,1
DA:373,1
DA:374,1
DA:375,1
DA:376,1
DA:378,1
DA:379,1
DA:380,1
DA:383,1
DA:384,1
DA:385,1
DA:387,1
DA:388,1
DA:389,1
DA:392,1
DA:393,1
DA:394,1
DA:396,1
DA:397,1
DA:398,1
DA:401,1
DA:402,1
DA:403,1
DA:404,1
DA:406,1
DA:407,1
DA:408,1
DA:411,1
DA:412,1
DA:413,1
DA:414,1
DA:416,1
DA:417,1
DA:418,1
DA:421,1
DA:422,1
DA:423,1
DA:424,1
DA:425,1
DA:426,1
DA:428,1
DA:429,1
DA:430,1
DA:433,1
DA:434,1
DA:435,1
DA:437,1
DA:438,1
DA:439,1
DA:442,1
DA:443,1
DA:444,1
DA:445,1
DA:447,1
DA:448,1
DA:449,1
DA:452,1
DA:453,1
DA:454,1
DA:455,1
DA:456,1
DA:458,1
DA:459,1
DA:460,1
DA:463,1
DA:464,1
DA:465,1
DA:467,1
DA:468,1
DA:469,1
DA:472,1
DA:473,1
DA:474,1
DA:475,1
DA:477,1
DA:478,1
DA:479,1
DA:482,1
DA:483,1
DA:484,1
DA:486,1
DA:487,1
DA:488,1
DA:491,1
DA:492,1
DA:493,1
DA:494,1
DA:496,1
DA:497,1
DA:498,1
DA:501,1
DA:502,1
DA:503,1
DA:504,1
DA:505,1
DA:506,1
DA:508,1
DA:509,1
DA:510,1
DA:513,1
DA:514,1
DA:515,1
DA:516,1
DA:517,1
DA:518,1
DA:520,1
DA:521,1
DA:522,1
DA:525,1
DA:526,1
DA:527,1
DA:529,1
DA:530,1
DA:531,1
DA:534,1
DA:535,1
DA:536,1
DA:537,1
DA:539,1
DA:540,1
DA:541,1
DA:544,1
DA:545,1
DA:546,1
DA:548,1
DA:549,1
DA:550,1
DA:553,1
DA:554,1
DA:555,1
DA:557,1
DA:559,1
DA:560,1
DA:563,1
DA:564,1
DA:565,1
DA:566,1
DA:568,1
DA:569,1
DA:570,1
DA:573,1
DA:574,1
DA:575,1
DA:576,1
DA:577,1
DA:580,1
DA:581,1
DA:582,1
DA:583,1
DA:584,1
BRF:0
BRH:0
LF:406
LH:349
end_of_record
SF:/Users/zool/RustroverProjects/open-lark/src/core/improved_response_handler.rs
FN:20,_RINvMNtNtCs532nfEa3ofR_9open_lark4core25improved_response_handlerNtB3_23ImprovedResponseHandler15handle_responsepEB7_
FN:32,_RINvMNtNtCs532nfEa3ofR_9open_lark4core25improved_response_handlerNtB3_23ImprovedResponseHandler20handle_data_responsepEB7_
FN:96,_RINvMNtNtCs532nfEa3ofR_9open_lark4core25improved_response_handlerNtB3_23ImprovedResponseHandler22handle_binary_responsepEB7_
FN:68,_RINvMNtNtCs532nfEa3ofR_9open_lark4core25improved_response_handlerNtB3_23ImprovedResponseHandler23handle_flatten_responsepEB7_
FN:22,_RNCINvMNtNtCs532nfEa3ofR_9open_lark4core25improved_response_handlerNtB5_23ImprovedResponseHandler15handle_responsepE0B9_
FN:34,_RNCINvMNtNtCs532nfEa3ofR_9open_lark4core25improved_response_handlerNtB5_23ImprovedResponseHandler20handle_data_responsepE0B9_
FN:98,_RNCINvMNtNtCs532nfEa3ofR_9open_lark4core25improved_response_handlerNtB5_23ImprovedResponseHandler22handle_binary_responsepE0B9_
FN:70,_RNCINvMNtNtCs532nfEa3ofR_9open_lark4core25improved_response_handlerNtB5_23ImprovedResponseHandler23handle_flatten_responsepE0B9_
FN:58,_RNCNCINvMNtNtCs532nfEa3ofR_9open_lark4core25improved_response_handlerNtB7_23ImprovedResponseHandler20handle_data_responsepE00Bb_
FN:103,_RNCNCINvMNtNtCs532nfEa3ofR_9open_lark4core25improved_response_handlerNtB7_23ImprovedResponseHandler22handle_binary_responsepE00Bb_
FN:174,_RNCNvMs_NtNtCs532nfEa3ofR_9open_lark4core25improved_response_handlerINtB6_21OptimizedBaseResponsepE9into_data0Ba_
FN:172,_RNvMs_NtNtCs532nfEa3ofR_9open_lark4core25improved_response_handlerINtB4_21OptimizedBaseResponsepE9into_dataB8_
FN:250,_RNvXNtNtNtCs532nfEa3ofR_9open_lark4core25improved_response_handler5testsNtB2_8TestDataNtNtB6_8api_resp16ApiResponseTrait11data_format
FN:167,_RNvMs_NtNtCs532nfEa3ofR_9open_lark4core25improved_response_handlerINtB4_21OptimizedBaseResponseNtNtB4_5tests8TestDataE10is_successB8_
FN:185,_RNvMs_NtNtCs532nfEa3ofR_9open_lark4core25improved_response_handlerINtB4_21OptimizedBaseResponseNtNtB4_5tests8TestDataE4dataB8_
FN:190,_RNvMs_NtNtCs532nfEa3ofR_9open_lark4core25improved_response_handlerINtB4_21OptimizedBaseResponseNtNtB4_5tests8TestDataE9has_errorB8_
FN:290,_RNvNtNtNtCs532nfEa3ofR_9open_lark4core25improved_response_handler5testss_24test_filename_extraction
FN:314,_RNvNtNtNtCs532nfEa3ofR_9open_lark4core25improved_response_handler5testss_29test_json_parsing_performance
FN:273,_RNvNtNtNtCs532nfEa3ofR_9open_lark4core25improved_response_handler5testss_34test_optimized_base_response_error
FN:256,_RNvNtNtNtCs532nfEa3ofR_9open_lark4core25improved_response_handler5testss_36test_optimized_base_response_success
FN:124,_RNvMNtNtCs532nfEa3ofR_9open_lark4core25improved_response_handlerNtB2_23ImprovedResponseHandler16extract_filename
FNDA:0,_RINvMNtNtCs532nfEa3ofR_9open_lark4core25improved_response_handlerNtB3_23ImprovedResponseHandler15handle_responsepEB7_
FNDA:0,_RINvMNtNtCs532nfEa3ofR_9open_lark4core25improved_response_handlerNtB3_23ImprovedResponseHandler20handle_data_responsepEB7_
FNDA:0,_RINvMNtNtCs532nfEa3ofR_9open_lark4core25improved_response_handlerNtB3_23ImprovedResponseHandler22handle_binary_responsepEB7_
FNDA:0,_RINvMNtNtCs532nfEa3ofR_9open_lark4core25improved_response_handlerNtB3_23ImprovedResponseHandler23handle_flatten_responsepEB7_
FNDA:0,_RNCINvMNtNtCs532nfEa3ofR_9open_lark4core25improved_response_handlerNtB5_23ImprovedResponseHandler15handle_responsepE0B9_
FNDA:0,_RNCINvMNtNtCs532nfEa3ofR_9open_lark4core25improved_response_handlerNtB5_23ImprovedResponseHandler20handle_data_responsepE0B9_
FNDA:0,_RNCINvMNtNtCs532nfEa3ofR_9open_lark4core25improved_response_handlerNtB5_23ImprovedResponseHandler22handle_binary_responsepE0B9_
FNDA:0,_RNCINvMNtNtCs532nfEa3ofR_9open_lark4core25improved_response_handlerNtB5_23ImprovedResponseHandler23handle_flatten_responsepE0B9_
FNDA:0,_RNCNCINvMNtNtCs532nfEa3ofR_9open_lark4core25improved_response_handlerNtB7_23ImprovedResponseHandler20handle_data_responsepE00Bb_
FNDA:0,_RNCNCINvMNtNtCs532nfEa3ofR_9open_lark4core25improved_response_handlerNtB7_23ImprovedResponseHandler22handle_binary_responsepE00Bb_
FNDA:0,_RNCNvMs_NtNtCs532nfEa3ofR_9open_lark4core25improved_response_handlerINtB6_21OptimizedBaseResponsepE9into_data0Ba_
FNDA:0,_RNvMs_NtNtCs532nfEa3ofR_9open_lark4core25improved_response_handlerINtB4_21OptimizedBaseResponsepE9into_dataB8_
FNDA:0,_RNvXNtNtNtCs532nfEa3ofR_9open_lark4core25improved_response_handler5testsNtB2_8TestDataNtNtB6_8api_resp16ApiResponseTrait11data_format
FNDA:2,_RNvMs_NtNtCs532nfEa3ofR_9open_lark4core25improved_response_handlerINtB4_21OptimizedBaseResponseNtNtB4_5tests8TestDataE10is_successB8_
FNDA:3,_RNvMs_NtNtCs532nfEa3ofR_9open_lark4core25improved_response_handlerINtB4_21OptimizedBaseResponseNtNtB4_5tests8TestDataE4dataB8_
FNDA:1,_RNvMs_NtNtCs532nfEa3ofR_9open_lark4core25improved_response_handlerINtB4_21OptimizedBaseResponseNtNtB4_5tests8TestDataE9has_errorB8_
FNDA:1,_RNvNtNtNtCs532nfEa3ofR_9open_lark4core25improved_response_handler5testss_24test_filename_extraction
FNDA:1,_RNvNtNtNtCs532nfEa3ofR_9open_lark4core25improved_response_handler5testss_29test_json_parsing_performance
FNDA:1,_RNvNtNtNtCs532nfEa3ofR_9open_lark4core25improved_response_handler5testss_34test_optimized_base_response_error
FNDA:1,_RNvNtNtNtCs532nfEa3ofR_9open_lark4core25improved_response_handler5testss_36test_optimized_base_response_success
FNDA:4,_RNvMNtNtCs532nfEa3ofR_9open_lark4core25improved_response_handlerNtB2_23ImprovedResponseHandler16extract_filename
FNF:21
FNH:8
DA:20,0
DA:21,0
DA:22,0
DA:23,0
DA:24,0
DA:25,0
DA:26,0
DA:28,0
DA:32,0
DA:33,0
DA:34,0
DA:35,0
DA:36,0
DA:39,0
DA:40,0
DA:43,0
DA:45,0
DA:46,0
DA:47,0
DA:48,0
DA:49,0
DA:54,0
DA:55,0
DA:56,0
DA:57,0
DA:58,0
DA:60,0
DA:64,0
DA:68,0
DA:69,0
DA:70,0
DA:71,0
DA:72,0
DA:74,0
DA:77,0
DA:80,0
DA:81,0
DA:82,0
DA:83,0
DA:84,0
DA:85,0
DA:89,0
DA:92,0
DA:93,0
DA:96,0
DA:97,0
DA:98,0
DA:100,0
DA:101,0
DA:102,0
DA:103,0
DA:104,0
DA:105,0
DA:108,0
DA:111,0
DA:113,0
DA:114,0
DA:115,0
DA:116,0
DA:117,0
DA:118,0
DA:119,0
DA:120,0
DA:121,0
DA:124,4
DA:126,7
DA:127,7
DA:130,7
DA:131,1
DA:132,6
DA:135,6
DA:136,2
DA:137,2
DA:138,4
DA:140,1
DA:141,4
DA:167,2
DA:168,2
DA:169,2
DA:172,0
DA:173,0
DA:174,0
DA:175,0
DA:176,0
DA:178,0
DA:179,0
DA:180,0
DA:182,0
DA:185,3
DA:186,3
DA:187,3
DA:190,1
DA:191,1
DA:192,1
DA:250,0
DA:251,0
DA:252,0
DA:256,1
DA:257,1
DA:258,1
DA:259,1
DA:260,1
DA:261,1
DA:262,1
DA:263,1
DA:264,1
DA:265,1
DA:267,1
DA:268,1
DA:269,1
DA:270,1
DA:273,1
DA:274,1
DA:275,1
DA:276,1
DA:277,1
DA:278,1
DA:279,1
DA:280,1
DA:281,1
DA:282,1
DA:284,1
DA:285,1
DA:286,1
DA:287,1
DA:290,1
DA:291,1
DA:292,1
DA:293,1
DA:294,1
DA:295,1
DA:296,1
DA:297,1
DA:298,1
DA:299,1
DA:300,1
DA:301,1
DA:302,1
DA:303,1
DA:304,1
DA:307,5
DA:308,4
DA:309,4
DA:311,1
DA:314,1
DA:315,1
DA:318,1
DA:319,1
DA:320,1
DA:323,1
DA:324,1
DA:325,1
DA:326,1
DA:328,1
DA:329,1
DA:333,1
BRF:0
BRH:0
LF:163
LH:80
end_of_record
SF:/Users/zool/RustroverProjects/open-lark/src/core/query_params.rs
FN:281,_RINvMs_NtNtCs532nfEa3ofR_9open_lark4core12query_paramsNtB5_18QueryParamsBuilder10start_timepEB9_
FN:344,_RINvMs_NtNtCs532nfEa3ofR_9open_lark4core12query_paramsNtB5_18QueryParamsBuilder11access_typepEB9_
FN:302,_RINvMs_NtNtCs532nfEa3ofR_9open_lark4core12query_paramsNtB5_18QueryParamsBuilder12user_id_typepEB9_
FN:309,_RINvMs_NtNtCs532nfEa3ofR_9open_lark4core12query_paramsNtB5_18QueryParamsBuilder13department_idpEB9_
FN:330,_RINvMs_NtNtCs532nfEa3ofR_9open_lark4core12query_paramsNtB5_18QueryParamsBuilder4typepEB9_
FN:316,_RINvMs_NtNtCs532nfEa3ofR_9open_lark4core12query_paramsNtB5_18QueryParamsBuilder6org_idpEB9_
FN:324,_RINvMs_NtNtCs532nfEa3ofR_9open_lark4core12query_paramsNtB5_18QueryParamsBuilder6statuspEB9_
FN:288,_RINvMs_NtNtCs532nfEa3ofR_9open_lark4core12query_paramsNtB5_18QueryParamsBuilder8end_timepEB9_
FN:337,_RINvMs_NtNtCs532nfEa3ofR_9open_lark4core12query_paramsNtB5_18QueryParamsBuilder9rule_typepEB9_
FN:353,_RNvMs_NtNtCs532nfEa3ofR_9open_lark4core12query_paramsNtB4_18QueryParamsBuilder13custom_static
FN:261,_RNvMs_NtNtCs532nfEa3ofR_9open_lark4core12query_paramsNtB4_18QueryParamsBuilder4page
FN:273,_RNvMs_NtNtCs532nfEa3ofR_9open_lark4core12query_paramsNtB4_18QueryParamsBuilder5limit
FN:267,_RNvMs_NtNtCs532nfEa3ofR_9open_lark4core12query_paramsNtB4_18QueryParamsBuilder6offset
FN:377,_RNvMs_NtNtCs532nfEa3ofR_9open_lark4core12query_paramsNtB4_18QueryParamsBuilder9build_ref
FN:254,_RINvMs_NtNtCs532nfEa3ofR_9open_lark4core12query_paramsNtB5_18QueryParamsBuilder10page_tokenReEB9_
FN:296,_RINvMs_NtNtCs532nfEa3ofR_9open_lark4core12query_paramsNtB5_18QueryParamsBuilder7user_idReEB9_
FN:359,_RINvMs_NtNtCs532nfEa3ofR_9open_lark4core12query_paramsNtB5_18QueryParamsBuilder8optionalNtNtCsiTraAjBDcu4_5alloc6string6StringEB9_
FN:359,_RINvMs_NtNtCs532nfEa3ofR_9open_lark4core12query_paramsNtB5_18QueryParamsBuilder8optionallEB9_
FN:371,_RNCNvMs_NtNtCs532nfEa3ofR_9open_lark4core12query_paramsNtB6_18QueryParamsBuilder5build0Ba_
FN:239,_RNvMs_NtNtCs532nfEa3ofR_9open_lark4core12query_paramsNtB4_18QueryParamsBuilder13with_capacity
FN:382,_RNvMs_NtNtCs532nfEa3ofR_9open_lark4core12query_paramsNtB4_18QueryParamsBuilder3len
FN:232,_RNvMs_NtNtCs532nfEa3ofR_9open_lark4core12query_paramsNtB4_18QueryParamsBuilder3new
FN:367,_RNvMs_NtNtCs532nfEa3ofR_9open_lark4core12query_paramsNtB4_18QueryParamsBuilder5build
FN:387,_RNvMs_NtNtCs532nfEa3ofR_9open_lark4core12query_paramsNtB4_18QueryParamsBuilder8is_empty
FN:248,_RNvMs_NtNtCs532nfEa3ofR_9open_lark4core12query_paramsNtB4_18QueryParamsBuilder9page_size
FN:425,_RNvNtNtNtCs532nfEa3ofR_9open_lark4core12query_params5testss_20test_optional_params
FN:404,_RNvNtNtNtCs532nfEa3ofR_9open_lark4core12query_params5testss_25test_query_params_builder
FN:418,_RNvNtNtNtCs532nfEa3ofR_9open_lark4core12query_params5testss_26test_builder_with_capacity
FN:397,_RNvNtNtNtCs532nfEa3ofR_9open_lark4core12query_params5testss_27test_query_params_constants
FNDA:0,_RINvMs_NtNtCs532nfEa3ofR_9open_lark4core12query_paramsNtB5_18QueryParamsBuilder10start_timepEB9_
FNDA:0,_RINvMs_NtNtCs532nfEa3ofR_9open_lark4core12query_paramsNtB5_18QueryParamsBuilder11access_typepEB9_
FNDA:0,_RINvMs_NtNtCs532nfEa3ofR_9open_lark4core12query_paramsNtB5_18QueryParamsBuilder12user_id_typepEB9_
FNDA:0,_RINvMs_NtNtCs532nfEa3ofR_9open_lark4core12query_paramsNtB5_18QueryParamsBuilder13department_idpEB9_
FNDA:0,_RINvMs_NtNtCs532nfEa3ofR_9open_lark4core12query_paramsNtB5_18QueryParamsBuilder4typepEB9_
FNDA:0,_RINvMs_NtNtCs532nfEa3ofR_9open_lark4core12query_paramsNtB5_18QueryParamsBuilder6org_idpEB9_
FNDA:0,_RINvMs_NtNtCs532nfEa3ofR_9open_lark4core12query_paramsNtB5_18QueryParamsBuilder6statuspEB9_
FNDA:0,_RINvMs_NtNtCs532nfEa3ofR_9open_lark4core12query_paramsNtB5_18QueryParamsBuilder8end_timepEB9_
FNDA:0,_RINvMs_NtNtCs532nfEa3ofR_9open_lark4core12query_paramsNtB5_18QueryParamsBuilder9rule_typepEB9_
FNDA:0,_RNvMs_NtNtCs532nfEa3ofR_9open_lark4core12query_paramsNtB4_18QueryParamsBuilder13custom_static
FNDA:0,_RNvMs_NtNtCs532nfEa3ofR_9open_lark4core12query_paramsNtB4_18QueryParamsBuilder4page
FNDA:0,_RNvMs_NtNtCs532nfEa3ofR_9open_lark4core12query_paramsNtB4_18QueryParamsBuilder5limit
FNDA:0,_RNvMs_NtNtCs532nfEa3ofR_9open_lark4core12query_paramsNtB4_18QueryParamsBuilder6offset
FNDA:0,_RNvMs_NtNtCs532nfEa3ofR_9open_lark4core12query_paramsNtB4_18QueryParamsBuilder9build_ref
FNDA:1,_RINvMs_NtNtCs532nfEa3ofR_9open_lark4core12query_paramsNtB5_18QueryParamsBuilder10page_tokenReEB9_
FNDA:1,_RINvMs_NtNtCs532nfEa3ofR_9open_lark4core12query_paramsNtB5_18QueryParamsBuilder7user_idReEB9_
FNDA:1,_RINvMs_NtNtCs532nfEa3ofR_9open_lark4core12query_paramsNtB5_18QueryParamsBuilder8optionalNtNtCsiTraAjBDcu4_5alloc6string6StringEB9_
FNDA:1,_RINvMs_NtNtCs532nfEa3ofR_9open_lark4core12query_paramsNtB5_18QueryParamsBuilder8optionallEB9_
FNDA:4,_RNCNvMs_NtNtCs532nfEa3ofR_9open_lark4core12query_paramsNtB6_18QueryParamsBuilder5build0Ba_
FNDA:1,_RNvMs_NtNtCs532nfEa3ofR_9open_lark4core12query_paramsNtB4_18QueryParamsBuilder13with_capacity
FNDA:1,_RNvMs_NtNtCs532nfEa3ofR_9open_lark4core12query_paramsNtB4_18QueryParamsBuilder3len
FNDA:2,_RNvMs_NtNtCs532nfEa3ofR_9open_lark4core12query_paramsNtB4_18QueryParamsBuilder3new
FNDA:2,_RNvMs_NtNtCs532nfEa3ofR_9open_lark4core12query_paramsNtB4_18QueryParamsBuilder5build
FNDA:1,_RNvMs_NtNtCs532nfEa3ofR_9open_lark4core12query_paramsNtB4_18QueryParamsBuilder8is_empty
FNDA:1,_RNvMs_NtNtCs532nfEa3ofR_9open_lark4core12query_paramsNtB4_18QueryParamsBuilder9page_size
FNDA:1,_RNvNtNtNtCs532nfEa3ofR_9open_lark4core12query_params5testss_20test_optional_params
FNDA:1,_RNvNtNtNtCs532nfEa3ofR_9open_lark4core12query_params5testss_25test_query_params_builder
FNDA:1,_RNvNtNtNtCs532nfEa3ofR_9open_lark4core12query_params5testss_26test_builder_with_capacity
FNDA:1,_RNvNtNtNtCs532nfEa3ofR_9open_lark4core12query_params5testss_27test_query_params_constants
FNF:28
FNH:14
DA:232,2
DA:233,2
DA:234,2
DA:235,2
DA:236,2
DA:239,1
DA:240,1
DA:241,1
DA:242,1
DA:243,1
DA:248,1
DA:249,1
DA:250,1
DA:251,1
DA:254,1
DA:255,1
DA:256,1
DA:257,1
DA:258,1
DA:261,0
DA:262,0
DA:263,0
DA:264,0
DA:267,0
DA:268,0
DA:269,0
DA:270,0
DA:273,0
DA:274,0
DA:275,0
DA:276,0
DA:281,0
DA:282,0
DA:283,0
DA:284,0
DA:285,0
DA:288,0
DA:289,0
DA:290,0
DA:291,0
DA:296,1
DA:297,1
DA:298,1
DA:299,1
DA:302,0
DA:303,0
DA:304,0
DA:305,0
DA:306,0
DA:309,0
DA:310,0
DA:311,0
DA:312,0
DA:313,0
DA:316,0
DA:317,0
DA:318,0
DA:319,0
DA:324,0
DA:325,0
DA:326,0
DA:327,0
DA:330,0
DA:331,0
DA:332,0
DA:333,0
DA:334,0
DA:337,0
DA:338,0
DA:339,0
DA:340,0
DA:341,0
DA:344,0
DA:345,0
DA:346,0
DA:347,0
DA:348,0
DA:353,0
DA:354,0
DA:355,0
DA:356,0
DA:359,2
DA:360,2
DA:361,1
DA:362,1
DA:363,2
DA:364,2
DA:367,2
DA:369,2
DA:370,2
DA:371,4
DA:372,2
DA:373,2
DA:377,0
DA:378,0
DA:379,0
DA:382,1
DA:383,1
DA:384,1
DA:387,1
DA:388,1
DA:389,1
DA:397,1
DA:398,1
DA:399,1
DA:400,1
DA:401,1
DA:404,1
DA:405,1
DA:406,1
DA:407,1
DA:408,1
DA:409,1
DA:411,1
DA:412,1
DA:413,1
DA:414,1
DA:415,1
DA:418,1
DA:419,1
DA:420,1
DA:421,1
DA:422,1
DA:425,1
DA:426,1
DA:427,1
DA:428,1
DA:429,1
DA:431,1
DA:432,1
DA:433,1
DA:434,1
BRF:0
BRH:0
LF:133
LH:72
end_of_record
SF:/Users/zool/RustroverProjects/open-lark/src/core/req_option.rs
FN:20,_RNvMNtNtCs532nfEa3ofR_9open_lark4core10req_optionNtB2_13RequestOption7builder
FN:66,_RNvMs_NtNtCs532nfEa3ofR_9open_lark4core10req_optionNtB4_20RequestOptionBuilder11file_upload
FN:71,_RNvMs_NtNtCs532nfEa3ofR_9open_lark4core10req_optionNtB4_20RequestOptionBuilder13file_download
FN:51,_RNvMs_NtNtCs532nfEa3ofR_9open_lark4core10req_optionNtB4_20RequestOptionBuilder18need_helpdesk_auth
FN:89,_RNvMs_NtNtCs532nfEa3ofR_9open_lark4core10req_optionNtB4_20RequestOptionBuilder5build
FN:76,_RNvMs_NtNtCs532nfEa3ofR_9open_lark4core10req_optionNtB4_20RequestOptionBuilder6header
FN:82,_RINvMs_NtNtCs532nfEa3ofR_9open_lark4core10req_optionNtB5_20RequestOptionBuilder10add_headerNtNtCsiTraAjBDcu4_5alloc6string6StringB1r_EB9_
FN:82,_RINvMs_NtNtCs532nfEa3ofR_9open_lark4core10req_optionNtB5_20RequestOptionBuilder10add_headerReB1r_EB9_
FN:61,_RINvMs_NtNtCs532nfEa3ofR_9open_lark4core10req_optionNtB5_20RequestOptionBuilder10app_ticketNtNtCsiTraAjBDcu4_5alloc6string6StringEB9_
FN:61,_RINvMs_NtNtCs532nfEa3ofR_9open_lark4core10req_optionNtB5_20RequestOptionBuilder10app_ticketReEB9_
FN:56,_RINvMs_NtNtCs532nfEa3ofR_9open_lark4core10req_optionNtB5_20RequestOptionBuilder10request_idNtNtCsiTraAjBDcu4_5alloc6string6StringEB9_
FN:56,_RINvMs_NtNtCs532nfEa3ofR_9open_lark4core10req_optionNtB5_20RequestOptionBuilder10request_idReEB9_
FN:31,_RINvMs_NtNtCs532nfEa3ofR_9open_lark4core10req_optionNtB5_20RequestOptionBuilder10tenant_keyNtNtCsiTraAjBDcu4_5alloc6string6StringEB9_
FN:31,_RINvMs_NtNtCs532nfEa3ofR_9open_lark4core10req_optionNtB5_20RequestOptionBuilder10tenant_keyReEB9_
FN:41,_RINvMs_NtNtCs532nfEa3ofR_9open_lark4core10req_optionNtB5_20RequestOptionBuilder16app_access_tokenNtNtCsiTraAjBDcu4_5alloc6string6StringEB9_
FN:41,_RINvMs_NtNtCs532nfEa3ofR_9open_lark4core10req_optionNtB5_20RequestOptionBuilder16app_access_tokenReEB9_
FN:36,_RINvMs_NtNtCs532nfEa3ofR_9open_lark4core10req_optionNtB5_20RequestOptionBuilder17user_access_tokenNtNtCsiTraAjBDcu4_5alloc6string6StringEB9_
FN:36,_RINvMs_NtNtCs532nfEa3ofR_9open_lark4core10req_optionNtB5_20RequestOptionBuilder17user_access_tokenReEB9_
FN:46,_RINvMs_NtNtCs532nfEa3ofR_9open_lark4core10req_optionNtB5_20RequestOptionBuilder19tenant_access_tokenNtNtCsiTraAjBDcu4_5alloc6string6StringEB9_
FN:46,_RINvMs_NtNtCs532nfEa3ofR_9open_lark4core10req_optionNtB5_20RequestOptionBuilder19tenant_access_tokenReEB9_
FN:100,_RNvNtNtNtCs532nfEa3ofR_9open_lark4core10req_option5testss_27test_request_option_default
FN:430,_RNvNtNtNtCs532nfEa3ofR_9open_lark4core10req_option5testss_31test_request_option_debug_clone
FN:256,_RNvNtNtNtCs532nfEa3ofR_9open_lark4core10req_option5testss_34test_request_option_builder_header
FN:447,_RNvNtNtNtCs532nfEa3ofR_9open_lark4core10req_option5testss_35test_request_option_builder_default
FN:339,_RNvNtNtNtCs532nfEa3ofR_9open_lark4core10req_option5testss_36test_request_option_builder_chaining
FN:115,_RNvNtNtNtCs532nfEa3ofR_9open_lark4core10req_option5testss_36test_request_option_builder_creation
FN:275,_RNvNtNtNtCs532nfEa3ofR_9open_lark4core10req_option5testss_38test_request_option_builder_add_header
FN:220,_RNvNtNtNtCs532nfEa3ofR_9open_lark4core10req_option5testss_38test_request_option_builder_app_ticket
FN:206,_RNvNtNtNtCs532nfEa3ofR_9open_lark4core10req_option5testss_38test_request_option_builder_request_id
FN:133,_RNvNtNtNtCs532nfEa3ofR_9open_lark4core10req_option5testss_38test_request_option_builder_tenant_key
FN:234,_RNvNtNtNtCs532nfEa3ofR_9open_lark4core10req_option5testss_39test_request_option_builder_file_upload
FN:367,_RNvNtNtNtCs532nfEa3ofR_9open_lark4core10req_option5testss_41test_request_option_builder_empty_strings
FN:245,_RNvNtNtNtCs532nfEa3ofR_9open_lark4core10req_option5testss_41test_request_option_builder_file_download
FN:163,_RNvNtNtNtCs532nfEa3ofR_9open_lark4core10req_option5testss_44test_request_option_builder_app_access_token
FN:421,_RNvNtNtNtCs532nfEa3ofR_9open_lark4core10req_option5testss_44test_request_option_builder_empty_header_map
FN:404,_RNvNtNtNtCs532nfEa3ofR_9open_lark4core10req_option5testss_44test_request_option_builder_overwrite_header
FN:147,_RNvNtNtNtCs532nfEa3ofR_9open_lark4core10req_option5testss_45test_request_option_builder_user_access_token
FN:195,_RNvNtNtNtCs532nfEa3ofR_9open_lark4core10req_option5testss_46test_request_option_builder_need_helpdesk_auth
FN:386,_RNvNtNtNtCs532nfEa3ofR_9open_lark4core10req_option5testss_46test_request_option_builder_special_characters
FN:304,_RNvNtNtNtCs532nfEa3ofR_9open_lark4core10req_option5testss_47test_request_option_builder_add_header_multiple
FN:179,_RNvNtNtNtCs532nfEa3ofR_9open_lark4core10req_option5testss_47test_request_option_builder_tenant_access_token
FN:318,_RNvNtNtNtCs532nfEa3ofR_9open_lark4core10req_option5testss_49test_request_option_builder_header_and_add_header
FNDA:31,_RNvMNtNtCs532nfEa3ofR_9open_lark4core10req_optionNtB2_13RequestOption7builder
FNDA:3,_RNvMs_NtNtCs532nfEa3ofR_9open_lark4core10req_optionNtB4_20RequestOptionBuilder11file_upload
FNDA:3,_RNvMs_NtNtCs532nfEa3ofR_9open_lark4core10req_optionNtB4_20RequestOptionBuilder13file_download
FNDA:4,_RNvMs_NtNtCs532nfEa3ofR_9open_lark4core10req_optionNtB4_20RequestOptionBuilder18need_helpdesk_auth
FNDA:32,_RNvMs_NtNtCs532nfEa3ofR_9open_lark4core10req_optionNtB4_20RequestOptionBuilder5build
FNDA:4,_RNvMs_NtNtCs532nfEa3ofR_9open_lark4core10req_optionNtB4_20RequestOptionBuilder6header
FNDA:1,_RINvMs_NtNtCs532nfEa3ofR_9open_lark4core10req_optionNtB5_20RequestOptionBuilder10add_headerNtNtCsiTraAjBDcu4_5alloc6string6StringB1r_EB9_
FNDA:10,_RINvMs_NtNtCs532nfEa3ofR_9open_lark4core10req_optionNtB5_20RequestOptionBuilder10add_headerReB1r_EB9_
FNDA:1,_RINvMs_NtNtCs532nfEa3ofR_9open_lark4core10req_optionNtB5_20RequestOptionBuilder10app_ticketNtNtCsiTraAjBDcu4_5alloc6string6StringEB9_
FNDA:3,_RINvMs_NtNtCs532nfEa3ofR_9open_lark4core10req_optionNtB5_20RequestOptionBuilder10app_ticketReEB9_
FNDA:1,_RINvMs_NtNtCs532nfEa3ofR_9open_lark4core10req_optionNtB5_20RequestOptionBuilder10request_idNtNtCsiTraAjBDcu4_5alloc6string6StringEB9_
FNDA:5,_RINvMs_NtNtCs532nfEa3ofR_9open_lark4core10req_optionNtB5_20RequestOptionBuilder10request_idReEB9_
FNDA:1,_RINvMs_NtNtCs532nfEa3ofR_9open_lark4core10req_optionNtB5_20RequestOptionBuilder10tenant_keyNtNtCsiTraAjBDcu4_5alloc6string6StringEB9_
FNDA:6,_RINvMs_NtNtCs532nfEa3ofR_9open_lark4core10req_optionNtB5_20RequestOptionBuilder10tenant_keyReEB9_
FNDA:1,_RINvMs_NtNtCs532nfEa3ofR_9open_lark4core10req_optionNtB5_20RequestOptionBuilder16app_access_tokenNtNtCsiTraAjBDcu4_5alloc6string6StringEB9_
FNDA:3,_RINvMs_NtNtCs532nfEa3ofR_9open_lark4core10req_optionNtB5_20RequestOptionBuilder16app_access_tokenReEB9_
FNDA:1,_RINvMs_NtNtCs532nfEa3ofR_9open_lark4core10req_optionNtB5_20RequestOptionBuilder17user_access_tokenNtNtCsiTraAjBDcu4_5alloc6string6StringEB9_
FNDA:5,_RINvMs_NtNtCs532nfEa3ofR_9open_lark4core10req_optionNtB5_20RequestOptionBuilder17user_access_tokenReEB9_
FNDA:1,_RINvMs_NtNtCs532nfEa3ofR_9open_lark4core10req_optionNtB5_20RequestOptionBuilder19tenant_access_tokenNtNtCsiTraAjBDcu4_5alloc6string6StringEB9_
FNDA:3,_RINvMs_NtNtCs532nfEa3ofR_9open_lark4core10req_optionNtB5_20RequestOptionBuilder19tenant_access_tokenReEB9_
FNDA:1,_RNvNtNtNtCs532nfEa3ofR_9open_lark4core10req_option5testss_27test_request_option_default
FNDA:1,_RNvNtNtNtCs532nfEa3ofR_9open_lark4core10req_option5testss_31test_request_option_debug_clone
FNDA:1,_RNvNtNtNtCs532nfEa3ofR_9open_lark4core10req_option5testss_34test_request_option_builder_header
FNDA:1,_RNvNtNtNtCs532nfEa3ofR_9open_lark4core10req_option5testss_35test_request_option_builder_default
FNDA:1,_RNvNtNtNtCs532nfEa3ofR_9open_lark4core10req_option5testss_36test_request_option_builder_chaining
FNDA:1,_RNvNtNtNtCs532nfEa3ofR_9open_lark4core10req_option5testss_36test_request_option_builder_creation
FNDA:1,_RNvNtNtNtCs532nfEa3ofR_9open_lark4core10req_option5testss_38test_request_option_builder_add_header
FNDA:1,_RNvNtNtNtCs532nfEa3ofR_9open_lark4core10req_option5testss_38test_request_option_builder_app_ticket
FNDA:1,_RNvNtNtNtCs532nfEa3ofR_9open_lark4core10req_option5testss_38test_request_option_builder_request_id
FNDA:1,_RNvNtNtNtCs532nfEa3ofR_9open_lark4core10req_option5testss_38test_request_option_builder_tenant_key
FNDA:1,_RNvNtNtNtCs532nfEa3ofR_9open_lark4core10req_option5testss_39test_request_option_builder_file_upload
FNDA:1,_RNvNtNtNtCs532nfEa3ofR_9open_lark4core10req_option5testss_41test_request_option_builder_empty_strings
FNDA:1,_RNvNtNtNtCs532nfEa3ofR_9open_lark4core10req_option5testss_41test_request_option_builder_file_download
FNDA:1,_RNvNtNtNtCs532nfEa3ofR_9open_lark4core10req_option5testss_44test_request_option_builder_app_access_token
FNDA:1,_RNvNtNtNtCs532nfEa3ofR_9open_lark4core10req_option5testss_44test_request_option_builder_empty_header_map
FNDA:1,_RNvNtNtNtCs532nfEa3ofR_9open_lark4core10req_option5testss_44test_request_option_builder_overwrite_header
FNDA:1,_RNvNtNtNtCs532nfEa3ofR_9open_lark4core10req_option5testss_45test_request_option_builder_user_access_token
FNDA:1,_RNvNtNtNtCs532nfEa3ofR_9open_lark4core10req_option5testss_46test_request_option_builder_need_helpdesk_auth
FNDA:1,_RNvNtNtNtCs532nfEa3ofR_9open_lark4core10req_option5testss_46test_request_option_builder_special_characters
FNDA:1,_RNvNtNtNtCs532nfEa3ofR_9open_lark4core10req_option5testss_47test_request_option_builder_add_header_multiple
FNDA:1,_RNvNtNtNtCs532nfEa3ofR_9open_lark4core10req_option5testss_47test_request_option_builder_tenant_access_token
FNDA:1,_RNvNtNtNtCs532nfEa3ofR_9open_lark4core10req_option5testss_49test_request_option_builder_header_and_add_header
FNF:35
FNH:35
DA:20,31
DA:21,31
DA:22,31
DA:31,7
DA:32,7
DA:33,7
DA:34,7
DA:36,6
DA:37,6
DA:38,6
DA:39,6
DA:41,4
DA:42,4
DA:43,4
DA:44,4
DA:46,4
DA:47,4
DA:48,4
DA:49,4
DA:51,4
DA:52,4
DA:53,4
DA:54,4
DA:56,6
DA:57,6
DA:58,6
DA:59,6
DA:61,4
DA:62,4
DA:63,4
DA:64,4
DA:66,3
DA:67,3
DA:68,3
DA:69,3
DA:71,3
DA:72,3
DA:73,3
DA:74,3
DA:76,4
DA:77,4
DA:78,4
DA:79,4
DA:82,11
DA:83,11
DA:84,11
DA:85,11
DA:86,11
DA:87,11
DA:89,32
DA:90,32
DA:91,32
DA:100,1
DA:101,1
DA:102,1
DA:103,1
DA:104,1
DA:105,1
DA:106,1
DA:107,1
DA:108,1
DA:109,1
DA:110,1
DA:111,1
DA:112,1
DA:115,1
DA:116,1
DA:117,1
DA:120,1
DA:121,1
DA:122,1
DA:123,1
DA:124,1
DA:125,1
DA:126,1
DA:127,1
DA:128,1
DA:129,1
DA:130,1
DA:133,1
DA:134,1
DA:136,1
DA:139,1
DA:140,1
DA:141,1
DA:143,1
DA:144,1
DA:147,1
DA:148,1
DA:149,1
DA:150,1
DA:152,1
DA:155,1
DA:156,1
DA:157,1
DA:159,1
DA:160,1
DA:163,1
DA:164,1
DA:165,1
DA:166,1
DA:168,1
DA:171,1
DA:172,1
DA:173,1
DA:175,1
DA:176,1
DA:179,1
DA:180,1
DA:181,1
DA:182,1
DA:184,1
DA:187,1
DA:188,1
DA:189,1
DA:191,1
DA:192,1
DA:195,1
DA:196,1
DA:198,1
DA:200,1
DA:202,1
DA:203,1
DA:206,1
DA:207,1
DA:209,1
DA:212,1
DA:213,1
DA:214,1
DA:216,1
DA:217,1
DA:220,1
DA:221,1
DA:223,1
DA:226,1
DA:227,1
DA:228,1
DA:230,1
DA:231,1
DA:234,1
DA:235,1
DA:237,1
DA:239,1
DA:241,1
DA:242,1
DA:245,1
DA:246,1
DA:248,1
DA:250,1
DA:252,1
DA:253,1
DA:256,1
DA:257,1
DA:258,1
DA:259,1
DA:261,1
DA:263,1
DA:264,1
DA:265,1
DA:266,1
DA:268,1
DA:269,1
DA:270,1
DA:272,1
DA:275,1
DA:276,1
DA:277,1
DA:278,1
DA:279,1
DA:281,1
DA:282,1
DA:283,1
DA:284,1
DA:286,1
DA:287,1
DA:288,1
DA:292,1
DA:293,1
DA:294,1
DA:296,1
DA:297,1
DA:298,1
DA:299,1
DA:301,1
DA:304,1
DA:305,1
DA:306,1
DA:307,1
DA:308,1
DA:309,1
DA:311,1
DA:312,1
DA:313,1
DA:314,1
DA:315,1
DA:318,1
DA:319,1
DA:320,1
DA:322,1
DA:323,1
DA:324,1
DA:325,1
DA:327,1
DA:328,1
DA:329,1
DA:330,1
DA:332,1
DA:333,1
DA:334,1
DA:336,1
DA:339,1
DA:340,1
DA:341,1
DA:342,1
DA:343,1
DA:344,1
DA:345,1
DA:346,1
DA:347,1
DA:348,1
DA:349,1
DA:350,1
DA:351,1
DA:353,1
DA:354,1
DA:355,1
DA:356,1
DA:357,1
DA:358,1
DA:359,1
DA:360,1
DA:361,1
DA:362,1
DA:363,1
DA:364,1
DA:367,1
DA:368,1
DA:369,1
DA:370,1
DA:371,1
DA:372,1
DA:373,1
DA:374,1
DA:375,1
DA:377,1
DA:378,1
DA:379,1
DA:380,1
DA:381,1
DA:382,1
DA:383,1
DA:386,1
DA:387,1
DA:388,1
DA:389,1
DA:390,1
DA:391,1
DA:392,1
DA:394,1
DA:395,1
DA:396,1
DA:397,1
DA:398,1
DA:399,1
DA:401,1
DA:404,1
DA:405,1
DA:406,1
DA:408,1
DA:409,1
DA:410,1
DA:411,1
DA:413,1
DA:414,1
DA:415,1
DA:416,1
DA:418,1
DA:421,1
DA:422,1
DA:424,1
DA:426,1
DA:427,1
DA:430,1
DA:431,1
DA:432,1
DA:433,1
DA:434,1
DA:437,1
DA:438,1
DA:441,1
DA:442,1
DA:443,1
DA:444,1
DA:447,1
DA:448,1
DA:449,1
DA:452,1
DA:454,1
DA:455,1
DA:456,1
DA:457,1
DA:461,1
DA:462,1
DA:463,1
DA:464,1
DA:465,1
DA:466,1
DA:467,1
BRF:0
BRH:0
LF:308
LH:308
end_of_record
SF:/Users/zool/RustroverProjects/open-lark/src/core/req_translator.rs
FN:13,_RNvMNtNtCs532nfEa3ofR_9open_lark4core14req_translatorNtB2_13ReqTranslator9translate
FN:139,_RINvNvNtNtNtCs532nfEa3ofR_9open_lark4core14req_translator5testss_32test_req_translator_is_send_sync11assert_sendNtB6_13ReqTranslatorEBa_
FN:140,_RINvNvNtNtNtCs532nfEa3ofR_9open_lark4core14req_translator5testss_32test_req_translator_is_send_sync11assert_syncNtB6_13ReqTranslatorEBa_
FN:37,_RNCNvNtNtNtCs532nfEa3ofR_9open_lark4core14req_translator5testss_40test_req_translator_translate_delegation0B9_
FN:147,_RNCNvNtNtNtCs532nfEa3ofR_9open_lark4core14req_translator5testss_40test_req_translator_with_marketplace_app0B9_
FN:66,_RNCNvNtNtNtCs532nfEa3ofR_9open_lark4core14req_translator5testss_46test_req_translator_with_different_token_types0B9_
FN:102,_RNCNvNtNtNtCs532nfEa3ofR_9open_lark4core14req_translator5testss_48test_req_translator_with_various_request_methods0B9_
FN:137,_RNvNtNtNtCs532nfEa3ofR_9open_lark4core14req_translator5testss_32test_req_translator_is_send_sync
FN:31,_RNvNtNtNtCs532nfEa3ofR_9open_lark4core14req_translator5testss_35test_req_translator_struct_creation
FN:37,_RNvNtNtNtCs532nfEa3ofR_9open_lark4core14req_translator5testss_40test_req_translator_translate_delegation
FN:147,_RNvNtNtNtCs532nfEa3ofR_9open_lark4core14req_translator5testss_40test_req_translator_with_marketplace_app
FN:66,_RNvNtNtNtCs532nfEa3ofR_9open_lark4core14req_translator5testss_46test_req_translator_with_different_token_types
FN:102,_RNvNtNtNtCs532nfEa3ofR_9open_lark4core14req_translator5testss_48test_req_translator_with_various_request_methods
FNDA:11,_RNvMNtNtCs532nfEa3ofR_9open_lark4core14req_translatorNtB2_13ReqTranslator9translate
FNDA:1,_RINvNvNtNtNtCs532nfEa3ofR_9open_lark4core14req_translator5testss_32test_req_translator_is_send_sync11assert_sendNtB6_13ReqTranslatorEBa_
FNDA:1,_RINvNvNtNtNtCs532nfEa3ofR_9open_lark4core14req_translator5testss_32test_req_translator_is_send_sync11assert_syncNtB6_13ReqTranslatorEBa_
FNDA:1,_RNCNvNtNtNtCs532nfEa3ofR_9open_lark4core14req_translator5testss_40test_req_translator_translate_delegation0B9_
FNDA:1,_RNCNvNtNtNtCs532nfEa3ofR_9open_lark4core14req_translator5testss_40test_req_translator_with_marketplace_app0B9_
FNDA:1,_RNCNvNtNtNtCs532nfEa3ofR_9open_lark4core14req_translator5testss_46test_req_translator_with_different_token_types0B9_
FNDA:1,_RNCNvNtNtNtCs532nfEa3ofR_9open_lark4core14req_translator5testss_48test_req_translator_with_various_request_methods0B9_
FNDA:1,_RNvNtNtNtCs532nfEa3ofR_9open_lark4core14req_translator5testss_32test_req_translator_is_send_sync
FNDA:1,_RNvNtNtNtCs532nfEa3ofR_9open_lark4core14req_translator5testss_35test_req_translator_struct_creation
FNDA:1,_RNvNtNtNtCs532nfEa3ofR_9open_lark4core14req_translator5testss_40test_req_translator_translate_delegation
FNDA:1,_RNvNtNtNtCs532nfEa3ofR_9open_lark4core14req_translator5testss_40test_req_translator_with_marketplace_app
FNDA:1,_RNvNtNtNtCs532nfEa3ofR_9open_lark4core14req_translator5testss_46test_req_translator_with_different_token_types
FNDA:1,_RNvNtNtNtCs532nfEa3ofR_9open_lark4core14req_translator5testss_48test_req_translator_with_various_request_methods
FNF:13
FNH:13
DA:13,11
DA:14,11
DA:15,11
DA:16,11
DA:17,11
DA:18,11
DA:20,11
DA:21,11
DA:31,1
DA:33,1
DA:34,1
DA:37,1
DA:39,1
DA:40,1
DA:41,1
DA:42,1
DA:43,1
DA:45,1
DA:46,1
DA:47,1
DA:48,1
DA:49,1
DA:50,1
DA:52,1
DA:56,1
DA:57,1
DA:62,1
DA:63,1
DA:66,1
DA:67,1
DA:68,1
DA:69,1
DA:70,1
DA:71,1
DA:72,1
DA:74,1
DA:75,1
DA:76,1
DA:77,1
DA:78,1
DA:79,1
DA:81,1
DA:84,1
DA:85,1
DA:86,1
DA:87,1
DA:88,1
DA:89,1
DA:91,4
DA:92,4
DA:93,4
DA:94,1
DA:95,1
DA:96,1
DA:97,4
DA:98,1
DA:99,1
DA:102,1
DA:103,1
DA:104,1
DA:105,1
DA:106,1
DA:107,1
DA:108,1
DA:110,1
DA:112,1
DA:113,1
DA:114,1
DA:115,1
DA:116,1
DA:117,1
DA:118,1
DA:120,5
DA:121,5
DA:122,5
DA:123,5
DA:124,5
DA:125,5
DA:126,1
DA:127,5
DA:128,5
DA:129,5
DA:130,1
DA:131,1
DA:132,5
DA:133,1
DA:134,1
DA:137,1
DA:139,1
DA:140,1
DA:142,1
DA:143,1
DA:144,1
DA:147,1
DA:148,1
DA:149,1
DA:150,1
DA:151,1
DA:152,1
DA:154,1
DA:155,1
DA:156,1
DA:157,1
DA:158,1
DA:159,1
DA:161,1
DA:162,1
DA:163,1
DA:164,1
DA:166,1
DA:167,1
DA:170,1
DA:171,1
BRF:0
BRH:0
LF:133
LH:133
end_of_record
SF:/Users/zool/RustroverProjects/open-lark/src/core/request_builder/auth_handler.rs
FN:295,_RINvNvNtNtNtNtCs532nfEa3ofR_9open_lark4core15request_builder12auth_handler5testss_39test_auth_handler_trait_implementations11assert_sendNtB6_11AuthHandlerEBc_
FN:296,_RINvNvNtNtNtNtCs532nfEa3ofR_9open_lark4core15request_builder12auth_handler5testss_39test_auth_handler_trait_implementations11assert_syncNtB6_11AuthHandlerEBc_
FN:228,_RNCNvNtNtNtNtCs532nfEa3ofR_9open_lark4core15request_builder12auth_handler5testss_25test_apply_auth_all_types0Bb_
FN:107,_RNCNvNtNtNtNtCs532nfEa3ofR_9open_lark4core15request_builder12auth_handler5testss_25test_apply_auth_none_type0Bb_
FN:119,_RNCNvNtNtNtNtCs532nfEa3ofR_9open_lark4core15request_builder12auth_handler5testss_25test_apply_auth_user_type0Bb_
FN:276,_RNCNvNtNtNtNtCs532nfEa3ofR_9open_lark4core15request_builder12auth_handler5testss_34test_apply_auth_with_cache_enabled0Bb_
FN:147,_RNCNvNtNtNtNtCs532nfEa3ofR_9open_lark4core15request_builder12auth_handler5testss_37test_apply_app_auth_no_cache_no_token0Bb_
FN:134,_RNCNvNtNtNtNtCs532nfEa3ofR_9open_lark4core15request_builder12auth_handler5testss_40test_apply_app_auth_with_token_in_option0Bb_
FN:175,_RNCNvNtNtNtNtCs532nfEa3ofR_9open_lark4core15request_builder12auth_handler5testss_40test_apply_tenant_auth_no_cache_no_token0Bb_
FN:162,_RNCNvNtNtNtNtCs532nfEa3ofR_9open_lark4core15request_builder12auth_handler5testss_43test_apply_tenant_auth_with_token_in_option0Bb_
FN:87,_RNvNtNtNtNtCs532nfEa3ofR_9open_lark4core15request_builder12auth_handler5tests18create_test_config
FN:97,_RNvNtNtNtNtCs532nfEa3ofR_9open_lark4core15request_builder12auth_handler5tests27create_test_request_builder
FN:190,_RNvNtNtNtNtCs532nfEa3ofR_9open_lark4core15request_builder12auth_handler5testss_20test_apply_user_auth
FN:228,_RNvNtNtNtNtCs532nfEa3ofR_9open_lark4core15request_builder12auth_handler5testss_25test_apply_auth_all_types
FN:107,_RNvNtNtNtNtCs532nfEa3ofR_9open_lark4core15request_builder12auth_handler5testss_25test_apply_auth_none_type
FN:119,_RNvNtNtNtNtCs532nfEa3ofR_9open_lark4core15request_builder12auth_handler5testss_25test_apply_auth_user_type
FN:303,_RNvNtNtNtNtCs532nfEa3ofR_9open_lark4core15request_builder12auth_handler5testss_27test_add_auth_header_format
FN:205,_RNvNtNtNtNtCs532nfEa3ofR_9open_lark4core15request_builder12auth_handler5testss_31test_add_auth_header_with_token
FN:102,_RNvNtNtNtNtCs532nfEa3ofR_9open_lark4core15request_builder12auth_handler5testss_33test_auth_handler_struct_creation
FN:276,_RNvNtNtNtNtCs532nfEa3ofR_9open_lark4core15request_builder12auth_handler5testss_34test_apply_auth_with_cache_enabled
FN:217,_RNvNtNtNtNtCs532nfEa3ofR_9open_lark4core15request_builder12auth_handler5testss_37test_add_auth_header_with_empty_token
FN:147,_RNvNtNtNtNtCs532nfEa3ofR_9open_lark4core15request_builder12auth_handler5testss_37test_apply_app_auth_no_cache_no_token
FN:293,_RNvNtNtNtNtCs532nfEa3ofR_9open_lark4core15request_builder12auth_handler5testss_39test_auth_handler_trait_implementations
FN:134,_RNvNtNtNtNtCs532nfEa3ofR_9open_lark4core15request_builder12auth_handler5testss_40test_apply_app_auth_with_token_in_option
FN:175,_RNvNtNtNtNtCs532nfEa3ofR_9open_lark4core15request_builder12auth_handler5testss_40test_apply_tenant_auth_no_cache_no_token
FN:162,_RNvNtNtNtNtCs532nfEa3ofR_9open_lark4core15request_builder12auth_handler5testss_43test_apply_tenant_auth_with_token_in_option
FN:16,_RNCNvMNtNtNtCs532nfEa3ofR_9open_lark4core15request_builder12auth_handlerNtB4_11AuthHandler10apply_auth0Ba_
FN:30,_RNCNvMNtNtNtCs532nfEa3ofR_9open_lark4core15request_builder12auth_handlerNtB4_11AuthHandler14apply_app_auth0Ba_
FN:50,_RNCNvMNtNtNtCs532nfEa3ofR_9open_lark4core15request_builder12auth_handlerNtB4_11AuthHandler17apply_tenant_auth0Ba_
FN:11,_RNvMNtNtNtCs532nfEa3ofR_9open_lark4core15request_builder12auth_handlerNtB2_11AuthHandler10apply_auth
FN:26,_RNvMNtNtNtCs532nfEa3ofR_9open_lark4core15request_builder12auth_handlerNtB2_11AuthHandler14apply_app_auth
FN:76,_RNvMNtNtNtCs532nfEa3ofR_9open_lark4core15request_builder12auth_handlerNtB2_11AuthHandler15add_auth_header
FN:71,_RNvMNtNtNtCs532nfEa3ofR_9open_lark4core15request_builder12auth_handlerNtB2_11AuthHandler15apply_user_auth
FN:46,_RNvMNtNtNtCs532nfEa3ofR_9open_lark4core15request_builder12auth_handlerNtB2_11AuthHandler17apply_tenant_auth
FNDA:1,_RINvNvNtNtNtNtCs532nfEa3ofR_9open_lark4core15request_builder12auth_handler5testss_39test_auth_handler_trait_implementations11assert_sendNtB6_11AuthHandlerEBc_
FNDA:1,_RINvNvNtNtNtNtCs532nfEa3ofR_9open_lark4core15request_builder12auth_handler5testss_39test_auth_handler_trait_implementations11assert_syncNtB6_11AuthHandlerEBc_
FNDA:1,_RNCNvNtNtNtNtCs532nfEa3ofR_9open_lark4core15request_builder12auth_handler5testss_25test_apply_auth_all_types0Bb_
FNDA:1,_RNCNvNtNtNtNtCs532nfEa3ofR_9open_lark4core15request_builder12auth_handler5testss_25test_apply_auth_none_type0Bb_
FNDA:1,_RNCNvNtNtNtNtCs532nfEa3ofR_9open_lark4core15request_builder12auth_handler5testss_25test_apply_auth_user_type0Bb_
FNDA:1,_RNCNvNtNtNtNtCs532nfEa3ofR_9open_lark4core15request_builder12auth_handler5testss_34test_apply_auth_with_cache_enabled0Bb_
FNDA:1,_RNCNvNtNtNtNtCs532nfEa3ofR_9open_lark4core15request_builder12auth_handler5testss_37test_apply_app_auth_no_cache_no_token0Bb_
FNDA:1,_RNCNvNtNtNtNtCs532nfEa3ofR_9open_lark4core15request_builder12auth_handler5testss_40test_apply_app_auth_with_token_in_option0Bb_
FNDA:1,_RNCNvNtNtNtNtCs532nfEa3ofR_9open_lark4core15request_builder12auth_handler5testss_40test_apply_tenant_auth_no_cache_no_token0Bb_
FNDA:1,_RNCNvNtNtNtNtCs532nfEa3ofR_9open_lark4core15request_builder12auth_handler5testss_43test_apply_tenant_auth_with_token_in_option0Bb_
FNDA:8,_RNvNtNtNtNtCs532nfEa3ofR_9open_lark4core15request_builder12auth_handler5tests18create_test_config
FNDA:15,_RNvNtNtNtNtCs532nfEa3ofR_9open_lark4core15request_builder12auth_handler5tests27create_test_request_builder
FNDA:1,_RNvNtNtNtNtCs532nfEa3ofR_9open_lark4core15request_builder12auth_handler5testss_20test_apply_user_auth
FNDA:1,_RNvNtNtNtNtCs532nfEa3ofR_9open_lark4core15request_builder12auth_handler5testss_25test_apply_auth_all_types
FNDA:1,_RNvNtNtNtNtCs532nfEa3ofR_9open_lark4core15request_builder12auth_handler5testss_25test_apply_auth_none_type
FNDA:1,_RNvNtNtNtNtCs532nfEa3ofR_9open_lark4core15request_builder12auth_handler5testss_25test_apply_auth_user_type
FNDA:1,_RNvNtNtNtNtCs532nfEa3ofR_9open_lark4core15request_builder12auth_handler5testss_27test_add_auth_header_format
FNDA:1,_RNvNtNtNtNtCs532nfEa3ofR_9open_lark4core15request_builder12auth_handler5testss_31test_add_auth_header_with_token
FNDA:1,_RNvNtNtNtNtCs532nfEa3ofR_9open_lark4core15request_builder12auth_handler5testss_33test_auth_handler_struct_creation
FNDA:1,_RNvNtNtNtNtCs532nfEa3ofR_9open_lark4core15request_builder12auth_handler5testss_34test_apply_auth_with_cache_enabled
FNDA:1,_RNvNtNtNtNtCs532nfEa3ofR_9open_lark4core15request_builder12auth_handler5testss_37test_add_auth_header_with_empty_token
FNDA:1,_RNvNtNtNtNtCs532nfEa3ofR_9open_lark4core15request_builder12auth_handler5testss_37test_apply_app_auth_no_cache_no_token
FNDA:1,_RNvNtNtNtNtCs532nfEa3ofR_9open_lark4core15request_builder12auth_handler5testss_39test_auth_handler_trait_implementations
FNDA:1,_RNvNtNtNtNtCs532nfEa3ofR_9open_lark4core15request_builder12auth_handler5testss_40test_apply_app_auth_with_token_in_option
FNDA:1,_RNvNtNtNtNtCs532nfEa3ofR_9open_lark4core15request_builder12auth_handler5testss_40test_apply_tenant_auth_no_cache_no_token
FNDA:1,_RNvNtNtNtNtCs532nfEa3ofR_9open_lark4core15request_builder12auth_handler5testss_43test_apply_tenant_auth_with_token_in_option
FNDA:33,_RNCNvMNtNtNtCs532nfEa3ofR_9open_lark4core15request_builder12auth_handlerNtB4_11AuthHandler10apply_auth0Ba_
FNDA:13,_RNCNvMNtNtNtCs532nfEa3ofR_9open_lark4core15request_builder12auth_handlerNtB4_11AuthHandler14apply_app_auth0Ba_
FNDA:6,_RNCNvMNtNtNtCs532nfEa3ofR_9open_lark4core15request_builder12auth_handlerNtB4_11AuthHandler17apply_tenant_auth0Ba_
FNDA:33,_RNvMNtNtNtCs532nfEa3ofR_9open_lark4core15request_builder12auth_handlerNtB2_11AuthHandler10apply_auth
FNDA:13,_RNvMNtNtNtCs532nfEa3ofR_9open_lark4core15request_builder12auth_handlerNtB2_11AuthHandler14apply_app_auth
FNDA:15,_RNvMNtNtNtCs532nfEa3ofR_9open_lark4core15request_builder12auth_handlerNtB2_11AuthHandler15add_auth_header
FNDA:5,_RNvMNtNtNtCs532nfEa3ofR_9open_lark4core15request_builder12auth_handlerNtB2_11AuthHandler15apply_user_auth
FNDA:6,_RNvMNtNtNtCs532nfEa3ofR_9open_lark4core15request_builder12auth_handlerNtB2_11AuthHandler17apply_tenant_auth
FNF:34
FNH:34
DA:11,33
DA:12,33
DA:13,33
DA:14,33
DA:15,33
DA:16,33
DA:17,33
DA:18,14
DA:19,11
DA:20,4
DA:21,4
DA:23,33
DA:26,13
DA:27,13
DA:28,13
DA:29,13
DA:30,13
DA:31,13
DA:32,4
DA:33,9
DA:34,8
DA:35,8
DA:36,8
DA:37,8
DA:39,1
DA:42,4
DA:43,13
DA:46,6
DA:47,6
DA:48,6
DA:49,6
DA:50,6
DA:51,6
DA:52,3
DA:53,3
DA:54,2
DA:55,2
DA:56,2
DA:57,2
DA:58,2
DA:59,2
DA:60,2
DA:61,2
DA:62,2
DA:64,1
DA:67,3
DA:68,6
DA:71,5
DA:72,5
DA:73,5
DA:76,15
DA:77,15
DA:78,15
DA:87,8
DA:88,8
DA:89,8
DA:90,8
DA:91,8
DA:92,8
DA:93,8
DA:94,8
DA:95,8
DA:97,15
DA:98,15
DA:99,15
DA:102,1
DA:103,1
DA:104,1
DA:107,1
DA:108,1
DA:109,1
DA:110,1
DA:112,1
DA:113,1
DA:115,1
DA:116,1
DA:119,1
DA:120,1
DA:121,1
DA:122,1
DA:123,1
DA:124,1
DA:125,1
DA:127,1
DA:128,1
DA:130,1
DA:131,1
DA:134,1
DA:135,1
DA:136,1
DA:137,1
DA:138,1
DA:139,1
DA:140,1
DA:142,1
DA:143,1
DA:144,1
DA:147,1
DA:148,1
DA:149,1
DA:150,1
DA:152,1
DA:153,1
DA:155,1
DA:156,1
DA:157,1
DA:158,1
DA:159,1
DA:162,1
DA:163,1
DA:164,1
DA:165,1
DA:166,1
DA:167,1
DA:168,1
DA:170,1
DA:171,1
DA:172,1
DA:175,1
DA:176,1
DA:177,1
DA:178,1
DA:180,1
DA:181,1
DA:183,1
DA:184,1
DA:185,1
DA:186,1
DA:187,1
DA:190,1
DA:191,1
DA:192,1
DA:193,1
DA:194,1
DA:195,1
DA:197,1
DA:201,1
DA:202,1
DA:205,1
DA:206,1
DA:207,1
DA:209,1
DA:213,1
DA:214,1
DA:217,1
DA:218,1
DA:219,1
DA:221,1
DA:224,1
DA:225,1
DA:228,1
DA:229,1
DA:231,1
DA:232,1
DA:233,1
DA:234,1
DA:235,1
DA:236,1
DA:237,1
DA:238,1
DA:239,1
DA:240,1
DA:241,1
DA:242,1
DA:243,1
DA:244,1
DA:245,1
DA:246,1
DA:247,1
DA:248,1
DA:249,1
DA:250,1
DA:251,1
DA:252,1
DA:253,1
DA:256,5
DA:257,4
DA:258,1
DA:259,4
DA:260,1
DA:261,1
DA:262,1
DA:263,4
DA:264,1
DA:265,2
DA:266,1
DA:267,1
DA:268,1
DA:269,2
DA:270,1
DA:271,1
DA:272,1
DA:273,1
DA:276,1
DA:277,1
DA:278,1
DA:280,1
DA:281,1
DA:285,1
DA:286,1
DA:289,1
DA:290,1
DA:293,1
DA:295,1
DA:296,1
DA:298,1
DA:299,1
DA:300,1
DA:303,1
DA:304,1
DA:305,1
DA:307,1
DA:312,1
BRF:0
BRH:0
LF:241
LH:239
end_of_record
SF:/Users/zool/RustroverProjects/open-lark/src/core/request_builder/header_builder.rs
FN:244,_RINvNvNtNtNtNtCs532nfEa3ofR_9open_lark4core15request_builder14header_builder5testss_32test_header_builder_is_send_sync11assert_sendNtB6_13HeaderBuilderEBc_
FN:245,_RINvNvNtNtNtNtCs532nfEa3ofR_9open_lark4core15request_builder14header_builder5testss_32test_header_builder_is_send_sync11assert_syncNtB6_13HeaderBuilderEBc_
FN:41,_RNvMNtNtNtCs532nfEa3ofR_9open_lark4core15request_builder14header_builderNtB2_13HeaderBuilder10add_header
FN:46,_RNvMNtNtNtCs532nfEa3ofR_9open_lark4core15request_builder14header_builderNtB2_13HeaderBuilder11add_headers
FN:14,_RNvMNtNtNtCs532nfEa3ofR_9open_lark4core15request_builder14header_builderNtB2_13HeaderBuilder13build_headers
FN:64,_RNvNtNtNtNtCs532nfEa3ofR_9open_lark4core15request_builder14header_builder5tests18create_test_config
FN:84,_RNvNtNtNtNtCs532nfEa3ofR_9open_lark4core15request_builder14header_builder5tests26create_test_request_option
FN:98,_RNvNtNtNtNtCs532nfEa3ofR_9open_lark4core15request_builder14header_builder5tests27create_test_request_builder
FN:179,_RNvNtNtNtNtCs532nfEa3ofR_9open_lark4core15request_builder14header_builder5testss_15test_add_header
FN:212,_RNvNtNtNtNtCs532nfEa3ofR_9open_lark4core15request_builder14header_builder5testss_25test_add_headers_multiple
FN:201,_RNvNtNtNtNtCs532nfEa3ofR_9open_lark4core15request_builder14header_builder5testss_27test_add_headers_empty_list
FN:227,_RNvNtNtNtNtCs532nfEa3ofR_9open_lark4core15request_builder14header_builder5testss_31test_add_headers_duplicate_keys
FN:242,_RNvNtNtNtNtCs532nfEa3ofR_9open_lark4core15request_builder14header_builder5testss_32test_header_builder_is_send_sync
FN:191,_RNvNtNtNtNtCs532nfEa3ofR_9open_lark4core15request_builder14header_builder5testss_33test_add_header_with_empty_values
FN:108,_RNvNtNtNtNtCs532nfEa3ofR_9open_lark4core15request_builder14header_builder5testss_35test_build_headers_with_all_options
FN:103,_RNvNtNtNtNtCs532nfEa3ofR_9open_lark4core15request_builder14header_builder5testss_35test_header_builder_struct_creation
FN:160,_RNvNtNtNtNtCs532nfEa3ofR_9open_lark4core15request_builder14header_builder5testss_36test_build_headers_header_precedence
FN:133,_RNvNtNtNtNtCs532nfEa3ofR_9open_lark4core15request_builder14header_builder5testss_37test_build_headers_with_empty_headers
FN:120,_RNvNtNtNtNtCs532nfEa3ofR_9open_lark4core15request_builder14header_builder5testss_40test_build_headers_with_empty_request_id
FN:148,_RNvNtNtNtNtCs532nfEa3ofR_9open_lark4core15request_builder14header_builder5testss_42test_build_headers_user_agent_always_added
FN:274,_RNvNtNtNtNtCs532nfEa3ofR_9open_lark4core15request_builder14header_builder5testss_42test_build_headers_with_special_characters
FN:252,_RNvNtNtNtNtCs532nfEa3ofR_9open_lark4core15request_builder14header_builder5testss_47test_build_headers_with_large_number_of_headers
FN:295,_RNvNtNtNtNtCs532nfEa3ofR_9open_lark4core15request_builder14header_builder5testss_49test_build_headers_preserves_request_builder_type
FNDA:1,_RINvNvNtNtNtNtCs532nfEa3ofR_9open_lark4core15request_builder14header_builder5testss_32test_header_builder_is_send_sync11assert_sendNtB6_13HeaderBuilderEBc_
FNDA:1,_RINvNvNtNtNtNtCs532nfEa3ofR_9open_lark4core15request_builder14header_builder5testss_32test_header_builder_is_send_sync11assert_syncNtB6_13HeaderBuilderEBc_
FNDA:2,_RNvMNtNtNtCs532nfEa3ofR_9open_lark4core15request_builder14header_builderNtB2_13HeaderBuilder10add_header
FNDA:3,_RNvMNtNtNtCs532nfEa3ofR_9open_lark4core15request_builder14header_builderNtB2_13HeaderBuilder11add_headers
FNDA:34,_RNvMNtNtNtCs532nfEa3ofR_9open_lark4core15request_builder14header_builderNtB2_13HeaderBuilder13build_headers
FNDA:7,_RNvNtNtNtNtCs532nfEa3ofR_9open_lark4core15request_builder14header_builder5tests18create_test_config
FNDA:7,_RNvNtNtNtNtCs532nfEa3ofR_9open_lark4core15request_builder14header_builder5tests26create_test_request_option
FNDA:13,_RNvNtNtNtNtCs532nfEa3ofR_9open_lark4core15request_builder14header_builder5tests27create_test_request_builder
FNDA:1,_RNvNtNtNtNtCs532nfEa3ofR_9open_lark4core15request_builder14header_builder5testss_15test_add_header
FNDA:1,_RNvNtNtNtNtCs532nfEa3ofR_9open_lark4core15request_builder14header_builder5testss_25test_add_headers_multiple
FNDA:1,_RNvNtNtNtNtCs532nfEa3ofR_9open_lark4core15request_builder14header_builder5testss_27test_add_headers_empty_list
FNDA:1,_RNvNtNtNtNtCs532nfEa3ofR_9open_lark4core15request_builder14header_builder5testss_31test_add_headers_duplicate_keys
FNDA:1,_RNvNtNtNtNtCs532nfEa3ofR_9open_lark4core15request_builder14header_builder5testss_32test_header_builder_is_send_sync
FNDA:1,_RNvNtNtNtNtCs532nfEa3ofR_9open_lark4core15request_builder14header_builder5testss_33test_add_header_with_empty_values
FNDA:1,_RNvNtNtNtNtCs532nfEa3ofR_9open_lark4core15request_builder14header_builder5testss_35test_build_headers_with_all_options
FNDA:1,_RNvNtNtNtNtCs532nfEa3ofR_9open_lark4core15request_builder14header_builder5testss_35test_header_builder_struct_creation
FNDA:1,_RNvNtNtNtNtCs532nfEa3ofR_9open_lark4core15request_builder14header_builder5testss_36test_build_headers_header_precedence
FNDA:1,_RNvNtNtNtNtCs532nfEa3ofR_9open_lark4core15request_builder14header_builder5testss_37test_build_headers_with_empty_headers
FNDA:1,_RNvNtNtNtNtCs532nfEa3ofR_9open_lark4core15request_builder14header_builder5testss_40test_build_headers_with_empty_request_id
FNDA:1,_RNvNtNtNtNtCs532nfEa3ofR_9open_lark4core15request_builder14header_builder5testss_42test_build_headers_user_agent_always_added
FNDA:1,_RNvNtNtNtNtCs532nfEa3ofR_9open_lark4core15request_builder14header_builder5testss_42test_build_headers_with_special_characters
FNDA:1,_RNvNtNtNtNtCs532nfEa3ofR_9open_lark4core15request_builder14header_builder5testss_47test_build_headers_with_large_number_of_headers
FNDA:1,_RNvNtNtNtNtCs532nfEa3ofR_9open_lark4core15request_builder14header_builder5testss_49test_build_headers_preserves_request_builder_type
FNF:23
FNH:23
DA:14,34
DA:15,34
DA:16,34
DA:17,34
DA:18,34
DA:20,34
DA:21,8
DA:22,26
DA:25,99
DA:26,65
DA:27,65
DA:30,98
DA:31,64
DA:32,64
DA:35,34
DA:37,34
DA:38,34
DA:41,2
DA:42,2
DA:43,2
DA:46,3
DA:47,3
DA:48,3
DA:49,3
DA:50,9
DA:51,6
DA:52,6
DA:53,3
DA:54,3
DA:64,7
DA:65,7
DA:66,7
DA:67,7
DA:68,7
DA:69,7
DA:70,7
DA:71,7
DA:74,7
DA:75,7
DA:76,7
DA:77,7
DA:78,7
DA:79,7
DA:81,7
DA:82,7
DA:84,7
DA:85,7
DA:86,7
DA:87,7
DA:88,7
DA:89,7
DA:90,7
DA:91,7
DA:92,7
DA:93,7
DA:94,7
DA:95,7
DA:96,7
DA:98,13
DA:99,13
DA:100,13
DA:103,1
DA:104,1
DA:105,1
DA:108,1
DA:109,1
DA:110,1
DA:111,1
DA:113,1
DA:116,1
DA:117,1
DA:120,1
DA:121,1
DA:122,1
DA:123,1
DA:124,1
DA:126,1
DA:129,1
DA:130,1
DA:133,1
DA:134,1
DA:135,1
DA:136,1
DA:138,1
DA:139,1
DA:141,1
DA:144,1
DA:145,1
DA:148,1
DA:149,1
DA:150,1
DA:151,1
DA:153,1
DA:156,1
DA:157,1
DA:160,1
DA:161,1
DA:162,1
DA:163,1
DA:164,1
DA:165,1
DA:167,1
DA:168,1
DA:169,1
DA:170,1
DA:172,1
DA:175,1
DA:176,1
DA:179,1
DA:180,1
DA:181,1
DA:182,1
DA:184,1
DA:187,1
DA:188,1
DA:191,1
DA:192,1
DA:194,1
DA:197,1
DA:198,1
DA:201,1
DA:202,1
DA:203,1
DA:205,1
DA:208,1
DA:209,1
DA:212,1
DA:213,1
DA:214,1
DA:215,1
DA:216,1
DA:217,1
DA:218,1
DA:220,1
DA:223,1
DA:224,1
DA:227,1
DA:228,1
DA:229,1
DA:230,1
DA:231,1
DA:232,1
DA:233,1
DA:235,1
DA:238,1
DA:239,1
DA:242,1
DA:244,1
DA:245,1
DA:247,1
DA:248,1
DA:249,1
DA:252,1
DA:253,1
DA:254,1
DA:255,1
DA:258,51
DA:259,50
DA:260,50
DA:261,50
DA:262,50
DA:263,50
DA:264,50
DA:265,50
DA:267,1
DA:270,1
DA:271,1
DA:274,1
DA:275,1
DA:276,1
DA:277,1
DA:280,1
DA:281,1
DA:282,1
DA:284,1
DA:285,1
DA:286,1
DA:288,1
DA:291,1
DA:292,1
DA:295,1
DA:296,1
DA:297,1
DA:298,1
DA:300,1
DA:303,1
DA:304,1
DA:305,1
BRF:0
BRH:0
LF:188
LH:188
end_of_record
SF:/Users/zool/RustroverProjects/open-lark/src/core/request_builder/mod.rs
FN:26,_RNCNvMNtNtCs532nfEa3ofR_9open_lark4core15request_builderNtB4_21UnifiedRequestBuilder5build0B8_
FN:60,_RNCNvMNtNtCs532nfEa3ofR_9open_lark4core15request_builderNtB4_21UnifiedRequestBuilder9build_url0B8_
FN:363,_RINvNvNtNtNtCs532nfEa3ofR_9open_lark4core15request_builder5testss_41test_unified_request_builder_is_send_sync11assert_sendNtB6_21UnifiedRequestBuilderEBa_
FN:364,_RINvNvNtNtNtCs532nfEa3ofR_9open_lark4core15request_builder5testss_41test_unified_request_builder_is_send_sync11assert_syncNtB6_21UnifiedRequestBuilderEBa_
FN:100,_RNCNvNtNtNtCs532nfEa3ofR_9open_lark4core15request_builder5testss_24test_build_basic_request0B9_
FN:114,_RNCNvNtNtNtCs532nfEa3ofR_9open_lark4core15request_builder5testss_28test_build_request_with_body0B9_
FN:130,_RNCNvNtNtNtCs532nfEa3ofR_9open_lark4core15request_builder5testss_29test_build_request_with_files0B9_
FN:165,_RNCNvNtNtNtCs532nfEa3ofR_9open_lark4core15request_builder5testss_33test_build_request_with_app_token0B9_
FN:197,_RNCNvNtNtNtCs532nfEa3ofR_9open_lark4core15request_builder5testss_34test_build_request_with_user_token0B9_
FN:334,_RNCNvNtNtNtCs532nfEa3ofR_9open_lark4core15request_builder5testss_35test_build_request_complex_scenario0B9_
FN:213,_RNCNvNtNtNtCs532nfEa3ofR_9open_lark4core15request_builder5testss_36test_build_request_different_methods0B9_
FN:149,_RNCNvNtNtNtCs532nfEa3ofR_9open_lark4core15request_builder5testss_36test_build_request_with_query_params0B9_
FN:181,_RNCNvNtNtNtCs532nfEa3ofR_9open_lark4core15request_builder5testss_36test_build_request_with_tenant_token0B9_
FN:315,_RNCNvNtNtNtCs532nfEa3ofR_9open_lark4core15request_builder5testss_38test_build_request_with_custom_headers0B9_
FN:371,_RNCNvNtNtNtCs532nfEa3ofR_9open_lark4core15request_builder5testss_48test_build_request_with_body_and_files_edge_case0B9_
FN:20,_RNvMNtNtCs532nfEa3ofR_9open_lark4core15request_builderNtB2_21UnifiedRequestBuilder5build
FN:55,_RNvMNtNtCs532nfEa3ofR_9open_lark4core15request_builderNtB2_21UnifiedRequestBuilder9build_url
FN:73,_RNvNtNtNtCs532nfEa3ofR_9open_lark4core15request_builder5tests18create_test_config
FN:83,_RNvNtNtNtCs532nfEa3ofR_9open_lark4core15request_builder5tests23create_test_api_request
FN:238,_RNvNtNtNtCs532nfEa3ofR_9open_lark4core15request_builder5testss_20test_build_url_basic
FN:100,_RNvNtNtNtCs532nfEa3ofR_9open_lark4core15request_builder5testss_24test_build_basic_request
FN:114,_RNvNtNtNtCs532nfEa3ofR_9open_lark4core15request_builder5testss_28test_build_request_with_body
FN:130,_RNvNtNtNtCs532nfEa3ofR_9open_lark4core15request_builder5testss_29test_build_request_with_files
FN:303,_RNvNtNtNtCs532nfEa3ofR_9open_lark4core15request_builder5testss_31test_build_url_invalid_base_url
FN:253,_RNvNtNtNtCs532nfEa3ofR_9open_lark4core15request_builder5testss_32test_build_url_with_query_params
FN:165,_RNvNtNtNtCs532nfEa3ofR_9open_lark4core15request_builder5testss_33test_build_request_with_app_token
FN:391,_RNvNtNtNtCs532nfEa3ofR_9open_lark4core15request_builder5testss_33test_build_url_with_path_segments
FN:197,_RNvNtNtNtCs532nfEa3ofR_9open_lark4core15request_builder5testss_34test_build_request_with_user_token
FN:334,_RNvNtNtNtCs532nfEa3ofR_9open_lark4core15request_builder5testss_35test_build_request_complex_scenario
FN:213,_RNvNtNtNtCs532nfEa3ofR_9open_lark4core15request_builder5testss_36test_build_request_different_methods
FN:149,_RNvNtNtNtCs532nfEa3ofR_9open_lark4core15request_builder5testss_36test_build_request_with_query_params
FN:181,_RNvNtNtNtCs532nfEa3ofR_9open_lark4core15request_builder5testss_36test_build_request_with_tenant_token
FN:315,_RNvNtNtNtCs532nfEa3ofR_9open_lark4core15request_builder5testss_38test_build_request_with_custom_headers
FN:290,_RNvNtNtNtCs532nfEa3ofR_9open_lark4core15request_builder5testss_38test_build_url_with_empty_query_params
FN:270,_RNvNtNtNtCs532nfEa3ofR_9open_lark4core15request_builder5testss_38test_build_url_with_special_characters
FN:361,_RNvNtNtNtCs532nfEa3ofR_9open_lark4core15request_builder5testss_41test_unified_request_builder_is_send_sync
FN:95,_RNvNtNtNtCs532nfEa3ofR_9open_lark4core15request_builder5testss_44test_unified_request_builder_struct_creation
FN:371,_RNvNtNtNtCs532nfEa3ofR_9open_lark4core15request_builder5testss_48test_build_request_with_body_and_files_edge_case
FNDA:26,_RNCNvMNtNtCs532nfEa3ofR_9open_lark4core15request_builderNtB4_21UnifiedRequestBuilder5build0B8_
FNDA:9,_RNCNvMNtNtCs532nfEa3ofR_9open_lark4core15request_builderNtB4_21UnifiedRequestBuilder9build_url0B8_
FNDA:1,_RINvNvNtNtNtCs532nfEa3ofR_9open_lark4core15request_builder5testss_41test_unified_request_builder_is_send_sync11assert_sendNtB6_21UnifiedRequestBuilderEBa_
FNDA:1,_RINvNvNtNtNtCs532nfEa3ofR_9open_lark4core15request_builder5testss_41test_unified_request_builder_is_send_sync11assert_syncNtB6_21UnifiedRequestBuilderEBa_
FNDA:1,_RNCNvNtNtNtCs532nfEa3ofR_9open_lark4core15request_builder5testss_24test_build_basic_request0B9_
FNDA:1,_RNCNvNtNtNtCs532nfEa3ofR_9open_lark4core15request_builder5testss_28test_build_request_with_body0B9_
FNDA:1,_RNCNvNtNtNtCs532nfEa3ofR_9open_lark4core15request_builder5testss_29test_build_request_with_files0B9_
FNDA:1,_RNCNvNtNtNtCs532nfEa3ofR_9open_lark4core15request_builder5testss_33test_build_request_with_app_token0B9_
FNDA:1,_RNCNvNtNtNtCs532nfEa3ofR_9open_lark4core15request_builder5testss_34test_build_request_with_user_token0B9_
FNDA:1,_RNCNvNtNtNtCs532nfEa3ofR_9open_lark4core15request_builder5testss_35test_build_request_complex_scenario0B9_
FNDA:1,_RNCNvNtNtNtCs532nfEa3ofR_9open_lark4core15request_builder5testss_36test_build_request_different_methods0B9_
FNDA:1,_RNCNvNtNtNtCs532nfEa3ofR_9open_lark4core15request_builder5testss_36test_build_request_with_query_params0B9_
FNDA:1,_RNCNvNtNtNtCs532nfEa3ofR_9open_lark4core15request_builder5testss_36test_build_request_with_tenant_token0B9_
FNDA:1,_RNCNvNtNtNtCs532nfEa3ofR_9open_lark4core15request_builder5testss_38test_build_request_with_custom_headers0B9_
FNDA:1,_RNCNvNtNtNtCs532nfEa3ofR_9open_lark4core15request_builder5testss_48test_build_request_with_body_and_files_edge_case0B9_
FNDA:26,_RNvMNtNtCs532nfEa3ofR_9open_lark4core15request_builderNtB2_21UnifiedRequestBuilder5build
FNDA:32,_RNvMNtNtCs532nfEa3ofR_9open_lark4core15request_builderNtB2_21UnifiedRequestBuilder9build_url
FNDA:17,_RNvNtNtNtCs532nfEa3ofR_9open_lark4core15request_builder5tests18create_test_config
FNDA:20,_RNvNtNtNtCs532nfEa3ofR_9open_lark4core15request_builder5tests23create_test_api_request
FNDA:1,_RNvNtNtNtCs532nfEa3ofR_9open_lark4core15request_builder5testss_20test_build_url_basic
FNDA:1,_RNvNtNtNtCs532nfEa3ofR_9open_lark4core15request_builder5testss_24test_build_basic_request
FNDA:1,_RNvNtNtNtCs532nfEa3ofR_9open_lark4core15request_builder5testss_28test_build_request_with_body
FNDA:1,_RNvNtNtNtCs532nfEa3ofR_9open_lark4core15request_builder5testss_29test_build_request_with_files
FNDA:1,_RNvNtNtNtCs532nfEa3ofR_9open_lark4core15request_builder5testss_31test_build_url_invalid_base_url
FNDA:1,_RNvNtNtNtCs532nfEa3ofR_9open_lark4core15request_builder5testss_32test_build_url_with_query_params
FNDA:1,_RNvNtNtNtCs532nfEa3ofR_9open_lark4core15request_builder5testss_33test_build_request_with_app_token
FNDA:1,_RNvNtNtNtCs532nfEa3ofR_9open_lark4core15request_builder5testss_33test_build_url_with_path_segments
FNDA:1,_RNvNtNtNtCs532nfEa3ofR_9open_lark4core15request_builder5testss_34test_build_request_with_user_token
FNDA:1,_RNvNtNtNtCs532nfEa3ofR_9open_lark4core15request_builder5testss_35test_build_request_complex_scenario
FNDA:1,_RNvNtNtNtCs532nfEa3ofR_9open_lark4core15request_builder5testss_36test_build_request_different_methods
FNDA:1,_RNvNtNtNtCs532nfEa3ofR_9open_lark4core15request_builder5testss_36test_build_request_with_query_params
FNDA:1,_RNvNtNtNtCs532nfEa3ofR_9open_lark4core15request_builder5testss_36test_build_request_with_tenant_token
FNDA:1,_RNvNtNtNtCs532nfEa3ofR_9open_lark4core15request_builder5testss_38test_build_request_with_custom_headers
FNDA:1,_RNvNtNtNtCs532nfEa3ofR_9open_lark4core15request_builder5testss_38test_build_url_with_empty_query_params
FNDA:1,_RNvNtNtNtCs532nfEa3ofR_9open_lark4core15request_builder5testss_38test_build_url_with_special_characters
FNDA:1,_RNvNtNtNtCs532nfEa3ofR_9open_lark4core15request_builder5testss_41test_unified_request_builder_is_send_sync
FNDA:1,_RNvNtNtNtCs532nfEa3ofR_9open_lark4core15request_builder5testss_44test_unified_request_builder_struct_creation
FNDA:1,_RNvNtNtNtCs532nfEa3ofR_9open_lark4core15request_builder5testss_48test_build_request_with_body_and_files_edge_case
FNF:38
FNH:38
DA:20,26
DA:21,26
DA:22,26
DA:23,26
DA:24,26
DA:25,26
DA:26,26
DA:28,26
DA:29,26
DA:30,26
DA:31,26
DA:34,26
DA:37,17
DA:38,26
DA:41,17
DA:42,2
DA:43,15
DA:44,4
DA:45,4
DA:46,4
DA:47,4
DA:48,4
DA:49,11
DA:51,15
DA:52,26
DA:53,26
DA:55,32
DA:56,32
DA:57,32
DA:58,32
DA:59,32
DA:60,32
DA:61,32
DA:62,32
DA:63,32
DA:73,17
DA:74,17
DA:75,17
DA:76,17
DA:77,17
DA:78,17
DA:79,17
DA:80,17
DA:81,17
DA:83,20
DA:84,20
DA:85,20
DA:86,20
DA:87,20
DA:88,20
DA:89,20
DA:90,20
DA:91,20
DA:92,20
DA:95,1
DA:96,1
DA:97,1
DA:100,1
DA:101,1
DA:102,1
DA:103,1
DA:105,1
DA:106,1
DA:107,1
DA:110,1
DA:111,1
DA:114,1
DA:115,1
DA:116,1
DA:117,1
DA:119,1
DA:120,1
DA:122,1
DA:123,1
DA:124,1
DA:126,1
DA:127,1
DA:130,1
DA:131,1
DA:132,1
DA:135,1
DA:137,1
DA:138,1
DA:140,1
DA:141,1
DA:142,1
DA:145,1
DA:146,1
DA:149,1
DA:150,1
DA:151,1
DA:152,1
DA:154,1
DA:155,1
DA:157,1
DA:158,1
DA:159,1
DA:161,1
DA:162,1
DA:165,1
DA:166,1
DA:167,1
DA:168,1
DA:169,1
DA:170,1
DA:171,1
DA:173,1
DA:174,1
DA:175,1
DA:177,1
DA:178,1
DA:181,1
DA:182,1
DA:183,1
DA:184,1
DA:185,1
DA:186,1
DA:187,1
DA:189,1
DA:190,1
DA:191,1
DA:193,1
DA:194,1
DA:197,1
DA:198,1
DA:199,1
DA:200,1
DA:201,1
DA:202,1
DA:203,1
DA:205,1
DA:206,1
DA:207,1
DA:209,1
DA:210,1
DA:213,1
DA:214,1
DA:215,1
DA:217,1
DA:218,1
DA:219,1
DA:220,1
DA:221,1
DA:222,1
DA:223,1
DA:225,5
DA:226,5
DA:227,5
DA:228,1
DA:229,5
DA:230,5
DA:231,5
DA:232,1
DA:233,5
DA:234,1
DA:235,1
DA:238,1
DA:239,1
DA:240,1
DA:242,1
DA:244,1
DA:245,1
DA:247,1
DA:248,1
DA:249,1
DA:250,1
DA:253,1
DA:254,1
DA:255,1
DA:256,1
DA:257,1
DA:259,1
DA:261,1
DA:262,1
DA:263,1
DA:264,1
DA:265,1
DA:266,1
DA:267,1
DA:270,1
DA:271,1
DA:272,1
DA:273,1
DA:274,1
DA:275,1
DA:276,1
DA:277,1
DA:278,1
DA:280,1
DA:282,1
DA:283,1
DA:285,1
DA:286,1
DA:287,1
DA:290,1
DA:291,1
DA:292,1
DA:293,1
DA:295,1
DA:297,1
DA:298,1
DA:299,1
DA:300,1
DA:303,1
DA:304,1
DA:305,1
DA:306,1
DA:308,1
DA:311,1
DA:312,1
DA:315,1
DA:316,1
DA:317,1
DA:318,1
DA:319,1
DA:320,1
DA:321,1
DA:322,1
DA:323,1
DA:324,1
DA:326,1
DA:327,1
DA:328,1
DA:330,1
DA:331,1
DA:334,1
DA:335,1
DA:336,1
DA:337,1
DA:338,1
DA:339,1
DA:340,1
DA:341,1
DA:342,1
DA:343,1
DA:344,1
DA:346,1
DA:347,1
DA:348,1
DA:349,1
DA:350,1
DA:351,1
DA:353,1
DA:354,1
DA:355,1
DA:357,1
DA:358,1
DA:361,1
DA:363,1
DA:364,1
DA:366,1
DA:367,1
DA:368,1
DA:371,1
DA:372,1
DA:373,1
DA:374,1
DA:377,1
DA:379,1
DA:380,1
DA:382,1
DA:383,1
DA:384,1
DA:387,1
DA:388,1
DA:391,1
DA:392,1
DA:393,1
DA:394,1
DA:396,1
DA:398,1
DA:399,1
DA:401,1
DA:402,1
DA:403,1
DA:404,1
BRF:0
BRH:0
LF:306
LH:306
end_of_record
SF:/Users/zool/RustroverProjects/open-lark/src/core/request_builder/multipart_builder.rs
FN:36,_RNvMNtNtNtCs532nfEa3ofR_9open_lark4core15request_builder17multipart_builderNtB2_16MultipartBuilder13add_file_part
FN:54,_RNvMNtNtNtCs532nfEa3ofR_9open_lark4core15request_builder17multipart_builderNtB2_16MultipartBuilder15add_form_fields
FN:10,_RNvMNtNtNtCs532nfEa3ofR_9open_lark4core15request_builder17multipart_builderNtB2_16MultipartBuilder15build_multipart
FN:91,_RNvNtNtNtNtCs532nfEa3ofR_9open_lark4core15request_builder17multipart_builder5tests27create_test_request_builder
FN:256,_RNvNtNtNtNtCs532nfEa3ofR_9open_lark4core15request_builder17multipart_builder5testss_26test_add_file_part_success
FN:324,_RNvNtNtNtNtCs532nfEa3ofR_9open_lark4core15request_builder17multipart_builder5testss_31test_add_form_fields_empty_data
FN:222,_RNvNtNtNtNtCs532nfEa3ofR_9open_lark4core15request_builder17multipart_builder5testss_31test_build_multipart_empty_file
FN:238,_RNvNtNtNtNtCs532nfEa3ofR_9open_lark4core15request_builder17multipart_builder5testss_31test_build_multipart_large_file
FN:96,_RNvNtNtNtNtCs532nfEa3ofR_9open_lark4core15request_builder17multipart_builder5testss_32test_build_multipart_simple_file
FN:132,_RNvNtNtNtNtCs532nfEa3ofR_9open_lark4core15request_builder17multipart_builder5testss_33test_build_multipart_invalid_json
FN:303,_RNvNtNtNtNtCs532nfEa3ofR_9open_lark4core15request_builder17multipart_builder5testss_34test_add_form_fields_various_types
FN:405,_RNvNtNtNtNtCs532nfEa3ofR_9open_lark4core15request_builder17multipart_builder5testss_34test_multipart_builder_integration
FN:269,_RNvNtNtNtNtCs532nfEa3ofR_9open_lark4core15request_builder17multipart_builder5testss_36test_add_file_part_missing_file_name
FN:147,_RNvNtNtNtNtCs532nfEa3ofR_9open_lark4core15request_builder17multipart_builder5testss_36test_build_multipart_non_object_json
FN:333,_RNvNtNtNtNtCs532nfEa3ofR_9open_lark4core15request_builder17multipart_builder5testss_37test_add_form_fields_only_null_values
FN:201,_RNvNtNtNtNtCs532nfEa3ofR_9open_lark4core15request_builder17multipart_builder5testss_37test_build_multipart_with_array_field
FN:183,_RNvNtNtNtNtCs532nfEa3ofR_9open_lark4core15request_builder17multipart_builder5testss_37test_build_multipart_with_null_values
FN:112,_RNvNtNtNtNtCs532nfEa3ofR_9open_lark4core15request_builder17multipart_builder5testss_38test_build_multipart_missing_file_name
FN:285,_RNvNtNtNtNtCs532nfEa3ofR_9open_lark4core15request_builder17multipart_builder5testss_39test_add_file_part_non_string_file_name
FN:346,_RNvNtNtNtNtCs532nfEa3ofR_9open_lark4core15request_builder17multipart_builder5testss_39test_add_form_fields_special_characters
FN:164,_RNvNtNtNtNtCs532nfEa3ofR_9open_lark4core15request_builder17multipart_builder5testss_41test_build_multipart_with_multiple_fields
FN:360,_RNvNtNtNtNtCs532nfEa3ofR_9open_lark4core15request_builder17multipart_builder5testss_45test_build_multipart_with_complex_nested_data
FN:389,_RNvNtNtNtNtCs532nfEa3ofR_9open_lark4core15request_builder17multipart_builder5testss_54test_build_multipart_file_name_with_special_characters
FN:43,_RNCNvMNtNtNtCs532nfEa3ofR_9open_lark4core15request_builder17multipart_builderNtB4_16MultipartBuilder13add_file_part0Ba_
FN:44,_RNCNvMNtNtNtCs532nfEa3ofR_9open_lark4core15request_builder17multipart_builderNtB4_16MultipartBuilder13add_file_parts_0Ba_
FN:19,_RNCNvMNtNtNtCs532nfEa3ofR_9open_lark4core15request_builder17multipart_builderNtB4_16MultipartBuilder15build_multipart0Ba_
FNDA:13,_RNvMNtNtNtCs532nfEa3ofR_9open_lark4core15request_builder17multipart_builderNtB2_16MultipartBuilder13add_file_part
FNDA:13,_RNvMNtNtNtCs532nfEa3ofR_9open_lark4core15request_builder17multipart_builderNtB2_16MultipartBuilder15add_form_fields
FNDA:14,_RNvMNtNtNtCs532nfEa3ofR_9open_lark4core15request_builder17multipart_builderNtB2_16MultipartBuilder15build_multipart
FNDA:12,_RNvNtNtNtNtCs532nfEa3ofR_9open_lark4core15request_builder17multipart_builder5tests27create_test_request_builder
FNDA:1,_RNvNtNtNtNtCs532nfEa3ofR_9open_lark4core15request_builder17multipart_builder5testss_26test_add_file_part_success
FNDA:1,_RNvNtNtNtNtCs532nfEa3ofR_9open_lark4core15request_builder17multipart_builder5testss_31test_add_form_fields_empty_data
FNDA:1,_RNvNtNtNtNtCs532nfEa3ofR_9open_lark4core15request_builder17multipart_builder5testss_31test_build_multipart_empty_file
FNDA:1,_RNvNtNtNtNtCs532nfEa3ofR_9open_lark4core15request_builder17multipart_builder5testss_31test_build_multipart_large_file
FNDA:1,_RNvNtNtNtNtCs532nfEa3ofR_9open_lark4core15request_builder17multipart_builder5testss_32test_build_multipart_simple_file
FNDA:1,_RNvNtNtNtNtCs532nfEa3ofR_9open_lark4core15request_builder17multipart_builder5testss_33test_build_multipart_invalid_json
FNDA:1,_RNvNtNtNtNtCs532nfEa3ofR_9open_lark4core15request_builder17multipart_builder5testss_34test_add_form_fields_various_types
FNDA:1,_RNvNtNtNtNtCs532nfEa3ofR_9open_lark4core15request_builder17multipart_builder5testss_34test_multipart_builder_integration
FNDA:1,_RNvNtNtNtNtCs532nfEa3ofR_9open_lark4core15request_builder17multipart_builder5testss_36test_add_file_part_missing_file_name
FNDA:1,_RNvNtNtNtNtCs532nfEa3ofR_9open_lark4core15request_builder17multipart_builder5testss_36test_build_multipart_non_object_json
FNDA:1,_RNvNtNtNtNtCs532nfEa3ofR_9open_lark4core15request_builder17multipart_builder5testss_37test_add_form_fields_only_null_values
FNDA:1,_RNvNtNtNtNtCs532nfEa3ofR_9open_lark4core15request_builder17multipart_builder5testss_37test_build_multipart_with_array_field
FNDA:1,_RNvNtNtNtNtCs532nfEa3ofR_9open_lark4core15request_builder17multipart_builder5testss_37test_build_multipart_with_null_values
FNDA:1,_RNvNtNtNtNtCs532nfEa3ofR_9open_lark4core15request_builder17multipart_builder5testss_38test_build_multipart_missing_file_name
FNDA:1,_RNvNtNtNtNtCs532nfEa3ofR_9open_lark4core15request_builder17multipart_builder5testss_39test_add_file_part_non_string_file_name
FNDA:1,_RNvNtNtNtNtCs532nfEa3ofR_9open_lark4core15request_builder17multipart_builder5testss_39test_add_form_fields_special_characters
FNDA:1,_RNvNtNtNtNtCs532nfEa3ofR_9open_lark4core15request_builder17multipart_builder5testss_41test_build_multipart_with_multiple_fields
FNDA:1,_RNvNtNtNtNtCs532nfEa3ofR_9open_lark4core15request_builder17multipart_builder5testss_45test_build_multipart_with_complex_nested_data
FNDA:1,_RNvNtNtNtNtCs532nfEa3ofR_9open_lark4core15request_builder17multipart_builder5testss_54test_build_multipart_file_name_with_special_characters
FNDA:11,_RNCNvMNtNtNtCs532nfEa3ofR_9open_lark4core15request_builder17multipart_builderNtB4_16MultipartBuilder13add_file_part0Ba_
FNDA:3,_RNCNvMNtNtNtCs532nfEa3ofR_9open_lark4core15request_builder17multipart_builderNtB4_16MultipartBuilder13add_file_parts_0Ba_
FNDA:1,_RNCNvMNtNtNtCs532nfEa3ofR_9open_lark4core15request_builder17multipart_builderNtB4_16MultipartBuilder15build_multipart0Ba_
FNF:26
FNH:26
DA:10,14
DA:11,14
DA:12,14
DA:13,14
DA:14,14
DA:15,14
DA:17,11
DA:18,11
DA:19,11
DA:21,10
DA:24,10
DA:27,9
DA:30,9
DA:32,9
DA:33,14
DA:36,13
DA:37,13
DA:38,13
DA:39,13
DA:40,13
DA:41,13
DA:42,13
DA:43,13
DA:44,13
DA:45,10
DA:47,10
DA:49,10
DA:50,10
DA:51,13
DA:54,13
DA:55,13
DA:56,13
DA:57,13
DA:58,54
DA:60,54
DA:61,15
DA:62,39
DA:64,39
DA:65,26
DA:66,3
DA:67,3
DA:68,3
DA:70,3
DA:72,4
DA:74,4
DA:76,0
DA:80,13
DA:81,13
DA:91,12
DA:92,12
DA:93,12
DA:96,1
DA:97,1
DA:98,1
DA:99,1
DA:100,1
DA:102,1
DA:103,1
DA:105,1
DA:106,1
DA:108,1
DA:109,1
DA:112,1
DA:113,1
DA:114,1
DA:115,1
DA:117,1
DA:118,1
DA:120,1
DA:121,1
DA:123,1
DA:124,1
DA:125,1
DA:127,0
DA:129,1
DA:132,1
DA:133,1
DA:134,1
DA:136,1
DA:137,1
DA:139,1
DA:140,1
DA:141,1
DA:142,0
DA:144,1
DA:147,1
DA:148,1
DA:149,1
DA:150,1
DA:152,1
DA:153,1
DA:155,1
DA:156,1
DA:157,1
DA:159,0
DA:161,1
DA:164,1
DA:165,1
DA:166,1
DA:167,1
DA:168,1
DA:169,1
DA:170,1
DA:171,1
DA:173,1
DA:174,1
DA:176,1
DA:177,1
DA:179,1
DA:180,1
DA:183,1
DA:184,1
DA:185,1
DA:186,1
DA:187,1
DA:188,1
DA:189,1
DA:191,1
DA:192,1
DA:194,1
DA:195,1
DA:197,1
DA:198,1
DA:201,1
DA:202,1
DA:203,1
DA:204,1
DA:205,1
DA:206,1
DA:207,1
DA:208,1
DA:209,1
DA:212,1
DA:213,1
DA:215,1
DA:216,1
DA:218,1
DA:219,1
DA:222,1
DA:223,1
DA:224,1
DA:225,1
DA:226,1
DA:228,1
DA:229,1
DA:231,1
DA:232,1
DA:234,1
DA:235,1
DA:238,1
DA:239,1
DA:240,1
DA:241,1
DA:242,1
DA:244,1
DA:247,1
DA:249,1
DA:250,1
DA:252,1
DA:253,1
DA:256,1
DA:257,1
DA:258,1
DA:259,1
DA:261,1
DA:262,1
DA:264,1
DA:265,1
DA:266,1
DA:269,1
DA:270,1
DA:271,1
DA:272,1
DA:274,1
DA:275,1
DA:277,1
DA:278,1
DA:280,0
DA:282,1
DA:285,1
DA:286,1
DA:287,1
DA:289,1
DA:290,1
DA:292,1
DA:293,1
DA:295,1
DA:296,1
DA:298,0
DA:300,1
DA:303,1
DA:304,1
DA:305,1
DA:306,1
DA:307,1
DA:308,1
DA:309,1
DA:311,1
DA:312,1
DA:314,1
DA:315,1
DA:317,1
DA:318,1
DA:320,1
DA:321,1
DA:324,1
DA:325,1
DA:326,1
DA:328,1
DA:329,1
DA:330,1
DA:333,1
DA:334,1
DA:335,1
DA:336,1
DA:337,1
DA:339,1
DA:340,1
DA:342,1
DA:343,1
DA:346,1
DA:347,1
DA:348,1
DA:349,1
DA:350,1
DA:351,1
DA:353,1
DA:354,1
DA:356,1
DA:357,1
DA:360,1
DA:361,1
DA:362,1
DA:363,1
DA:364,1
DA:365,1
DA:366,1
DA:367,1
DA:368,1
DA:370,1
DA:371,1
DA:372,1
DA:373,1
DA:374,1
DA:377,1
DA:379,1
DA:380,1
DA:382,1
DA:383,1
DA:385,1
DA:386,1
DA:389,1
DA:390,1
DA:391,1
DA:392,1
DA:393,1
DA:395,1
DA:396,1
DA:398,1
DA:399,1
DA:401,1
DA:402,1
DA:405,1
DA:407,1
DA:408,1
DA:409,1
DA:410,1
DA:411,1
DA:412,1
DA:413,1
DA:414,1
DA:415,1
DA:416,1
DA:420,1
DA:421,1
DA:423,1
DA:424,1
DA:426,1
DA:429,1
DA:433,1
DA:434,1
BRF:0
BRH:0
LF:284
LH:278
end_of_record
SF:/Users/zool/RustroverProjects/open-lark/src/core/request_executor.rs
FN:254,_RINvMNtNtCs532nfEa3ofR_9open_lark4core16request_executorNtB3_15RequestExecutor12json_requestppEB7_
FN:288,_RINvMNtNtCs532nfEa3ofR_9open_lark4core16request_executorNtB3_15RequestExecutor13query_requestpEB7_
FN:212,_RINvMNtNtCs532nfEa3ofR_9open_lark4core16request_executorNtB3_15RequestExecutor24execute_with_path_paramsppEB7_
FN:22,_RINvMNtNtCs532nfEa3ofR_9open_lark4core16request_executorNtB3_15RequestExecutor3getpEB7_
FN:62,_RINvMNtNtCs532nfEa3ofR_9open_lark4core16request_executorNtB3_15RequestExecutor3putppEB7_
FN:42,_RINvMNtNtCs532nfEa3ofR_9open_lark4core16request_executorNtB3_15RequestExecutor4postppEB7_
FN:101,_RINvMNtNtCs532nfEa3ofR_9open_lark4core16request_executorNtB3_15RequestExecutor5patchppEB7_
FN:82,_RINvMNtNtCs532nfEa3ofR_9open_lark4core16request_executorNtB3_15RequestExecutor6deletepEB7_
FN:158,_RINvMNtNtCs532nfEa3ofR_9open_lark4core16request_executorNtB3_15RequestExecutor7executeppEB7_
FN:260,_RNCINvMNtNtCs532nfEa3ofR_9open_lark4core16request_executorNtB5_15RequestExecutor12json_requestppE0B9_
FN:293,_RNCINvMNtNtCs532nfEa3ofR_9open_lark4core16request_executorNtB5_15RequestExecutor13query_requestpE0B9_
FN:221,_RNCINvMNtNtCs532nfEa3ofR_9open_lark4core16request_executorNtB5_15RequestExecutor24execute_with_path_paramsppE0B9_
FN:28,_RNCINvMNtNtCs532nfEa3ofR_9open_lark4core16request_executorNtB5_15RequestExecutor3getpE0B9_
FN:68,_RNCINvMNtNtCs532nfEa3ofR_9open_lark4core16request_executorNtB5_15RequestExecutor3putppE0B9_
FN:48,_RNCINvMNtNtCs532nfEa3ofR_9open_lark4core16request_executorNtB5_15RequestExecutor4postppE0B9_
FN:107,_RNCINvMNtNtCs532nfEa3ofR_9open_lark4core16request_executorNtB5_15RequestExecutor5patchppE0B9_
FN:87,_RNCINvMNtNtCs532nfEa3ofR_9open_lark4core16request_executorNtB5_15RequestExecutor6deletepE0B9_
FN:166,_RNCINvMNtNtCs532nfEa3ofR_9open_lark4core16request_executorNtB5_15RequestExecutor7executeppE0B9_
FN:182,_RNCNCINvMNtNtCs532nfEa3ofR_9open_lark4core16request_executorNtB7_15RequestExecutor7executeppE00Bb_
FN:324,_RNvXNtNtNtCs532nfEa3ofR_9open_lark4core16request_executor5testsNtB2_12TestResponseNtNtB6_8api_resp16ApiResponseTrait11data_format
FN:346,_RNvNtNtNtCs532nfEa3ofR_9open_lark4core16request_executor5testss_31test_request_body_serialization
FN:726,_RNvNtNtNtCs532nfEa3ofR_9open_lark4core16request_executor5testss_31test_request_option_integration
FN:358,_RNvNtNtNtCs532nfEa3ofR_9open_lark4core16request_executor5testss_32test_request_executor_get_method
FN:330,_RNvNtNtNtCs532nfEa3ofR_9open_lark4core16request_executor5testss_33test_request_executor_path_params
FN:755,_RNvNtNtNtCs532nfEa3ofR_9open_lark4core16request_executor5testss_34test_request_executor_const_values
FN:636,_RNvNtNtNtCs532nfEa3ofR_9open_lark4core16request_executor5testss_34test_request_executor_method_types
FN:702,_RNvNtNtNtCs532nfEa3ofR_9open_lark4core16request_executor5testss_36test_request_executor_error_handling
FN:610,_RNvNtNtNtCs532nfEa3ofR_9open_lark4core16request_executor5testss_40test_request_executor_access_token_types
FN:396,_RNvNtNtNtCs532nfEa3ofR_9open_lark4core16request_executor5testss_42test_request_executor_put_method_signature
FN:517,_RNvNtNtNtCs532nfEa3ofR_9open_lark4core16request_executor5testss_43test_request_executor_json_request_defaults
FN:377,_RNvNtNtNtCs532nfEa3ofR_9open_lark4core16request_executor5testss_43test_request_executor_post_method_signature
FN:576,_RNvNtNtNtCs532nfEa3ofR_9open_lark4core16request_executor5testss_43test_request_executor_query_params_handling
FN:427,_RNvNtNtNtCs532nfEa3ofR_9open_lark4core16request_executor5testss_44test_request_executor_patch_method_signature
FN:533,_RNvNtNtNtCs532nfEa3ofR_9open_lark4core16request_executor5testss_44test_request_executor_query_request_defaults
FN:415,_RNvNtNtNtCs532nfEa3ofR_9open_lark4core16request_executor5testss_45test_request_executor_delete_method_signature
FN:660,_RNvNtNtNtCs532nfEa3ofR_9open_lark4core16request_executor5testss_46test_request_executor_api_request_construction
FN:545,_RNvNtNtNtCs532nfEa3ofR_9open_lark4core16request_executor5testss_51test_request_executor_body_serialization_edge_cases
FN:479,_RNvNtNtNtCs532nfEa3ofR_9open_lark4core16request_executor5testss_57test_request_executor_execute_with_path_params_edge_cases
FN:447,_RNvNtNtNtCs532nfEa3ofR_9open_lark4core16request_executor5testss_58test_request_executor_execute_with_path_params_replacement
FN:330,_RNCNvNtNtNtCs532nfEa3ofR_9open_lark4core16request_executor5testss_33test_request_executor_path_params0B9_
FNDA:0,_RINvMNtNtCs532nfEa3ofR_9open_lark4core16request_executorNtB3_15RequestExecutor12json_requestppEB7_
FNDA:0,_RINvMNtNtCs532nfEa3ofR_9open_lark4core16request_executorNtB3_15RequestExecutor13query_requestpEB7_
FNDA:0,_RINvMNtNtCs532nfEa3ofR_9open_lark4core16request_executorNtB3_15RequestExecutor24execute_with_path_paramsppEB7_
FNDA:0,_RINvMNtNtCs532nfEa3ofR_9open_lark4core16request_executorNtB3_15RequestExecutor3getpEB7_
FNDA:0,_RINvMNtNtCs532nfEa3ofR_9open_lark4core16request_executorNtB3_15RequestExecutor3putppEB7_
FNDA:0,_RINvMNtNtCs532nfEa3ofR_9open_lark4core16request_executorNtB3_15RequestExecutor4postppEB7_
FNDA:0,_RINvMNtNtCs532nfEa3ofR_9open_lark4core16request_executorNtB3_15RequestExecutor5patchppEB7_
FNDA:0,_RINvMNtNtCs532nfEa3ofR_9open_lark4core16request_executorNtB3_15RequestExecutor6deletepEB7_
FNDA:0,_RINvMNtNtCs532nfEa3ofR_9open_lark4core16request_executorNtB3_15RequestExecutor7executeppEB7_
FNDA:0,_RNCINvMNtNtCs532nfEa3ofR_9open_lark4core16request_executorNtB5_15RequestExecutor12json_requestppE0B9_
FNDA:0,_RNCINvMNtNtCs532nfEa3ofR_9open_lark4core16request_executorNtB5_15RequestExecutor13query_requestpE0B9_
FNDA:0,_RNCINvMNtNtCs532nfEa3ofR_9open_lark4core16request_executorNtB5_15RequestExecutor24execute_with_path_paramsppE0B9_
FNDA:0,_RNCINvMNtNtCs532nfEa3ofR_9open_lark4core16request_executorNtB5_15RequestExecutor3getpE0B9_
FNDA:0,_RNCINvMNtNtCs532nfEa3ofR_9open_lark4core16request_executorNtB5_15RequestExecutor3putppE0B9_
FNDA:0,_RNCINvMNtNtCs532nfEa3ofR_9open_lark4core16request_executorNtB5_15RequestExecutor4postppE0B9_
FNDA:0,_RNCINvMNtNtCs532nfEa3ofR_9open_lark4core16request_executorNtB5_15RequestExecutor5patchppE0B9_
FNDA:0,_RNCINvMNtNtCs532nfEa3ofR_9open_lark4core16request_executorNtB5_15RequestExecutor6deletepE0B9_
FNDA:0,_RNCINvMNtNtCs532nfEa3ofR_9open_lark4core16request_executorNtB5_15RequestExecutor7executeppE0B9_
FNDA:0,_RNCNCINvMNtNtCs532nfEa3ofR_9open_lark4core16request_executorNtB7_15RequestExecutor7executeppE00Bb_
FNDA:0,_RNvXNtNtNtCs532nfEa3ofR_9open_lark4core16request_executor5testsNtB2_12TestResponseNtNtB6_8api_resp16ApiResponseTrait11data_format
FNDA:1,_RNvNtNtNtCs532nfEa3ofR_9open_lark4core16request_executor5testss_31test_request_body_serialization
FNDA:1,_RNvNtNtNtCs532nfEa3ofR_9open_lark4core16request_executor5testss_31test_request_option_integration
FNDA:1,_RNvNtNtNtCs532nfEa3ofR_9open_lark4core16request_executor5testss_32test_request_executor_get_method
FNDA:1,_RNvNtNtNtCs532nfEa3ofR_9open_lark4core16request_executor5testss_33test_request_executor_path_params
FNDA:1,_RNvNtNtNtCs532nfEa3ofR_9open_lark4core16request_executor5testss_34test_request_executor_const_values
FNDA:1,_RNvNtNtNtCs532nfEa3ofR_9open_lark4core16request_executor5testss_34test_request_executor_method_types
FNDA:1,_RNvNtNtNtCs532nfEa3ofR_9open_lark4core16request_executor5testss_36test_request_executor_error_handling
FNDA:1,_RNvNtNtNtCs532nfEa3ofR_9open_lark4core16request_executor5testss_40test_request_executor_access_token_types
FNDA:1,_RNvNtNtNtCs532nfEa3ofR_9open_lark4core16request_executor5testss_42test_request_executor_put_method_signature
FNDA:1,_RNvNtNtNtCs532nfEa3ofR_9open_lark4core16request_executor5testss_43test_request_executor_json_request_defaults
FNDA:1,_RNvNtNtNtCs532nfEa3ofR_9open_lark4core16request_executor5testss_43test_request_executor_post_method_signature
FNDA:1,_RNvNtNtNtCs532nfEa3ofR_9open_lark4core16request_executor5testss_43test_request_executor_query_params_handling
FNDA:1,_RNvNtNtNtCs532nfEa3ofR_9open_lark4core16request_executor5testss_44test_request_executor_patch_method_signature
FNDA:1,_RNvNtNtNtCs532nfEa3ofR_9open_lark4core16request_executor5testss_44test_request_executor_query_request_defaults
FNDA:1,_RNvNtNtNtCs532nfEa3ofR_9open_lark4core16request_executor5testss_45test_request_executor_delete_method_signature
FNDA:1,_RNvNtNtNtCs532nfEa3ofR_9open_lark4core16request_executor5testss_46test_request_executor_api_request_construction
FNDA:1,_RNvNtNtNtCs532nfEa3ofR_9open_lark4core16request_executor5testss_51test_request_executor_body_serialization_edge_cases
FNDA:1,_RNvNtNtNtCs532nfEa3ofR_9open_lark4core16request_executor5testss_57test_request_executor_execute_with_path_params_edge_cases
FNDA:1,_RNvNtNtNtCs532nfEa3ofR_9open_lark4core16request_executor5testss_58test_request_executor_execute_with_path_params_replacement
FNDA:1,_RNCNvNtNtNtCs532nfEa3ofR_9open_lark4core16request_executor5testss_33test_request_executor_path_params0B9_
FNF:40
FNH:20
DA:22,0
DA:23,0
DA:24,0
DA:25,0
DA:26,0
DA:27,0
DA:28,0
DA:29,0
DA:30,0
DA:31,0
DA:32,0
DA:33,0
DA:34,0
DA:35,0
DA:36,0
DA:37,0
DA:38,0
DA:39,0
DA:42,0
DA:43,0
DA:44,0
DA:45,0
DA:46,0
DA:47,0
DA:48,0
DA:49,0
DA:50,0
DA:51,0
DA:52,0
DA:53,0
DA:54,0
DA:55,0
DA:56,0
DA:57,0
DA:58,0
DA:59,0
DA:62,0
DA:63,0
DA:64,0
DA:65,0
DA:66,0
DA:67,0
DA:68,0
DA:69,0
DA:70,0
DA:71,0
DA:72,0
DA:73,0
DA:74,0
DA:75,0
DA:76,0
DA:77,0
DA:78,0
DA:79,0
DA:82,0
DA:83,0
DA:84,0
DA:85,0
DA:86,0
DA:87,0
DA:88,0
DA:89,0
DA:90,0
DA:91,0
DA:92,0
DA:93,0
DA:94,0
DA:95,0
DA:96,0
DA:97,0
DA:98,0
DA:101,0
DA:102,0
DA:103,0
DA:104,0
DA:105,0
DA:106,0
DA:107,0
DA:108,0
DA:109,0
DA:110,0
DA:111,0
DA:112,0
DA:113,0
DA:114,0
DA:115,0
DA:116,0
DA:117,0
DA:118,0
DA:158,0
DA:159,0
DA:160,0
DA:161,0
DA:162,0
DA:163,0
DA:164,0
DA:165,0
DA:166,0
DA:167,0
DA:168,0
DA:169,0
DA:170,0
DA:171,0
DA:172,0
DA:175,0
DA:176,0
DA:177,0
DA:180,0
DA:181,0
DA:182,0
DA:183,0
DA:186,0
DA:187,0
DA:212,0
DA:213,0
DA:214,0
DA:215,0
DA:216,0
DA:217,0
DA:218,0
DA:219,0
DA:220,0
DA:221,0
DA:223,0
DA:224,0
DA:225,0
DA:226,0
DA:228,0
DA:229,0
DA:230,0
DA:231,0
DA:232,0
DA:233,0
DA:234,0
DA:235,0
DA:236,0
DA:237,0
DA:238,0
DA:254,0
DA:255,0
DA:256,0
DA:257,0
DA:258,0
DA:259,0
DA:260,0
DA:261,0
DA:262,0
DA:263,0
DA:264,0
DA:265,0
DA:266,0
DA:267,0
DA:268,0
DA:269,0
DA:270,0
DA:271,0
DA:288,0
DA:289,0
DA:290,0
DA:291,0
DA:292,0
DA:293,0
DA:294,0
DA:295,0
DA:296,0
DA:297,0
DA:298,0
DA:299,0
DA:300,0
DA:301,0
DA:302,0
DA:324,0
DA:325,0
DA:326,0
DA:330,1
DA:331,1
DA:332,1
DA:334,1
DA:337,1
DA:338,3
DA:339,2
DA:340,2
DA:341,1
DA:342,1
DA:343,1
DA:346,1
DA:347,1
DA:348,1
DA:349,1
DA:351,1
DA:352,1
DA:354,1
DA:355,1
DA:358,1
DA:363,1
DA:364,1
DA:365,1
DA:366,1
DA:370,1
DA:371,1
DA:372,1
DA:373,1
DA:374,1
DA:377,1
DA:381,1
DA:382,1
DA:383,1
DA:384,1
DA:387,1
DA:388,1
DA:391,1
DA:392,1
DA:393,1
DA:396,1
DA:400,1
DA:401,1
DA:402,1
DA:403,1
DA:406,1
DA:407,1
DA:410,1
DA:411,1
DA:412,1
DA:415,1
DA:419,1
DA:422,1
DA:423,1
DA:424,1
DA:427,1
DA:431,1
DA:432,1
DA:433,1
DA:434,1
DA:437,1
DA:438,1
DA:441,1
DA:442,1
DA:443,1
DA:444,1
DA:447,1
DA:451,1
DA:452,1
DA:453,1
DA:454,1
DA:457,1
DA:458,3
DA:459,2
DA:460,2
DA:462,1
DA:463,1
DA:466,1
DA:467,1
DA:469,1
DA:470,1
DA:471,0
DA:472,0
DA:475,1
DA:476,1
DA:479,1
DA:483,1
DA:484,1
DA:485,1
DA:487,1
DA:488,2
DA:489,1
DA:490,1
DA:491,1
DA:494,1
DA:495,1
DA:496,1
DA:498,1
DA:499,2
DA:500,1
DA:501,1
DA:502,1
DA:505,1
DA:506,1
DA:507,1
DA:509,1
DA:510,2
DA:511,1
DA:512,1
DA:513,1
DA:514,1
DA:517,1
DA:521,1
DA:523,1
DA:524,1
DA:525,1
DA:528,1
DA:529,1
DA:530,1
DA:533,1
DA:537,1
DA:539,1
DA:540,1
DA:541,1
DA:542,1
DA:545,1
DA:552,1
DA:553,1
DA:554,1
DA:555,1
DA:564,1
DA:565,1
DA:566,1
DA:567,1
DA:568,1
DA:569,1
DA:571,1
DA:572,1
DA:573,1
DA:576,1
DA:580,1
DA:581,1
DA:582,1
DA:583,1
DA:585,1
DA:586,1
DA:587,1
DA:588,1
DA:591,1
DA:592,1
DA:595,1
DA:596,1
DA:597,1
DA:599,1
DA:600,1
DA:601,1
DA:603,1
DA:604,1
DA:605,1
DA:607,1
DA:610,1
DA:614,1
DA:615,1
DA:616,1
DA:617,1
DA:618,1
DA:620,1
DA:623,1
DA:624,1
DA:625,1
DA:628,1
DA:629,1
DA:631,1
DA:632,1
DA:633,1
DA:636,1
DA:640,1
DA:641,1
DA:642,1
DA:643,1
DA:644,1
DA:646,1
DA:647,1
DA:648,1
DA:649,1
DA:650,1
DA:653,1
DA:654,1
DA:655,1
DA:656,1
DA:657,1
DA:660,1
DA:667,1
DA:668,1
DA:669,1
DA:670,1
DA:671,1
DA:672,1
DA:674,1
DA:675,1
DA:676,1
DA:677,1
DA:678,1
DA:683,1
DA:684,1
DA:685,1
DA:687,1
DA:688,1
DA:691,1
DA:692,1
DA:693,1
DA:694,1
DA:696,1
DA:697,1
DA:698,1
DA:699,1
DA:702,1
DA:712,1
DA:713,1
DA:714,1
DA:716,1
DA:717,1
DA:720,1
DA:721,1
DA:722,1
DA:723,1
DA:726,1
DA:730,1
DA:731,1
DA:732,1
DA:733,1
DA:734,1
DA:735,1
DA:737,1
DA:738,1
DA:739,1
DA:740,1
DA:741,1
DA:742,1
DA:746,1
DA:747,1
DA:750,1
DA:751,1
DA:752,1
DA:755,1
DA:757,1
DA:759,1
DA:760,1
DA:761,1
DA:764,5
DA:765,4
DA:766,4
DA:770,1
DA:772,1
DA:773,1
DA:774,1
DA:775,1
DA:778,6
DA:779,5
DA:780,5
DA:782,1
BRF:0
BRH:0
LF:449
LH:263
end_of_record
SF:/Users/zool/RustroverProjects/open-lark/src/core/retry_middleware.rs
FN:508,_RNvNtNtNtCs532nfEa3ofR_9open_lark4core16retry_middleware5testss_16test_retry_stats
FN:469,_RNvNtNtNtCs532nfEa3ofR_9open_lark4core16retry_middleware5testss_20test_linear_strategy
FN:492,_RNvNtNtNtCs532nfEa3ofR_9open_lark4core16retry_middleware5testss_23test_retry_attempt_info
FN:478,_RNvNtNtNtCs532nfEa3ofR_9open_lark4core16retry_middleware5testss_25test_exponential_strategy
FN:448,_RNvNtNtNtCs532nfEa3ofR_9open_lark4core16retry_middleware5testss_25test_retry_config_builder
FN:456,_RNvNtNtNtCs532nfEa3ofR_9open_lark4core16retry_middleware5testss_27test_retry_strategy_builder
FN:550,_RNvNtNtNtCs532nfEa3ofR_9open_lark4core16retry_middleware5testss_29test_retry_middleware_failure
FN:521,_RNvNtNtNtCs532nfEa3ofR_9open_lark4core16retry_middleware5testss_29test_retry_middleware_success
FN:87,_RINvMs0_NtNtCs532nfEa3ofR_9open_lark4core16retry_middlewareNtB6_11RetryConfig12retry_filterpEBa_
FN:78,_RINvMs0_NtNtCs532nfEa3ofR_9open_lark4core16retry_middlewareNtB6_11RetryConfig8on_retrypEBa_
FN:334,_RINvMs5_NtNtCs532nfEa3ofR_9open_lark4core16retry_middlewareNtB6_24RetryMiddlewareWithStats7executepppEBa_
FN:338,_RNCINvMs5_NtNtCs532nfEa3ofR_9open_lark4core16retry_middlewareNtB8_24RetryMiddlewareWithStats7executepppE0Bc_
FN:97,_RNCNvMs0_NtNtCs532nfEa3ofR_9open_lark4core16retry_middlewareNtB7_11RetryConfig18server_errors_only0Bb_
FN:319,_RNCNvMs5_NtNtCs532nfEa3ofR_9open_lark4core16retry_middlewareNtB7_24RetryMiddlewareWithStats3new0Bb_
FN:124,_RNvMs0_NtNtCs532nfEa3ofR_9open_lark4core16retry_middlewareNtB5_11RetryConfig12conservative
FN:96,_RNvMs0_NtNtCs532nfEa3ofR_9open_lark4core16retry_middlewareNtB5_11RetryConfig18server_errors_only
FN:164,_RNvMs1_NtNtCs532nfEa3ofR_9open_lark4core16retry_middlewareNtB5_12RetryAttempt10print_info
FN:295,_RNvMs4_NtNtCs532nfEa3ofR_9open_lark4core16retry_middlewareNtB5_10RetryStats13print_summary
FN:364,_RNvMs5_NtNtCs532nfEa3ofR_9open_lark4core16retry_middlewareNtB5_24RetryMiddlewareWithStats11reset_stats
FN:314,_RNvMs5_NtNtCs532nfEa3ofR_9open_lark4core16retry_middlewareNtB5_24RetryMiddlewareWithStats3new
FN:352,_RNvMs5_NtNtCs532nfEa3ofR_9open_lark4core16retry_middlewareNtB5_24RetryMiddlewareWithStats9get_stats
FN:29,_RNvXNtNtCs532nfEa3ofR_9open_lark4core16retry_middlewareNtB2_11RetryConfigNtNtCsaNl6UpbT7bw_4core3fmt5Debug3fmt
FN:438,_RNvXs7_NtNtCs532nfEa3ofR_9open_lark4core16retry_middlewareNtB5_20RetryStrategyBuilderNtNtCsaNl6UpbT7bw_4core7default7Default7default
FN:191,_RINvMs3_NtNtCs532nfEa3ofR_9open_lark4core16retry_middlewareNtB6_15RetryMiddleware7executeNCNCNvNtB6_5testss_29test_retry_middleware_failure00ReNCNCB1r_00EBa_
FN:191,_RINvMs3_NtNtCs532nfEa3ofR_9open_lark4core16retry_middlewareNtB6_15RetryMiddleware7executeNCNCNvNtB6_5testss_29test_retry_middleware_success00ReNCNCB1r_00EBa_
FN:195,_RNCINvMs3_NtNtCs532nfEa3ofR_9open_lark4core16retry_middlewareNtB8_15RetryMiddleware7executeNCNCNvNtB8_5testss_29test_retry_middleware_failure00ReNCNCB1t_00E0Bc_
FN:195,_RNCINvMs3_NtNtCs532nfEa3ofR_9open_lark4core16retry_middlewareNtB8_15RetryMiddleware7executeNCNCNvNtB8_5testss_29test_retry_middleware_success00ReNCNCB1t_00E0Bc_
FN:113,_RNvMs0_NtNtCs532nfEa3ofR_9open_lark4core16retry_middlewareNtB5_11RetryConfig10aggressive
FN:72,_RNvMs0_NtNtCs532nfEa3ofR_9open_lark4core16retry_middlewareNtB5_11RetryConfig16default_strategy
FN:61,_RNvMs0_NtNtCs532nfEa3ofR_9open_lark4core16retry_middlewareNtB5_11RetryConfig3new
FN:66,_RNvMs0_NtNtCs532nfEa3ofR_9open_lark4core16retry_middlewareNtB5_11RetryConfig7enabled
FN:154,_RNvMs1_NtNtCs532nfEa3ofR_9open_lark4core16retry_middlewareNtB5_12RetryAttempt16is_final_attempt
FN:159,_RNvMs1_NtNtCs532nfEa3ofR_9open_lark4core16retry_middlewareNtB5_12RetryAttempt18remaining_attempts
FN:248,_RNvMs3_NtNtCs532nfEa3ofR_9open_lark4core16retry_middlewareNtB5_15RetryMiddleware12should_retry
FN:264,_RNvMs3_NtNtCs532nfEa3ofR_9open_lark4core16retry_middlewareNtB5_15RetryMiddleware15calculate_delay
FN:186,_RNvMs3_NtNtCs532nfEa3ofR_9open_lark4core16retry_middlewareNtB5_15RetryMiddleware3new
FN:286,_RNvMs4_NtNtCs532nfEa3ofR_9open_lark4core16retry_middlewareNtB5_10RetryStats12success_rate
FN:391,_RNvMs6_NtNtCs532nfEa3ofR_9open_lark4core16retry_middlewareNtB5_20RetryStrategyBuilder10base_delay
FN:423,_RNvMs6_NtNtCs532nfEa3ofR_9open_lark4core16retry_middlewareNtB5_20RetryStrategyBuilder11exponential
FN:385,_RNvMs6_NtNtCs532nfEa3ofR_9open_lark4core16retry_middlewareNtB5_20RetryStrategyBuilder12max_attempts
FN:403,_RNvMs6_NtNtCs532nfEa3ofR_9open_lark4core16retry_middlewareNtB5_20RetryStrategyBuilder19exponential_backoff
FN:378,_RNvMs6_NtNtCs532nfEa3ofR_9open_lark4core16retry_middlewareNtB5_20RetryStrategyBuilder3new
FN:409,_RNvMs6_NtNtCs532nfEa3ofR_9open_lark4core16retry_middlewareNtB5_20RetryStrategyBuilder5build
FN:414,_RNvMs6_NtNtCs532nfEa3ofR_9open_lark4core16retry_middlewareNtB5_20RetryStrategyBuilder6linear
FN:397,_RNvMs6_NtNtCs532nfEa3ofR_9open_lark4core16retry_middlewareNtB5_20RetryStrategyBuilder9max_delay
FN:179,_RNvXs2_NtNtCs532nfEa3ofR_9open_lark4core16retry_middlewareNtB5_15RetryMiddlewareNtNtCsaNl6UpbT7bw_4core7default7Default7default
FN:49,_RNvXs_NtNtCs532nfEa3ofR_9open_lark4core16retry_middlewareNtB4_11RetryConfigNtNtCsaNl6UpbT7bw_4core7default7Default7default
FN:566,_RNCNCNCNvNtNtNtCs532nfEa3ofR_9open_lark4core16retry_middleware5testss_29test_retry_middleware_failure000Bd_
FN:534,_RNCNCNCNvNtNtNtCs532nfEa3ofR_9open_lark4core16retry_middleware5testss_29test_retry_middleware_success000Bd_
FN:564,_RNCNCNvNtNtNtCs532nfEa3ofR_9open_lark4core16retry_middleware5testss_29test_retry_middleware_failure00Bb_
FN:532,_RNCNCNvNtNtNtCs532nfEa3ofR_9open_lark4core16retry_middleware5testss_29test_retry_middleware_success00Bb_
FN:550,_RNCNvNtNtNtCs532nfEa3ofR_9open_lark4core16retry_middleware5testss_29test_retry_middleware_failure0B9_
FN:521,_RNCNvNtNtNtCs532nfEa3ofR_9open_lark4core16retry_middleware5testss_29test_retry_middleware_success0B9_
FNDA:1,_RNvNtNtNtCs532nfEa3ofR_9open_lark4core16retry_middleware5testss_16test_retry_stats
FNDA:1,_RNvNtNtNtCs532nfEa3ofR_9open_lark4core16retry_middleware5testss_20test_linear_strategy
FNDA:1,_RNvNtNtNtCs532nfEa3ofR_9open_lark4core16retry_middleware5testss_23test_retry_attempt_info
FNDA:1,_RNvNtNtNtCs532nfEa3ofR_9open_lark4core16retry_middleware5testss_25test_exponential_strategy
FNDA:1,_RNvNtNtNtCs532nfEa3ofR_9open_lark4core16retry_middleware5testss_25test_retry_config_builder
FNDA:1,_RNvNtNtNtCs532nfEa3ofR_9open_lark4core16retry_middleware5testss_27test_retry_strategy_builder
FNDA:1,_RNvNtNtNtCs532nfEa3ofR_9open_lark4core16retry_middleware5testss_29test_retry_middleware_failure
FNDA:1,_RNvNtNtNtCs532nfEa3ofR_9open_lark4core16retry_middleware5testss_29test_retry_middleware_success
FNDA:0,_RINvMs0_NtNtCs532nfEa3ofR_9open_lark4core16retry_middlewareNtB6_11RetryConfig12retry_filterpEBa_
FNDA:0,_RINvMs0_NtNtCs532nfEa3ofR_9open_lark4core16retry_middlewareNtB6_11RetryConfig8on_retrypEBa_
FNDA:0,_RINvMs5_NtNtCs532nfEa3ofR_9open_lark4core16retry_middlewareNtB6_24RetryMiddlewareWithStats7executepppEBa_
FNDA:0,_RNCINvMs5_NtNtCs532nfEa3ofR_9open_lark4core16retry_middlewareNtB8_24RetryMiddlewareWithStats7executepppE0Bc_
FNDA:0,_RNCNvMs0_NtNtCs532nfEa3ofR_9open_lark4core16retry_middlewareNtB7_11RetryConfig18server_errors_only0Bb_
FNDA:0,_RNCNvMs5_NtNtCs532nfEa3ofR_9open_lark4core16retry_middlewareNtB7_24RetryMiddlewareWithStats3new0Bb_
FNDA:0,_RNvMs0_NtNtCs532nfEa3ofR_9open_lark4core16retry_middlewareNtB5_11RetryConfig12conservative
FNDA:0,_RNvMs0_NtNtCs532nfEa3ofR_9open_lark4core16retry_middlewareNtB5_11RetryConfig18server_errors_only
FNDA:0,_RNvMs1_NtNtCs532nfEa3ofR_9open_lark4core16retry_middlewareNtB5_12RetryAttempt10print_info
FNDA:0,_RNvMs4_NtNtCs532nfEa3ofR_9open_lark4core16retry_middlewareNtB5_10RetryStats13print_summary
FNDA:0,_RNvMs5_NtNtCs532nfEa3ofR_9open_lark4core16retry_middlewareNtB5_24RetryMiddlewareWithStats11reset_stats
FNDA:0,_RNvMs5_NtNtCs532nfEa3ofR_9open_lark4core16retry_middlewareNtB5_24RetryMiddlewareWithStats3new
FNDA:0,_RNvMs5_NtNtCs532nfEa3ofR_9open_lark4core16retry_middlewareNtB5_24RetryMiddlewareWithStats9get_stats
FNDA:0,_RNvXNtNtCs532nfEa3ofR_9open_lark4core16retry_middlewareNtB2_11RetryConfigNtNtCsaNl6UpbT7bw_4core3fmt5Debug3fmt
FNDA:0,_RNvXs7_NtNtCs532nfEa3ofR_9open_lark4core16retry_middlewareNtB5_20RetryStrategyBuilderNtNtCsaNl6UpbT7bw_4core7default7Default7default
FNDA:1,_RINvMs3_NtNtCs532nfEa3ofR_9open_lark4core16retry_middlewareNtB6_15RetryMiddleware7executeNCNCNvNtB6_5testss_29test_retry_middleware_failure00ReNCNCB1r_00EBa_
FNDA:1,_RINvMs3_NtNtCs532nfEa3ofR_9open_lark4core16retry_middlewareNtB6_15RetryMiddleware7executeNCNCNvNtB6_5testss_29test_retry_middleware_success00ReNCNCB1r_00EBa_
FNDA:1,_RNCINvMs3_NtNtCs532nfEa3ofR_9open_lark4core16retry_middlewareNtB8_15RetryMiddleware7executeNCNCNvNtB8_5testss_29test_retry_middleware_failure00ReNCNCB1t_00E0Bc_
FNDA:1,_RNCINvMs3_NtNtCs532nfEa3ofR_9open_lark4core16retry_middlewareNtB8_15RetryMiddleware7executeNCNCNvNtB8_5testss_29test_retry_middleware_success00ReNCNCB1t_00E0Bc_
FNDA:1,_RNvMs0_NtNtCs532nfEa3ofR_9open_lark4core16retry_middlewareNtB5_11RetryConfig10aggressive
FNDA:1,_RNvMs0_NtNtCs532nfEa3ofR_9open_lark4core16retry_middlewareNtB5_11RetryConfig16default_strategy
FNDA:2,_RNvMs0_NtNtCs532nfEa3ofR_9open_lark4core16retry_middlewareNtB5_11RetryConfig3new
FNDA:1,_RNvMs0_NtNtCs532nfEa3ofR_9open_lark4core16retry_middlewareNtB5_11RetryConfig7enabled
FNDA:3,_RNvMs1_NtNtCs532nfEa3ofR_9open_lark4core16retry_middlewareNtB5_12RetryAttempt16is_final_attempt
FNDA:1,_RNvMs1_NtNtCs532nfEa3ofR_9open_lark4core16retry_middlewareNtB5_12RetryAttempt18remaining_attempts
FNDA:3,_RNvMs3_NtNtCs532nfEa3ofR_9open_lark4core16retry_middlewareNtB5_15RetryMiddleware12should_retry
FNDA:2,_RNvMs3_NtNtCs532nfEa3ofR_9open_lark4core16retry_middlewareNtB5_15RetryMiddleware15calculate_delay
FNDA:2,_RNvMs3_NtNtCs532nfEa3ofR_9open_lark4core16retry_middlewareNtB5_15RetryMiddleware3new
FNDA:1,_RNvMs4_NtNtCs532nfEa3ofR_9open_lark4core16retry_middlewareNtB5_10RetryStats12success_rate
FNDA:4,_RNvMs6_NtNtCs532nfEa3ofR_9open_lark4core16retry_middlewareNtB5_20RetryStrategyBuilder10base_delay
FNDA:1,_RNvMs6_NtNtCs532nfEa3ofR_9open_lark4core16retry_middlewareNtB5_20RetryStrategyBuilder11exponential
FNDA:4,_RNvMs6_NtNtCs532nfEa3ofR_9open_lark4core16retry_middlewareNtB5_20RetryStrategyBuilder12max_attempts
FNDA:4,_RNvMs6_NtNtCs532nfEa3ofR_9open_lark4core16retry_middlewareNtB5_20RetryStrategyBuilder19exponential_backoff
FNDA:4,_RNvMs6_NtNtCs532nfEa3ofR_9open_lark4core16retry_middlewareNtB5_20RetryStrategyBuilder3new
FNDA:4,_RNvMs6_NtNtCs532nfEa3ofR_9open_lark4core16retry_middlewareNtB5_20RetryStrategyBuilder5build
FNDA:2,_RNvMs6_NtNtCs532nfEa3ofR_9open_lark4core16retry_middlewareNtB5_20RetryStrategyBuilder6linear
FNDA:1,_RNvMs6_NtNtCs532nfEa3ofR_9open_lark4core16retry_middlewareNtB5_20RetryStrategyBuilder9max_delay
FNDA:1,_RNvXs2_NtNtCs532nfEa3ofR_9open_lark4core16retry_middlewareNtB5_15RetryMiddlewareNtNtCsaNl6UpbT7bw_4core7default7Default7default
FNDA:3,_RNvXs_NtNtCs532nfEa3ofR_9open_lark4core16retry_middlewareNtB4_11RetryConfigNtNtCsaNl6UpbT7bw_4core7default7Default7default
FNDA:2,_RNCNCNCNvNtNtNtCs532nfEa3ofR_9open_lark4core16retry_middleware5testss_29test_retry_middleware_failure000Bd_
FNDA:2,_RNCNCNCNvNtNtNtCs532nfEa3ofR_9open_lark4core16retry_middleware5testss_29test_retry_middleware_success000Bd_
FNDA:2,_RNCNCNvNtNtNtCs532nfEa3ofR_9open_lark4core16retry_middleware5testss_29test_retry_middleware_failure00Bb_
FNDA:2,_RNCNCNvNtNtNtCs532nfEa3ofR_9open_lark4core16retry_middleware5testss_29test_retry_middleware_success00Bb_
FNDA:1,_RNCNvNtNtNtCs532nfEa3ofR_9open_lark4core16retry_middleware5testss_29test_retry_middleware_failure0B9_
FNDA:1,_RNCNvNtNtNtCs532nfEa3ofR_9open_lark4core16retry_middleware5testss_29test_retry_middleware_success0B9_
FNF:51
FNH:36
DA:29,0
DA:30,0
DA:31,0
DA:32,0
DA:33,0
DA:34,0
DA:35,0
DA:37,0
DA:38,0
DA:39,0
DA:40,0
DA:41,0
DA:42,0
DA:44,0
DA:45,0
DA:49,3
DA:50,3
DA:51,3
DA:52,3
DA:53,3
DA:54,3
DA:55,3
DA:56,3
DA:61,2
DA:62,2
DA:63,2
DA:66,1
DA:67,1
DA:68,1
DA:69,1
DA:72,1
DA:73,1
DA:74,1
DA:75,1
DA:78,0
DA:79,0
DA:80,0
DA:82,0
DA:83,0
DA:84,0
DA:87,0
DA:88,0
DA:89,0
DA:91,0
DA:92,0
DA:93,0
DA:96,0
DA:97,0
DA:98,0
DA:99,0
DA:101,0
DA:102,0
DA:103,0
DA:104,0
DA:105,0
DA:107,0
DA:108,0
DA:109,0
DA:110,0
DA:113,1
DA:114,1
DA:115,1
DA:116,1
DA:117,1
DA:118,1
DA:119,1
DA:120,1
DA:121,1
DA:124,0
DA:125,0
DA:126,0
DA:127,0
DA:128,0
DA:129,0
DA:130,0
DA:131,0
DA:132,0
DA:154,3
DA:155,3
DA:156,3
DA:159,1
DA:160,1
DA:161,1
DA:164,0
DA:165,0
DA:166,0
DA:167,0
DA:170,0
DA:179,1
DA:180,1
DA:181,1
DA:186,2
DA:187,2
DA:188,2
DA:191,2
DA:192,2
DA:193,2
DA:194,2
DA:195,2
DA:196,2
DA:197,0
DA:198,2
DA:200,2
DA:201,2
DA:203,4
DA:204,4
DA:206,4
DA:207,1
DA:208,3
DA:209,3
DA:212,3
DA:213,1
DA:214,2
DA:217,2
DA:218,2
DA:221,2
DA:222,2
DA:223,2
DA:224,2
DA:225,2
DA:226,2
DA:227,2
DA:228,2
DA:231,2
DA:232,0
DA:233,2
DA:236,2
DA:237,2
DA:238,0
DA:244,0
DA:245,2
DA:248,3
DA:250,3
DA:251,1
DA:252,2
DA:255,2
DA:256,0
DA:257,2
DA:260,2
DA:261,3
DA:264,2
DA:265,2
DA:266,2
DA:286,1
DA:287,1
DA:288,0
DA:290,1
DA:292,1
DA:295,0
DA:296,0
DA:297,0
DA:298,0
DA:299,0
DA:300,0
DA:301,0
DA:302,0
DA:303,0
DA:314,0
DA:315,0
DA:316,0
DA:319,0
DA:320,0
DA:321,0
DA:322,0
DA:323,0
DA:324,0
DA:325,0
DA:327,0
DA:328,0
DA:329,0
DA:330,0
DA:331,0
DA:334,0
DA:335,0
DA:336,0
DA:337,0
DA:338,0
DA:339,0
DA:342,0
DA:343,0
DA:344,0
DA:345,0
DA:346,0
DA:348,0
DA:349,0
DA:352,0
DA:353,0
DA:354,0
DA:355,0
DA:356,0
DA:357,0
DA:358,0
DA:359,0
DA:360,0
DA:361,0
DA:364,0
DA:365,0
DA:366,0
DA:367,0
DA:368,0
DA:378,4
DA:379,4
DA:380,4
DA:381,4
DA:382,4
DA:385,4
DA:386,4
DA:387,4
DA:388,4
DA:391,4
DA:392,4
DA:393,4
DA:394,4
DA:397,1
DA:398,1
DA:399,1
DA:400,1
DA:403,4
DA:404,4
DA:405,4
DA:406,4
DA:409,4
DA:410,4
DA:411,4
DA:414,2
DA:415,2
DA:416,2
DA:417,2
DA:418,2
DA:419,2
DA:420,2
DA:423,1
DA:424,1
DA:425,1
DA:426,1
DA:427,1
DA:428,1
DA:429,1
DA:430,1
DA:431,1
DA:432,1
DA:433,1
DA:434,1
DA:438,0
DA:439,0
DA:440,0
DA:448,1
DA:449,1
DA:451,1
DA:452,1
DA:453,1
DA:456,1
DA:457,1
DA:458,1
DA:459,1
DA:460,1
DA:461,1
DA:463,1
DA:464,1
DA:465,1
DA:466,1
DA:469,1
DA:470,1
DA:472,1
DA:473,1
DA:474,1
DA:475,1
DA:478,1
DA:479,1
DA:481,1
DA:482,1
DA:485,1
DA:486,1
DA:487,1
DA:488,1
DA:489,1
DA:492,1
DA:493,1
DA:494,1
DA:495,1
DA:496,1
DA:497,1
DA:498,1
DA:499,1
DA:500,1
DA:501,1
DA:503,1
DA:504,1
DA:505,1
DA:508,1
DA:509,1
DA:510,1
DA:511,1
DA:512,1
DA:513,1
DA:514,1
DA:515,1
DA:517,1
DA:518,1
DA:521,1
DA:527,1
DA:528,1
DA:530,1
DA:531,1
DA:532,2
DA:533,2
DA:534,2
DA:535,2
DA:536,1
DA:538,1
DA:540,2
DA:541,2
DA:542,1
DA:544,1
DA:545,1
DA:546,1
DA:547,1
DA:550,1
DA:556,1
DA:557,1
DA:559,1
DA:560,1
DA:562,1
DA:563,1
DA:564,2
DA:565,2
DA:566,2
DA:567,2
DA:568,1
DA:570,1
DA:571,1
DA:572,1
BRF:0
BRH:0
LF:340
LH:222
end_of_record
SF:/Users/zool/RustroverProjects/open-lark/src/core/standard_response.rs
FN:126,_RNvNtNtNtCs532nfEa3ofR_9open_lark4core17standard_response5testss_20test_failed_response
FN:173,_RNvNtNtNtCs532nfEa3ofR_9open_lark4core17standard_response5testss_28test_data_or_default_failure
FN:158,_RNvNtNtNtCs532nfEa3ofR_9open_lark4core17standard_response5testss_28test_data_or_default_no_data
FN:141,_RNvNtNtNtCs532nfEa3ofR_9open_lark4core17standard_response5testss_28test_data_or_default_success
FN:88,_RNvNtNtNtCs532nfEa3ofR_9open_lark4core17standard_response5testss_34test_successful_response_with_data
FN:106,_RNvNtNtNtCs532nfEa3ofR_9open_lark4core17standard_response5testss_37test_successful_response_without_data
FN:58,_RNvXININtNtCs532nfEa3ofR_9open_lark4core17standard_responses_0pEINtNtCsaNl6UpbT7bw_4core6result6ResultINtNtB7_8api_resp12BaseResponsepENtNtB7_5error12LarkAPIErrorEINtB5_16StandardResponsepE11into_resultB9_
FN:65,_RNvXININtNtCs532nfEa3ofR_9open_lark4core17standard_responses_0pEINtNtCsaNl6UpbT7bw_4core6result6ResultINtNtB7_8api_resp12BaseResponsepENtNtB7_5error12LarkAPIErrorEINtB5_16StandardResponsepE15data_or_defaultB9_
FN:28,_RNvXNtNtCs532nfEa3ofR_9open_lark4core17standard_responseINtNtB4_8api_resp12BaseResponseNtNtB2_5tests8TestDataEINtB2_16StandardResponseB1n_E11into_resultB6_
FN:45,_RNvXNtNtCs532nfEa3ofR_9open_lark4core17standard_responseINtNtB4_8api_resp12BaseResponseNtNtB2_5tests8TestDataEINtB2_16StandardResponseB1n_E15data_or_defaultB6_
FN:40,_RNCNvXNtNtCs532nfEa3ofR_9open_lark4core17standard_responseINtNtB6_8api_resp12BaseResponseNtNtB4_5tests8TestDataEINtB4_16StandardResponseB1p_E11into_result0B8_
FNDA:1,_RNvNtNtNtCs532nfEa3ofR_9open_lark4core17standard_response5testss_20test_failed_response
FNDA:1,_RNvNtNtNtCs532nfEa3ofR_9open_lark4core17standard_response5testss_28test_data_or_default_failure
FNDA:1,_RNvNtNtNtCs532nfEa3ofR_9open_lark4core17standard_response5testss_28test_data_or_default_no_data
FNDA:1,_RNvNtNtNtCs532nfEa3ofR_9open_lark4core17standard_response5testss_28test_data_or_default_success
FNDA:1,_RNvNtNtNtCs532nfEa3ofR_9open_lark4core17standard_response5testss_34test_successful_response_with_data
FNDA:1,_RNvNtNtNtCs532nfEa3ofR_9open_lark4core17standard_response5testss_37test_successful_response_without_data
FNDA:0,_RNvXININtNtCs532nfEa3ofR_9open_lark4core17standard_responses_0pEINtNtCsaNl6UpbT7bw_4core6result6ResultINtNtB7_8api_resp12BaseResponsepENtNtB7_5error12LarkAPIErrorEINtB5_16StandardResponsepE11into_resultB9_
FNDA:0,_RNvXININtNtCs532nfEa3ofR_9open_lark4core17standard_responses_0pEINtNtCsaNl6UpbT7bw_4core6result6ResultINtNtB7_8api_resp12BaseResponsepENtNtB7_5error12LarkAPIErrorEINtB5_16StandardResponsepE15data_or_defaultB9_
FNDA:3,_RNvXNtNtCs532nfEa3ofR_9open_lark4core17standard_responseINtNtB4_8api_resp12BaseResponseNtNtB2_5tests8TestDataEINtB2_16StandardResponseB1n_E11into_resultB6_
FNDA:3,_RNvXNtNtCs532nfEa3ofR_9open_lark4core17standard_responseINtNtB4_8api_resp12BaseResponseNtNtB2_5tests8TestDataEINtB2_16StandardResponseB1n_E15data_or_defaultB6_
FNDA:0,_RNCNvXNtNtCs532nfEa3ofR_9open_lark4core17standard_responseINtNtB6_8api_resp12BaseResponseNtNtB4_5tests8TestDataEINtB4_16StandardResponseB1p_E11into_result0B8_
FNF:11
FNH:8
DA:28,3
DA:29,3
DA:30,2
DA:31,1
DA:32,1
DA:33,1
DA:34,1
DA:38,1
DA:39,1
DA:40,1
DA:43,3
DA:45,3
DA:46,3
DA:47,3
DA:49,3
DA:50,2
DA:52,1
DA:54,3
DA:58,0
DA:59,0
DA:60,0
DA:61,0
DA:63,0
DA:65,0
DA:66,0
DA:67,0
DA:69,0
DA:70,0
DA:71,0
DA:73,0
DA:88,1
DA:89,1
DA:90,1
DA:91,1
DA:92,1
DA:93,1
DA:94,1
DA:95,1
DA:96,1
DA:97,1
DA:98,1
DA:100,1
DA:101,1
DA:102,1
DA:103,1
DA:106,1
DA:107,1
DA:108,1
DA:109,1
DA:110,1
DA:111,1
DA:112,1
DA:113,1
DA:114,1
DA:116,1
DA:117,1
DA:118,1
DA:119,1
DA:121,0
DA:123,1
DA:126,1
DA:127,1
DA:128,1
DA:129,1
DA:130,1
DA:131,1
DA:132,1
DA:133,1
DA:134,1
DA:136,1
DA:137,1
DA:138,1
DA:141,1
DA:142,1
DA:143,1
DA:144,1
DA:145,1
DA:146,1
DA:147,1
DA:148,1
DA:149,1
DA:150,1
DA:151,1
DA:153,1
DA:154,1
DA:155,1
DA:158,1
DA:159,1
DA:160,1
DA:161,1
DA:162,1
DA:163,1
DA:164,1
DA:165,1
DA:166,1
DA:168,1
DA:169,1
DA:170,1
DA:173,1
DA:174,1
DA:175,1
DA:176,1
DA:177,1
DA:178,1
DA:179,1
DA:180,1
DA:181,1
DA:183,1
DA:184,1
DA:185,1
BRF:0
BRH:0
LF:111
LH:97
end_of_record
SF:/Users/zool/RustroverProjects/open-lark/src/core/token_manager.rs
FN:1127,_RNvNtNtNtCs532nfEa3ofR_9open_lark4core13token_manager5testss_24test_token_metrics_debug
FN:1367,_RNvNtNtNtCs532nfEa3ofR_9open_lark4core13token_manager5testss_25test_token_response_debug
FN:1029,_RNvNtNtNtCs532nfEa3ofR_9open_lark4core13token_manager5testss_27test_get_cached_tenant_keys
FN:856,_RNvNtNtNtCs532nfEa3ofR_9open_lark4core13token_manager5testss_27test_token_manager_creation
FN:931,_RNvNtNtNtCs532nfEa3ofR_9open_lark4core13token_manager5testss_27test_token_metrics_creation
FN:1076,_RNvNtNtNtCs532nfEa3ofR_9open_lark4core13token_manager5testss_28test_preheating_config_clone
FN:1093,_RNvNtNtNtCs532nfEa3ofR_9open_lark4core13token_manager5testss_28test_preheating_config_debug
FN:1113,_RNvNtNtNtCs532nfEa3ofR_9open_lark4core13token_manager5testss_29test_token_metrics_edge_cases
FN:1208,_RNvNtNtNtCs532nfEa3ofR_9open_lark4core13token_manager5testss_30test_app_access_token_response
FN:1310,_RNvNtNtNtCs532nfEa3ofR_9open_lark4core13token_manager5testss_32test_key_generation_with_unicode
FN:1236,_RNvNtNtNtCs532nfEa3ofR_9open_lark4core13token_manager5testss_33test_tenant_access_token_response
FN:1264,_RNvNtNtNtCs532nfEa3ofR_9open_lark4core13token_manager5testss_34test_token_manager_stop_preheating
FN:864,_RNvNtNtNtCs532nfEa3ofR_9open_lark4core13token_manager5testss_36test_app_access_token_key_generation
FN:1038,_RNvNtNtNtCs532nfEa3ofR_9open_lark4core13token_manager5testss_36test_cache_entry_expiry_calculations
FN:882,_RNvNtNtNtCs532nfEa3ofR_9open_lark4core13token_manager5testss_36test_cache_miss_returns_empty_string
FN:1061,_RNvNtNtNtCs532nfEa3ofR_9open_lark4core13token_manager5testss_36test_preheating_config_custom_values
FN:1276,_RNvNtNtNtCs532nfEa3ofR_9open_lark4core13token_manager5testss_36test_token_manager_concurrent_access
FN:1400,_RNvNtNtNtCs532nfEa3ofR_9open_lark4core13token_manager5testss_36test_token_manager_memory_efficiency
FN:1323,_RNvNtNtNtCs532nfEa3ofR_9open_lark4core13token_manager5testss_36test_token_metrics_atomic_operations
FN:999,_RNvNtNtNtCs532nfEa3ofR_9open_lark4core13token_manager5testss_37test_preheating_config_default_values
FN:969,_RNvNtNtNtCs532nfEa3ofR_9open_lark4core13token_manager5testss_37test_token_metrics_performance_report
FN:987,_RNvNtNtNtCs532nfEa3ofR_9open_lark4core13token_manager5testss_38test_token_manager_metrics_integration
FN:1137,_RNvNtNtNtCs532nfEa3ofR_9open_lark4core13token_manager5testss_38test_token_metrics_all_rates_with_data
FN:1351,_RNvNtNtNtCs532nfEa3ofR_9open_lark4core13token_manager5testss_39test_self_built_tenant_access_token_req
FN:871,_RNvNtNtNtCs532nfEa3ofR_9open_lark4core13token_manager5testss_39test_tenant_access_token_key_generation
FN:1192,_RNvNtNtNtCs532nfEa3ofR_9open_lark4core13token_manager5testss_39test_tenant_token_request_serialization
FN:958,_RNvNtNtNtCs532nfEa3ofR_9open_lark4core13token_manager5testss_39test_token_metrics_refresh_success_rate
FN:1103,_RNvNtNtNtCs532nfEa3ofR_9open_lark4core13token_manager5testss_39test_token_metrics_zero_division_safety
FN:1158,_RNvNtNtNtCs532nfEa3ofR_9open_lark4core13token_manager5testss_40test_token_request_structs_serialization
FN:1297,_RNvNtNtNtCs532nfEa3ofR_9open_lark4core13token_manager5testss_43test_key_generation_with_special_characters
FN:1174,_RNvNtNtNtCs532nfEa3ofR_9open_lark4core13token_manager5testss_44test_marketplace_token_request_serialization
FN:941,_RNvNtNtNtCs532nfEa3ofR_9open_lark4core13token_manager5testss_45test_token_metrics_cache_hit_rate_calculation
FN:1008,_RNvNtNtNtCs532nfEa3ofR_9open_lark4core13token_manager5testss_47test_should_preheat_token_with_custom_threshold
FN:893,_RNvNtNtNtCs532nfEa3ofR_9open_lark4core13token_manager5testss_51test_get_app_access_token_cache_miss_does_not_error
FN:393,_RNCNvMs1_NtNtCs532nfEa3ofR_9open_lark4core13token_managerNtB7_12TokenManager17preheat_app_token0Bb_
FN:421,_RNCNvMs1_NtNtCs532nfEa3ofR_9open_lark4core13token_managerNtB7_12TokenManager20preheat_tenant_token0Bb_
FN:342,_RNCNvMs1_NtNtCs532nfEa3ofR_9open_lark4core13token_managerNtB7_12TokenManager20should_preheat_token0Bb_
FN:257,_RNCNvMs1_NtNtCs532nfEa3ofR_9open_lark4core13token_managerNtB7_12TokenManager24preheat_tokens_if_needed0Bb_
FN:275,_RNCNvMs1_NtNtCs532nfEa3ofR_9open_lark4core13token_managerNtB7_12TokenManager36preheat_tokens_if_needed_with_config0Bb_
FN:220,_RNCNvMs1_NtNtCs532nfEa3ofR_9open_lark4core13token_managerNtB7_12TokenManager39start_background_preheating_with_config0Bb_
FN:176,_RNvMs1_NtNtCs532nfEa3ofR_9open_lark4core13token_managerNtB5_12TokenManager11get_metrics
FN:389,_RNvMs1_NtNtCs532nfEa3ofR_9open_lark4core13token_managerNtB5_12TokenManager17preheat_app_token
FN:416,_RNvMs1_NtNtCs532nfEa3ofR_9open_lark4core13token_managerNtB5_12TokenManager20preheat_tenant_token
FN:342,_RNvMs1_NtNtCs532nfEa3ofR_9open_lark4core13token_managerNtB5_12TokenManager20should_preheat_token
FN:252,_RNvMs1_NtNtCs532nfEa3ofR_9open_lark4core13token_managerNtB5_12TokenManager24preheat_tokens_if_needed
FN:192,_RNvMs1_NtNtCs532nfEa3ofR_9open_lark4core13token_managerNtB5_12TokenManager27start_background_preheating
FN:269,_RNvMs1_NtNtCs532nfEa3ofR_9open_lark4core13token_managerNtB5_12TokenManager36preheat_tokens_if_needed_with_config
FN:205,_RNvMs1_NtNtCs532nfEa3ofR_9open_lark4core13token_managerNtB5_12TokenManager39start_background_preheating_with_config
FN:171,_RNvMs1_NtNtCs532nfEa3ofR_9open_lark4core13token_managerNtB5_12TokenManager9get_cache
FN:151,_RNvXs0_NtNtCs532nfEa3ofR_9open_lark4core13token_managerNtB5_12TokenManagerNtNtCsaNl6UpbT7bw_4core7default7Default7default
FN:357,_RNCNCNvMs1_NtNtCs532nfEa3ofR_9open_lark4core13token_managerNtB9_12TokenManager35should_preheat_token_with_threshold00Bd_
FN:462,_RNCNvMs1_NtNtCs532nfEa3ofR_9open_lark4core13token_managerNtB7_12TokenManager20get_app_access_token0Bb_
FN:381,_RNCNvMs1_NtNtCs532nfEa3ofR_9open_lark4core13token_managerNtB7_12TokenManager22get_cached_tenant_keys0Bb_
FN:612,_RNCNvMs1_NtNtCs532nfEa3ofR_9open_lark4core13token_managerNtB7_12TokenManager23get_tenant_access_token0Bb_
FN:558,_RNCNvMs1_NtNtCs532nfEa3ofR_9open_lark4core13token_managerNtB7_12TokenManager32handle_app_access_token_response0Bb_
FN:731,_RNCNvMs1_NtNtCs532nfEa3ofR_9open_lark4core13token_managerNtB7_12TokenManager35handle_tenant_access_token_response0Bb_
FN:353,_RNCNvMs1_NtNtCs532nfEa3ofR_9open_lark4core13token_managerNtB7_12TokenManager35should_preheat_token_with_threshold0Bb_
FN:538,_RNCNvMs1_NtNtCs532nfEa3ofR_9open_lark4core13token_managerNtB7_12TokenManager38get_custom_app_access_token_then_cache0Bb_
FN:707,_RNCNvMs1_NtNtCs532nfEa3ofR_9open_lark4core13token_managerNtB7_12TokenManager41get_custom_tenant_access_token_then_cache0Bb_
FN:580,_RNCNvMs1_NtNtCs532nfEa3ofR_9open_lark4core13token_managerNtB7_12TokenManager43get_marketplace_app_access_token_then_cache0Bb_
FN:758,_RNCNvMs1_NtNtCs532nfEa3ofR_9open_lark4core13token_managerNtB7_12TokenManager46get_marketplace_tenant_access_token_then_cache0Bb_
FN:457,_RNvMs1_NtNtCs532nfEa3ofR_9open_lark4core13token_managerNtB5_12TokenManager20get_app_access_token
FN:454,_RNvMs1_NtNtCs532nfEa3ofR_9open_lark4core13token_managerNtB5_12TokenManager20is_preheating_active
FN:378,_RNvMs1_NtNtCs532nfEa3ofR_9open_lark4core13token_managerNtB5_12TokenManager22get_cached_tenant_keys
FN:606,_RNvMs1_NtNtCs532nfEa3ofR_9open_lark4core13token_managerNtB5_12TokenManager23get_tenant_access_token
FN:181,_RNvMs1_NtNtCs532nfEa3ofR_9open_lark4core13token_managerNtB5_12TokenManager23log_performance_metrics
FN:446,_RNvMs1_NtNtCs532nfEa3ofR_9open_lark4core13token_managerNtB5_12TokenManager26stop_background_preheating
FN:554,_RNvMs1_NtNtCs532nfEa3ofR_9open_lark4core13token_managerNtB5_12TokenManager32handle_app_access_token_response
FN:726,_RNvMs1_NtNtCs532nfEa3ofR_9open_lark4core13token_managerNtB5_12TokenManager35handle_tenant_access_token_response
FN:349,_RNvMs1_NtNtCs532nfEa3ofR_9open_lark4core13token_managerNtB5_12TokenManager35should_preheat_token_with_threshold
FN:538,_RNvMs1_NtNtCs532nfEa3ofR_9open_lark4core13token_managerNtB5_12TokenManager38get_custom_app_access_token_then_cache
FN:157,_RNvMs1_NtNtCs532nfEa3ofR_9open_lark4core13token_managerNtB5_12TokenManager3new
FN:703,_RNvMs1_NtNtCs532nfEa3ofR_9open_lark4core13token_managerNtB5_12TokenManager41get_custom_tenant_access_token_then_cache
FN:575,_RNvMs1_NtNtCs532nfEa3ofR_9open_lark4core13token_managerNtB5_12TokenManager43get_marketplace_app_access_token_then_cache
FN:752,_RNvMs1_NtNtCs532nfEa3ofR_9open_lark4core13token_managerNtB5_12TokenManager46get_marketplace_tenant_access_token_then_cache
FN:166,_RNvMs1_NtNtCs532nfEa3ofR_9open_lark4core13token_managerNtB5_12TokenManager7metrics
FN:80,_RNvMs_NtNtCs532nfEa3ofR_9open_lark4core13token_managerNtB4_12TokenMetrics18app_cache_hit_rate
FN:116,_RNvMs_NtNtCs532nfEa3ofR_9open_lark4core13token_managerNtB4_12TokenMetrics18performance_report
FN:104,_RNvMs_NtNtCs532nfEa3ofR_9open_lark4core13token_managerNtB4_12TokenMetrics20refresh_success_rate
FN:92,_RNvMs_NtNtCs532nfEa3ofR_9open_lark4core13token_managerNtB4_12TokenMetrics21tenant_cache_hit_rate
FN:75,_RNvMs_NtNtCs532nfEa3ofR_9open_lark4core13token_managerNtB4_12TokenMetrics3new
FN:787,_RNvNtNtCs532nfEa3ofR_9open_lark4core13token_manager20app_access_token_key
FN:791,_RNvNtNtCs532nfEa3ofR_9open_lark4core13token_manager23tenant_access_token_key
FN:43,_RNvXNtNtCs532nfEa3ofR_9open_lark4core13token_managerNtB2_16PreheatingConfigNtNtCsaNl6UpbT7bw_4core7default7Default7default
FN:816,_RNvXs2_NtNtCs532nfEa3ofR_9open_lark4core13token_managerNtB5_18AppAccessTokenRespNtNtB7_8api_resp16ApiResponseTrait11data_format
FN:843,_RNvXs3_NtNtCs532nfEa3ofR_9open_lark4core13token_managerNtB5_21TenantAccessTokenRespNtNtB7_8api_resp16ApiResponseTrait11data_format
FN:1281,_RNCNCNvNtNtNtCs532nfEa3ofR_9open_lark4core13token_manager5testss_36test_token_manager_concurrent_access00Bb_
FN:1286,_RNCNCNvNtNtNtCs532nfEa3ofR_9open_lark4core13token_manager5testss_36test_token_manager_concurrent_access0s_0Bb_
FN:1328,_RNCNCNvNtNtNtCs532nfEa3ofR_9open_lark4core13token_manager5testss_36test_token_metrics_atomic_operations00Bb_
FN:1029,_RNCNvNtNtNtCs532nfEa3ofR_9open_lark4core13token_manager5testss_27test_get_cached_tenant_keys0B9_
FN:1264,_RNCNvNtNtNtCs532nfEa3ofR_9open_lark4core13token_manager5testss_34test_token_manager_stop_preheating0B9_
FN:882,_RNCNvNtNtNtCs532nfEa3ofR_9open_lark4core13token_manager5testss_36test_cache_miss_returns_empty_string0B9_
FN:1276,_RNCNvNtNtNtCs532nfEa3ofR_9open_lark4core13token_manager5testss_36test_token_manager_concurrent_access0B9_
FN:1402,_RNCNvNtNtNtCs532nfEa3ofR_9open_lark4core13token_manager5testss_36test_token_manager_memory_efficiency0B9_
FN:1323,_RNCNvNtNtNtCs532nfEa3ofR_9open_lark4core13token_manager5testss_36test_token_metrics_atomic_operations0B9_
FN:999,_RNCNvNtNtNtCs532nfEa3ofR_9open_lark4core13token_manager5testss_37test_preheating_config_default_values0B9_
FN:987,_RNCNvNtNtNtCs532nfEa3ofR_9open_lark4core13token_manager5testss_38test_token_manager_metrics_integration0B9_
FN:1008,_RNCNvNtNtNtCs532nfEa3ofR_9open_lark4core13token_manager5testss_47test_should_preheat_token_with_custom_threshold0B9_
FN:893,_RNCNvNtNtNtCs532nfEa3ofR_9open_lark4core13token_manager5testss_51test_get_app_access_token_cache_miss_does_not_error0B9_
FNDA:1,_RNvNtNtNtCs532nfEa3ofR_9open_lark4core13token_manager5testss_24test_token_metrics_debug
FNDA:1,_RNvNtNtNtCs532nfEa3ofR_9open_lark4core13token_manager5testss_25test_token_response_debug
FNDA:1,_RNvNtNtNtCs532nfEa3ofR_9open_lark4core13token_manager5testss_27test_get_cached_tenant_keys
FNDA:1,_RNvNtNtNtCs532nfEa3ofR_9open_lark4core13token_manager5testss_27test_token_manager_creation
FNDA:1,_RNvNtNtNtCs532nfEa3ofR_9open_lark4core13token_manager5testss_27test_token_metrics_creation
FNDA:1,_RNvNtNtNtCs532nfEa3ofR_9open_lark4core13token_manager5testss_28test_preheating_config_clone
FNDA:1,_RNvNtNtNtCs532nfEa3ofR_9open_lark4core13token_manager5testss_28test_preheating_config_debug
FNDA:1,_RNvNtNtNtCs532nfEa3ofR_9open_lark4core13token_manager5testss_29test_token_metrics_edge_cases
FNDA:1,_RNvNtNtNtCs532nfEa3ofR_9open_lark4core13token_manager5testss_30test_app_access_token_response
FNDA:1,_RNvNtNtNtCs532nfEa3ofR_9open_lark4core13token_manager5testss_32test_key_generation_with_unicode
FNDA:1,_RNvNtNtNtCs532nfEa3ofR_9open_lark4core13token_manager5testss_33test_tenant_access_token_response
FNDA:1,_RNvNtNtNtCs532nfEa3ofR_9open_lark4core13token_manager5testss_34test_token_manager_stop_preheating
FNDA:1,_RNvNtNtNtCs532nfEa3ofR_9open_lark4core13token_manager5testss_36test_app_access_token_key_generation
FNDA:1,_RNvNtNtNtCs532nfEa3ofR_9open_lark4core13token_manager5testss_36test_cache_entry_expiry_calculations
FNDA:1,_RNvNtNtNtCs532nfEa3ofR_9open_lark4core13token_manager5testss_36test_cache_miss_returns_empty_string
FNDA:1,_RNvNtNtNtCs532nfEa3ofR_9open_lark4core13token_manager5testss_36test_preheating_config_custom_values
FNDA:1,_RNvNtNtNtCs532nfEa3ofR_9open_lark4core13token_manager5testss_36test_token_manager_concurrent_access
FNDA:1,_RNvNtNtNtCs532nfEa3ofR_9open_lark4core13token_manager5testss_36test_token_manager_memory_efficiency
FNDA:1,_RNvNtNtNtCs532nfEa3ofR_9open_lark4core13token_manager5testss_36test_token_metrics_atomic_operations
FNDA:1,_RNvNtNtNtCs532nfEa3ofR_9open_lark4core13token_manager5testss_37test_preheating_config_default_values
FNDA:1,_RNvNtNtNtCs532nfEa3ofR_9open_lark4core13token_manager5testss_37test_token_metrics_performance_report
FNDA:1,_RNvNtNtNtCs532nfEa3ofR_9open_lark4core13token_manager5testss_38test_token_manager_metrics_integration
FNDA:1,_RNvNtNtNtCs532nfEa3ofR_9open_lark4core13token_manager5testss_38test_token_metrics_all_rates_with_data
FNDA:1,_RNvNtNtNtCs532nfEa3ofR_9open_lark4core13token_manager5testss_39test_self_built_tenant_access_token_req
FNDA:1,_RNvNtNtNtCs532nfEa3ofR_9open_lark4core13token_manager5testss_39test_tenant_access_token_key_generation
FNDA:1,_RNvNtNtNtCs532nfEa3ofR_9open_lark4core13token_manager5testss_39test_tenant_token_request_serialization
FNDA:1,_RNvNtNtNtCs532nfEa3ofR_9open_lark4core13token_manager5testss_39test_token_metrics_refresh_success_rate
FNDA:1,_RNvNtNtNtCs532nfEa3ofR_9open_lark4core13token_manager5testss_39test_token_metrics_zero_division_safety
FNDA:1,_RNvNtNtNtCs532nfEa3ofR_9open_lark4core13token_manager5testss_40test_token_request_structs_serialization
FNDA:1,_RNvNtNtNtCs532nfEa3ofR_9open_lark4core13token_manager5testss_43test_key_generation_with_special_characters
FNDA:1,_RNvNtNtNtCs532nfEa3ofR_9open_lark4core13token_manager5testss_44test_marketplace_token_request_serialization
FNDA:1,_RNvNtNtNtCs532nfEa3ofR_9open_lark4core13token_manager5testss_45test_token_metrics_cache_hit_rate_calculation
FNDA:1,_RNvNtNtNtCs532nfEa3ofR_9open_lark4core13token_manager5testss_47test_should_preheat_token_with_custom_threshold
FNDA:1,_RNvNtNtNtCs532nfEa3ofR_9open_lark4core13token_manager5testss_51test_get_app_access_token_cache_miss_does_not_error
FNDA:0,_RNCNvMs1_NtNtCs532nfEa3ofR_9open_lark4core13token_managerNtB7_12TokenManager17preheat_app_token0Bb_
FNDA:0,_RNCNvMs1_NtNtCs532nfEa3ofR_9open_lark4core13token_managerNtB7_12TokenManager20preheat_tenant_token0Bb_
FNDA:0,_RNCNvMs1_NtNtCs532nfEa3ofR_9open_lark4core13token_managerNtB7_12TokenManager20should_preheat_token0Bb_
FNDA:0,_RNCNvMs1_NtNtCs532nfEa3ofR_9open_lark4core13token_managerNtB7_12TokenManager24preheat_tokens_if_needed0Bb_
FNDA:0,_RNCNvMs1_NtNtCs532nfEa3ofR_9open_lark4core13token_managerNtB7_12TokenManager36preheat_tokens_if_needed_with_config0Bb_
FNDA:0,_RNCNvMs1_NtNtCs532nfEa3ofR_9open_lark4core13token_managerNtB7_12TokenManager39start_background_preheating_with_config0Bb_
FNDA:0,_RNvMs1_NtNtCs532nfEa3ofR_9open_lark4core13token_managerNtB5_12TokenManager11get_metrics
FNDA:0,_RNvMs1_NtNtCs532nfEa3ofR_9open_lark4core13token_managerNtB5_12TokenManager17preheat_app_token
FNDA:0,_RNvMs1_NtNtCs532nfEa3ofR_9open_lark4core13token_managerNtB5_12TokenManager20preheat_tenant_token
FNDA:0,_RNvMs1_NtNtCs532nfEa3ofR_9open_lark4core13token_managerNtB5_12TokenManager20should_preheat_token
FNDA:0,_RNvMs1_NtNtCs532nfEa3ofR_9open_lark4core13token_managerNtB5_12TokenManager24preheat_tokens_if_needed
FNDA:0,_RNvMs1_NtNtCs532nfEa3ofR_9open_lark4core13token_managerNtB5_12TokenManager27start_background_preheating
FNDA:0,_RNvMs1_NtNtCs532nfEa3ofR_9open_lark4core13token_managerNtB5_12TokenManager36preheat_tokens_if_needed_with_config
FNDA:0,_RNvMs1_NtNtCs532nfEa3ofR_9open_lark4core13token_managerNtB5_12TokenManager39start_background_preheating_with_config
FNDA:0,_RNvMs1_NtNtCs532nfEa3ofR_9open_lark4core13token_managerNtB5_12TokenManager9get_cache
FNDA:0,_RNvXs0_NtNtCs532nfEa3ofR_9open_lark4core13token_managerNtB5_12TokenManagerNtNtCsaNl6UpbT7bw_4core7default7Default7default
FNDA:2,_RNCNCNvMs1_NtNtCs532nfEa3ofR_9open_lark4core13token_managerNtB9_12TokenManager35should_preheat_token_with_threshold00Bd_
FNDA:9,_RNCNvMs1_NtNtCs532nfEa3ofR_9open_lark4core13token_managerNtB7_12TokenManager20get_app_access_token0Bb_
FNDA:1,_RNCNvMs1_NtNtCs532nfEa3ofR_9open_lark4core13token_managerNtB7_12TokenManager22get_cached_tenant_keys0Bb_
FNDA:2,_RNCNvMs1_NtNtCs532nfEa3ofR_9open_lark4core13token_managerNtB7_12TokenManager23get_tenant_access_token0Bb_
FNDA:0,_RNCNvMs1_NtNtCs532nfEa3ofR_9open_lark4core13token_managerNtB7_12TokenManager32handle_app_access_token_response0Bb_
FNDA:0,_RNCNvMs1_NtNtCs532nfEa3ofR_9open_lark4core13token_managerNtB7_12TokenManager35handle_tenant_access_token_response0Bb_
FNDA:3,_RNCNvMs1_NtNtCs532nfEa3ofR_9open_lark4core13token_managerNtB7_12TokenManager35should_preheat_token_with_threshold0Bb_
FNDA:9,_RNCNvMs1_NtNtCs532nfEa3ofR_9open_lark4core13token_managerNtB7_12TokenManager38get_custom_app_access_token_then_cache0Bb_
FNDA:1,_RNCNvMs1_NtNtCs532nfEa3ofR_9open_lark4core13token_managerNtB7_12TokenManager41get_custom_tenant_access_token_then_cache0Bb_
FNDA:1,_RNCNvMs1_NtNtCs532nfEa3ofR_9open_lark4core13token_managerNtB7_12TokenManager43get_marketplace_app_access_token_then_cache0Bb_
FNDA:1,_RNCNvMs1_NtNtCs532nfEa3ofR_9open_lark4core13token_managerNtB7_12TokenManager46get_marketplace_tenant_access_token_then_cache0Bb_
FNDA:9,_RNvMs1_NtNtCs532nfEa3ofR_9open_lark4core13token_managerNtB5_12TokenManager20get_app_access_token
FNDA:2,_RNvMs1_NtNtCs532nfEa3ofR_9open_lark4core13token_managerNtB5_12TokenManager20is_preheating_active
FNDA:1,_RNvMs1_NtNtCs532nfEa3ofR_9open_lark4core13token_managerNtB5_12TokenManager22get_cached_tenant_keys
FNDA:2,_RNvMs1_NtNtCs532nfEa3ofR_9open_lark4core13token_managerNtB5_12TokenManager23get_tenant_access_token
FNDA:1,_RNvMs1_NtNtCs532nfEa3ofR_9open_lark4core13token_managerNtB5_12TokenManager23log_performance_metrics
FNDA:1,_RNvMs1_NtNtCs532nfEa3ofR_9open_lark4core13token_managerNtB5_12TokenManager26stop_background_preheating
FNDA:0,_RNvMs1_NtNtCs532nfEa3ofR_9open_lark4core13token_managerNtB5_12TokenManager32handle_app_access_token_response
FNDA:0,_RNvMs1_NtNtCs532nfEa3ofR_9open_lark4core13token_managerNtB5_12TokenManager35handle_tenant_access_token_response
FNDA:3,_RNvMs1_NtNtCs532nfEa3ofR_9open_lark4core13token_managerNtB5_12TokenManager35should_preheat_token_with_threshold
FNDA:9,_RNvMs1_NtNtCs532nfEa3ofR_9open_lark4core13token_managerNtB5_12TokenManager38get_custom_app_access_token_then_cache
FNDA:309,_RNvMs1_NtNtCs532nfEa3ofR_9open_lark4core13token_managerNtB5_12TokenManager3new
FNDA:1,_RNvMs1_NtNtCs532nfEa3ofR_9open_lark4core13token_managerNtB5_12TokenManager41get_custom_tenant_access_token_then_cache
FNDA:1,_RNvMs1_NtNtCs532nfEa3ofR_9open_lark4core13token_managerNtB5_12TokenManager43get_marketplace_app_access_token_then_cache
FNDA:1,_RNvMs1_NtNtCs532nfEa3ofR_9open_lark4core13token_managerNtB5_12TokenManager46get_marketplace_tenant_access_token_then_cache
FNDA:1,_RNvMs1_NtNtCs532nfEa3ofR_9open_lark4core13token_managerNtB5_12TokenManager7metrics
FNDA:7,_RNvMs_NtNtCs532nfEa3ofR_9open_lark4core13token_managerNtB4_12TokenMetrics18app_cache_hit_rate
FNDA:1,_RNvMs_NtNtCs532nfEa3ofR_9open_lark4core13token_managerNtB4_12TokenMetrics18performance_report
FNDA:5,_RNvMs_NtNtCs532nfEa3ofR_9open_lark4core13token_managerNtB4_12TokenMetrics20refresh_success_rate
FNDA:5,_RNvMs_NtNtCs532nfEa3ofR_9open_lark4core13token_managerNtB4_12TokenMetrics21tenant_cache_hit_rate
FNDA:318,_RNvMs_NtNtCs532nfEa3ofR_9open_lark4core13token_managerNtB4_12TokenMetrics3new
FNDA:12,_RNvNtNtCs532nfEa3ofR_9open_lark4core13token_manager20app_access_token_key
FNDA:5,_RNvNtNtCs532nfEa3ofR_9open_lark4core13token_manager23tenant_access_token_key
FNDA:3,_RNvXNtNtCs532nfEa3ofR_9open_lark4core13token_managerNtB2_16PreheatingConfigNtNtCsaNl6UpbT7bw_4core7default7Default7default
FNDA:1,_RNvXs2_NtNtCs532nfEa3ofR_9open_lark4core13token_managerNtB5_18AppAccessTokenRespNtNtB7_8api_resp16ApiResponseTrait11data_format
FNDA:1,_RNvXs3_NtNtCs532nfEa3ofR_9open_lark4core13token_managerNtB5_21TenantAccessTokenRespNtNtB7_8api_resp16ApiResponseTrait11data_format
FNDA:1,_RNCNCNvNtNtNtCs532nfEa3ofR_9open_lark4core13token_manager5testss_36test_token_manager_concurrent_access00Bb_
FNDA:1,_RNCNCNvNtNtNtCs532nfEa3ofR_9open_lark4core13token_manager5testss_36test_token_manager_concurrent_access0s_0Bb_
FNDA:1,_RNCNCNvNtNtNtCs532nfEa3ofR_9open_lark4core13token_manager5testss_36test_token_metrics_atomic_operations00Bb_
FNDA:1,_RNCNvNtNtNtCs532nfEa3ofR_9open_lark4core13token_manager5testss_27test_get_cached_tenant_keys0B9_
FNDA:1,_RNCNvNtNtNtCs532nfEa3ofR_9open_lark4core13token_manager5testss_34test_token_manager_stop_preheating0B9_
FNDA:1,_RNCNvNtNtNtCs532nfEa3ofR_9open_lark4core13token_manager5testss_36test_cache_miss_returns_empty_string0B9_
FNDA:1,_RNCNvNtNtNtCs532nfEa3ofR_9open_lark4core13token_manager5testss_36test_token_manager_concurrent_access0B9_
FNDA:50,_RNCNvNtNtNtCs532nfEa3ofR_9open_lark4core13token_manager5testss_36test_token_manager_memory_efficiency0B9_
FNDA:1,_RNCNvNtNtNtCs532nfEa3ofR_9open_lark4core13token_manager5testss_36test_token_metrics_atomic_operations0B9_
FNDA:1,_RNCNvNtNtNtCs532nfEa3ofR_9open_lark4core13token_manager5testss_37test_preheating_config_default_values0B9_
FNDA:1,_RNCNvNtNtNtCs532nfEa3ofR_9open_lark4core13token_manager5testss_38test_token_manager_metrics_integration0B9_
FNDA:1,_RNCNvNtNtNtCs532nfEa3ofR_9open_lark4core13token_manager5testss_47test_should_preheat_token_with_custom_threshold0B9_
FNDA:1,_RNCNvNtNtNtCs532nfEa3ofR_9open_lark4core13token_manager5testss_51test_get_app_access_token_cache_miss_does_not_error0B9_
FNF:99
FNH:79
DA:43,3
DA:44,3
DA:45,3
DA:46,3
DA:47,3
DA:48,3
DA:49,3
DA:50,3
DA:75,318
DA:76,318
DA:77,318
DA:80,7
DA:81,7
DA:82,7
DA:83,7
DA:84,7
DA:85,5
DA:87,2
DA:89,7
DA:92,5
DA:93,5
DA:94,5
DA:95,5
DA:96,5
DA:97,2
DA:99,3
DA:101,5
DA:104,5
DA:105,5
DA:106,5
DA:107,5
DA:108,5
DA:109,3
DA:111,2
DA:113,5
DA:116,1
DA:117,1
DA:118,1
DA:119,1
DA:120,1
DA:121,1
DA:122,1
DA:123,1
DA:124,1
DA:125,1
DA:126,1
DA:127,1
DA:128,1
DA:129,1
DA:130,1
DA:131,1
DA:132,1
DA:133,1
DA:134,1
DA:135,1
DA:136,1
DA:137,1
DA:139,1
DA:151,0
DA:152,0
DA:153,0
DA:157,309
DA:158,309
DA:159,309
DA:160,309
DA:161,309
DA:162,309
DA:163,309
DA:166,1
DA:167,1
DA:168,1
DA:171,0
DA:172,0
DA:173,0
DA:176,0
DA:177,0
DA:178,0
DA:181,1
DA:182,1
DA:183,1
DA:192,0
DA:193,0
DA:194,0
DA:195,0
DA:196,0
DA:197,0
DA:198,0
DA:199,0
DA:200,0
DA:202,0
DA:205,0
DA:206,0
DA:207,0
DA:208,0
DA:209,0
DA:210,0
DA:212,0
DA:213,0
DA:214,0
DA:215,0
DA:217,0
DA:218,0
DA:220,0
DA:221,0
DA:222,0
DA:223,0
DA:224,0
DA:225,0
DA:229,0
DA:231,0
DA:232,0
DA:233,0
DA:234,0
DA:235,0
DA:236,0
DA:238,0
DA:240,0
DA:242,0
DA:246,0
DA:247,0
DA:248,0
DA:252,0
DA:253,0
DA:254,0
DA:255,0
DA:256,0
DA:257,0
DA:258,0
DA:259,0
DA:260,0
DA:261,0
DA:262,0
DA:263,0
DA:264,0
DA:265,0
DA:266,0
DA:269,0
DA:270,0
DA:271,0
DA:272,0
DA:273,0
DA:274,0
DA:275,0
DA:276,0
DA:278,0
DA:281,0
DA:282,0
DA:283,0
DA:284,0
DA:285,0
DA:286,0
DA:287,0
DA:289,0
DA:290,0
DA:291,0
DA:292,0
DA:294,0
DA:295,0
DA:296,0
DA:298,0
DA:301,0
DA:302,0
DA:303,0
DA:304,0
DA:305,0
DA:307,0
DA:308,0
DA:309,0
DA:310,0
DA:311,0
DA:312,0
DA:313,0
DA:315,0
DA:316,0
DA:317,0
DA:318,0
DA:320,0
DA:321,0
DA:323,0
DA:324,0
DA:325,0
DA:327,0
DA:329,0
DA:331,0
DA:332,0
DA:334,0
DA:337,0
DA:338,0
DA:342,0
DA:343,0
DA:344,0
DA:349,3
DA:350,3
DA:351,3
DA:352,3
DA:353,3
DA:354,3
DA:357,3
DA:358,1
DA:359,1
DA:360,2
DA:363,2
DA:364,2
DA:366,2
DA:367,1
DA:368,0
DA:370,1
DA:371,1
DA:372,0
DA:374,1
DA:375,3
DA:378,1
DA:379,1
DA:380,1
DA:381,1
DA:385,1
DA:386,1
DA:389,0
DA:390,0
DA:391,0
DA:392,0
DA:393,0
DA:395,0
DA:396,0
DA:397,0
DA:398,0
DA:399,0
DA:401,0
DA:403,0
DA:404,0
DA:405,0
DA:408,0
DA:409,0
DA:410,0
DA:413,0
DA:416,0
DA:417,0
DA:418,0
DA:419,0
DA:420,0
DA:421,0
DA:423,0
DA:424,0
DA:425,0
DA:426,0
DA:427,0
DA:429,0
DA:430,0
DA:431,0
DA:432,0
DA:434,0
DA:435,0
DA:436,0
DA:437,0
DA:438,0
DA:439,0
DA:440,0
DA:441,0
DA:443,0
DA:446,1
DA:447,1
DA:448,0
DA:449,0
DA:450,1
DA:451,1
DA:454,2
DA:455,2
DA:456,2
DA:457,9
DA:458,9
DA:459,9
DA:460,9
DA:461,9
DA:462,9
DA:463,9
DA:464,9
DA:468,9
DA:469,9
DA:470,9
DA:471,9
DA:472,9
DA:473,0
DA:474,0
DA:475,0
DA:476,0
DA:477,0
DA:478,9
DA:482,9
DA:483,9
DA:484,9
DA:487,9
DA:488,9
DA:489,9
DA:490,9
DA:493,9
DA:494,0
DA:496,0
DA:497,0
DA:498,0
DA:499,0
DA:500,0
DA:501,0
DA:502,0
DA:503,9
DA:506,9
DA:507,9
DA:509,9
DA:510,9
DA:511,9
DA:513,0
DA:514,0
DA:518,9
DA:520,0
DA:521,0
DA:523,9
DA:524,9
DA:525,9
DA:526,9
DA:527,9
DA:528,0
DA:529,0
DA:535,9
DA:536,9
DA:538,9
DA:539,9
DA:541,9
DA:542,9
DA:543,9
DA:544,9
DA:546,9
DA:548,9
DA:549,0
DA:550,0
DA:551,9
DA:554,0
DA:555,0
DA:556,0
DA:557,0
DA:558,0
DA:559,0
DA:560,0
DA:562,0
DA:563,0
DA:564,0
DA:565,0
DA:566,0
DA:567,0
DA:569,0
DA:571,0
DA:572,0
DA:574,0
DA:575,1
DA:576,1
DA:577,1
DA:578,1
DA:579,1
DA:580,1
DA:581,1
DA:582,1
DA:583,1
DA:584,1
DA:585,0
DA:586,0
DA:587,0
DA:589,0
DA:591,0
DA:593,0
DA:594,0
DA:595,0
DA:596,0
DA:597,0
DA:599,0
DA:601,0
DA:602,0
DA:603,0
DA:604,1
DA:606,2
DA:607,2
DA:608,2
DA:609,2
DA:610,2
DA:611,2
DA:612,2
DA:613,2
DA:614,2
DA:618,2
DA:619,2
DA:620,2
DA:621,2
DA:622,2
DA:623,0
DA:624,0
DA:625,0
DA:626,0
DA:627,0
DA:628,0
DA:629,0
DA:630,2
DA:634,2
DA:635,2
DA:636,2
DA:639,2
DA:640,2
DA:641,2
DA:642,2
DA:645,2
DA:646,0
DA:648,0
DA:649,0
DA:650,0
DA:651,0
DA:652,0
DA:653,0
DA:654,0
DA:655,0
DA:656,0
DA:658,0
DA:659,0
DA:660,2
DA:663,2
DA:664,2
DA:666,2
DA:667,1
DA:668,1
DA:670,1
DA:671,1
DA:672,1
DA:673,1
DA:674,1
DA:675,1
DA:676,1
DA:680,2
DA:682,0
DA:683,0
DA:684,0
DA:685,0
DA:688,2
DA:689,2
DA:690,2
DA:691,2
DA:692,2
DA:693,0
DA:694,0
DA:700,2
DA:701,2
DA:703,1
DA:704,1
DA:705,1
DA:706,1
DA:707,1
DA:708,1
DA:709,1
DA:713,1
DA:714,1
DA:715,1
DA:716,1
DA:718,1
DA:720,1
DA:721,0
DA:722,0
DA:723,1
DA:726,0
DA:727,0
DA:728,0
DA:729,0
DA:730,0
DA:731,0
DA:732,0
DA:733,0
DA:735,0
DA:736,0
DA:737,0
DA:738,0
DA:739,0
DA:740,0
DA:742,0
DA:744,0
DA:745,0
DA:748,0
DA:750,0
DA:752,1
DA:753,1
DA:754,1
DA:755,1
DA:756,1
DA:757,1
DA:758,1
DA:759,1
DA:760,1
DA:761,1
DA:763,0
DA:765,0
DA:766,0
DA:767,0
DA:768,0
DA:770,0
DA:771,0
DA:772,0
DA:773,0
DA:774,0
DA:775,0
DA:776,0
DA:777,0
DA:778,0
DA:779,0
DA:781,0
DA:782,0
DA:783,0
DA:784,1
DA:787,12
DA:788,12
DA:789,12
DA:791,5
DA:792,5
DA:793,5
DA:816,1
DA:817,1
DA:818,1
DA:843,1
DA:844,1
DA:845,1
DA:856,1
DA:857,1
DA:860,1
DA:861,1
DA:864,1
DA:865,1
DA:866,1
DA:867,1
DA:868,1
DA:871,1
DA:872,1
DA:873,1
DA:874,1
DA:875,1
DA:877,1
DA:879,1
DA:882,1
DA:883,1
DA:884,1
DA:887,1
DA:888,1
DA:889,1
DA:890,1
DA:893,1
DA:894,1
DA:895,1
DA:896,1
DA:897,1
DA:898,1
DA:899,1
DA:900,1
DA:901,1
DA:902,1
DA:903,1
DA:904,1
DA:905,1
DA:906,1
DA:907,1
DA:908,1
DA:910,1
DA:911,1
DA:916,1
DA:917,1
DA:918,1
DA:921,1
DA:922,1
DA:923,1
DA:924,1
DA:925,1
DA:926,1
DA:927,1
DA:928,1
DA:931,1
DA:932,1
DA:935,1
DA:936,1
DA:937,1
DA:938,1
DA:941,1
DA:942,1
DA:945,1
DA:946,1
DA:948,1
DA:951,1
DA:952,1
DA:954,1
DA:955,1
DA:958,1
DA:959,1
DA:962,1
DA:963,1
DA:965,1
DA:966,1
DA:969,1
DA:970,1
DA:973,1
DA:974,1
DA:975,1
DA:976,1
DA:978,1
DA:981,1
DA:982,1
DA:983,1
DA:984,1
DA:987,1
DA:988,1
DA:991,1
DA:992,1
DA:995,1
DA:996,1
DA:999,1
DA:1000,1
DA:1001,1
DA:1002,1
DA:1003,1
DA:1004,1
DA:1005,1
DA:1008,1
DA:1009,1
DA:1010,1
DA:1013,1
DA:1017,1
DA:1018,1
DA:1022,1
DA:1025,1
DA:1026,1
DA:1029,1
DA:1030,1
DA:1033,1
DA:1034,1
DA:1035,1
DA:1038,1
DA:1043,1
DA:1044,1
DA:1046,1
DA:1047,1
DA:1048,1
DA:1049,1
DA:1050,1
DA:1053,1
DA:1056,1
DA:1057,1
DA:1058,1
DA:1061,1
DA:1062,1
DA:1063,1
DA:1064,1
DA:1065,1
DA:1066,1
DA:1067,1
DA:1069,1
DA:1070,1
DA:1071,1
DA:1072,1
DA:1073,1
DA:1076,1
DA:1077,1
DA:1078,1
DA:1080,1
DA:1081,1
DA:1085,1
DA:1089,1
DA:1090,1
DA:1093,1
DA:1094,1
DA:1095,1
DA:1097,1
DA:1098,1
DA:1099,1
DA:1100,1
DA:1103,1
DA:1104,1
DA:1107,1
DA:1108,1
DA:1109,1
DA:1110,1
DA:1113,1
DA:1114,1
DA:1117,1
DA:1118,1
DA:1121,1
DA:1122,1
DA:1123,1
DA:1124,1
DA:1127,1
DA:1128,1
DA:1129,1
DA:1131,1
DA:1132,1
DA:1133,1
DA:1134,1
DA:1137,1
DA:1138,1
DA:1141,1
DA:1142,1
DA:1143,1
DA:1144,1
DA:1145,1
DA:1146,1
DA:1147,1
DA:1148,1
DA:1150,1
DA:1151,1
DA:1152,1
DA:1153,1
DA:1154,1
DA:1155,1
DA:1158,1
DA:1159,1
DA:1160,1
DA:1161,1
DA:1162,1
DA:1164,1
DA:1165,1
DA:1166,1
DA:1168,1
DA:1169,1
DA:1170,1
DA:1171,1
DA:1174,1
DA:1175,1
DA:1176,1
DA:1177,1
DA:1178,1
DA:1179,1
DA:1181,1
DA:1182,1
DA:1183,1
DA:1184,1
DA:1186,1
DA:1187,1
DA:1188,1
DA:1189,1
DA:1192,1
DA:1193,1
DA:1194,1
DA:1195,1
DA:1196,1
DA:1198,1
DA:1199,1
DA:1200,1
DA:1202,1
DA:1203,1
DA:1204,1
DA:1205,1
DA:1208,1
DA:1212,1
DA:1213,1
DA:1218,1
DA:1219,1
DA:1220,1
DA:1221,1
DA:1222,1
DA:1224,1
DA:1225,1
DA:1226,1
DA:1227,1
DA:1228,1
DA:1230,1
DA:1231,1
DA:1232,1
DA:1233,1
DA:1236,1
DA:1240,1
DA:1241,1
DA:1246,1
DA:1247,1
DA:1248,1
DA:1249,1
DA:1250,1
DA:1252,1
DA:1253,1
DA:1254,1
DA:1255,1
DA:1256,1
DA:1258,1
DA:1259,1
DA:1260,1
DA:1261,1
DA:1264,1
DA:1265,1
DA:1268,1
DA:1271,1
DA:1272,1
DA:1273,1
DA:1276,1
DA:1277,1
DA:1278,1
DA:1281,1
DA:1282,1
DA:1283,1
DA:1284,1
DA:1286,1
DA:1287,1
DA:1288,1
DA:1289,1
DA:1291,1
DA:1292,1
DA:1293,1
DA:1294,1
DA:1297,1
DA:1298,1
DA:1299,1
DA:1301,1
DA:1302,1
DA:1304,1
DA:1305,1
DA:1306,1
DA:1307,1
DA:1310,1
DA:1311,1
DA:1312,1
DA:1314,1
DA:1315,1
DA:1317,1
DA:1318,1
DA:1319,1
DA:1320,1
DA:1323,1
DA:1324,1
DA:1325,1
DA:1328,1
DA:1329,101
DA:1330,100
DA:1331,100
DA:1332,100
DA:1333,100
DA:1334,100
DA:1335,1
DA:1337,51
DA:1338,50
DA:1339,50
DA:1340,50
DA:1342,1
DA:1344,1
DA:1345,1
DA:1346,1
DA:1347,1
DA:1348,1
DA:1351,1
DA:1352,1
DA:1353,1
DA:1354,1
DA:1355,1
DA:1357,1
DA:1358,1
DA:1359,1
DA:1361,1
DA:1362,1
DA:1363,1
DA:1364,1
DA:1367,1
DA:1370,1
DA:1371,1
DA:1372,1
DA:1373,1
DA:1374,1
DA:1376,1
DA:1377,1
DA:1378,1
DA:1379,1
DA:1380,1
DA:1382,1
DA:1383,1
DA:1384,1
DA:1385,1
DA:1387,1
DA:1388,1
DA:1389,1
DA:1390,1
DA:1391,1
DA:1393,1
DA:1394,1
DA:1395,1
DA:1396,1
DA:1397,1
DA:1400,1
DA:1402,50
DA:1404,1
DA:1407,51
DA:1408,50
DA:1410,1
BRF:0
BRH:0
LF:927
LH:635
end_of_record
SF:/Users/zool/RustroverProjects/open-lark/src/core/trait_system/macros.rs
FN:120,_RNCNvMs4_NtNtNtNtNtNtCs532nfEa3ofR_9open_lark7service10cloud_docs7bitable2v112app_workflow6updateNtB7_28UpdateWorkflowRequestBuilder20execute_with_options0Bj_
FN:111,_RNCNvMs4_NtNtNtNtNtNtCs532nfEa3ofR_9open_lark7service10cloud_docs7bitable2v112app_workflow6updateNtB7_28UpdateWorkflowRequestBuilder7execute0Bj_
FN:120,_RNCNvMs4_NtNtNtNtNtNtCs532nfEa3ofR_9open_lark7service10cloud_docs7bitable2v113app_dashboard4copyNtB7_27CopyDashboardRequestBuilder20execute_with_options0Bj_
FN:111,_RNCNvMs4_NtNtNtNtNtNtCs532nfEa3ofR_9open_lark7service10cloud_docs7bitable2v113app_dashboard4copyNtB7_27CopyDashboardRequestBuilder7execute0Bj_
FN:120,_RNCNvMs4_NtNtNtNtNtNtCs532nfEa3ofR_9open_lark7service10cloud_docs7bitable2v115app_table_field6deleteNtB7_25DeleteFieldRequestBuilder20execute_with_options0Bj_
FN:111,_RNCNvMs4_NtNtNtNtNtNtCs532nfEa3ofR_9open_lark7service10cloud_docs7bitable2v115app_table_field6deleteNtB7_25DeleteFieldRequestBuilder7execute0Bj_
FN:120,_RNCNvMs4_NtNtNtNtNtNtCs532nfEa3ofR_9open_lark7service10cloud_docs7bitable2v14form3getNtB7_21GetFormRequestBuilder20execute_with_options0Bj_
FN:111,_RNCNvMs4_NtNtNtNtNtNtCs532nfEa3ofR_9open_lark7service10cloud_docs7bitable2v14form3getNtB7_21GetFormRequestBuilder7execute0Bj_
FN:120,_RNCNvMs5_NtNtNtNtNtNtCs532nfEa3ofR_9open_lark7service10cloud_docs7bitable2v114app_table_view6deleteNtB7_24DeleteViewRequestBuilder20execute_with_options0Bj_
FN:111,_RNCNvMs5_NtNtNtNtNtNtCs532nfEa3ofR_9open_lark7service10cloud_docs7bitable2v114app_table_view6deleteNtB7_24DeleteViewRequestBuilder7execute0Bj_
FN:116,_RNvMs4_NtNtNtNtNtNtCs532nfEa3ofR_9open_lark7service10cloud_docs7bitable2v112app_workflow6updateNtB5_28UpdateWorkflowRequestBuilder20execute_with_options
FN:108,_RNvMs4_NtNtNtNtNtNtCs532nfEa3ofR_9open_lark7service10cloud_docs7bitable2v112app_workflow6updateNtB5_28UpdateWorkflowRequestBuilder7execute
FN:116,_RNvMs4_NtNtNtNtNtNtCs532nfEa3ofR_9open_lark7service10cloud_docs7bitable2v113app_dashboard4copyNtB5_27CopyDashboardRequestBuilder20execute_with_options
FN:108,_RNvMs4_NtNtNtNtNtNtCs532nfEa3ofR_9open_lark7service10cloud_docs7bitable2v113app_dashboard4copyNtB5_27CopyDashboardRequestBuilder7execute
FN:116,_RNvMs4_NtNtNtNtNtNtCs532nfEa3ofR_9open_lark7service10cloud_docs7bitable2v115app_table_field6deleteNtB5_25DeleteFieldRequestBuilder20execute_with_options
FN:108,_RNvMs4_NtNtNtNtNtNtCs532nfEa3ofR_9open_lark7service10cloud_docs7bitable2v115app_table_field6deleteNtB5_25DeleteFieldRequestBuilder7execute
FN:116,_RNvMs4_NtNtNtNtNtNtCs532nfEa3ofR_9open_lark7service10cloud_docs7bitable2v14form3getNtB5_21GetFormRequestBuilder20execute_with_options
FN:108,_RNvMs4_NtNtNtNtNtNtCs532nfEa3ofR_9open_lark7service10cloud_docs7bitable2v14form3getNtB5_21GetFormRequestBuilder7execute
FN:116,_RNvMs5_NtNtNtNtNtNtCs532nfEa3ofR_9open_lark7service10cloud_docs7bitable2v114app_table_view6deleteNtB5_24DeleteViewRequestBuilder20execute_with_options
FN:108,_RNvMs5_NtNtNtNtNtNtCs532nfEa3ofR_9open_lark7service10cloud_docs7bitable2v114app_table_view6deleteNtB5_24DeleteViewRequestBuilder7execute
FN:84,_RNvXs0_NtNtNtNtCs532nfEa3ofR_9open_lark7service10attendance2v112archive_ruleNtNtB7_6models26UploadArchiveReportRequestINtNtNtNtBd_4core12trait_system18executable_builder17ExecutableBuilderNtB5_18ArchiveRuleServiceB1c_INtNtB1Z_8api_resp12BaseResponseNtB1e_27UploadArchiveReportRespDataEE20execute_with_options
FN:73,_RNvXs0_NtNtNtNtCs532nfEa3ofR_9open_lark7service10attendance2v112archive_ruleNtNtB7_6models26UploadArchiveReportRequestINtNtNtNtBd_4core12trait_system18executable_builder17ExecutableBuilderNtB5_18ArchiveRuleServiceB1c_INtNtB1Z_8api_resp12BaseResponseNtB1e_27UploadArchiveReportRespDataEE5build
FN:80,_RNvXs0_NtNtNtNtCs532nfEa3ofR_9open_lark7service10attendance2v112archive_ruleNtNtB7_6models26UploadArchiveReportRequestINtNtNtNtBd_4core12trait_system18executable_builder17ExecutableBuilderNtB5_18ArchiveRuleServiceB1c_INtNtB1Z_8api_resp12BaseResponseNtB1e_27UploadArchiveReportRespDataEE7execute
FN:84,_RNvXs0_NtNtNtNtCs532nfEa3ofR_9open_lark7service10attendance2v115user_stats_dataNtNtB7_6models25QueryStatsSettingsRequestINtNtNtNtBd_4core12trait_system18executable_builder17ExecutableBuilderNtB5_20UserStatsDataServiceB1f_INtNtB21_8api_resp12BaseResponseNtB1h_26QueryStatsSettingsRespDataEE20execute_with_options
FN:73,_RNvXs0_NtNtNtNtCs532nfEa3ofR_9open_lark7service10attendance2v115user_stats_dataNtNtB7_6models25QueryStatsSettingsRequestINtNtNtNtBd_4core12trait_system18executable_builder17ExecutableBuilderNtB5_20UserStatsDataServiceB1f_INtNtB21_8api_resp12BaseResponseNtB1h_26QueryStatsSettingsRespDataEE5build
FN:80,_RNvXs0_NtNtNtNtCs532nfEa3ofR_9open_lark7service10attendance2v115user_stats_dataNtNtB7_6models25QueryStatsSettingsRequestINtNtNtNtBd_4core12trait_system18executable_builder17ExecutableBuilderNtB5_20UserStatsDataServiceB1f_INtNtB21_8api_resp12BaseResponseNtB1h_26QueryStatsSettingsRespDataEE7execute
FN:84,_RNvXs0_NtNtNtNtCs532nfEa3ofR_9open_lark7service10attendance2v116user_task_remedyNtNtB7_6models30QueryUserAllowedRemedysRequestINtNtNtNtBd_4core12trait_system18executable_builder17ExecutableBuilderNtB5_21UserTaskRemedyServiceB1g_INtNtB27_8api_resp12BaseResponseNtB1i_31QueryUserAllowedRemedysRespDataEE20execute_with_options
FN:73,_RNvXs0_NtNtNtNtCs532nfEa3ofR_9open_lark7service10attendance2v116user_task_remedyNtNtB7_6models30QueryUserAllowedRemedysRequestINtNtNtNtBd_4core12trait_system18executable_builder17ExecutableBuilderNtB5_21UserTaskRemedyServiceB1g_INtNtB27_8api_resp12BaseResponseNtB1i_31QueryUserAllowedRemedysRespDataEE5build
FN:80,_RNvXs0_NtNtNtNtCs532nfEa3ofR_9open_lark7service10attendance2v116user_task_remedyNtNtB7_6models30QueryUserAllowedRemedysRequestINtNtNtNtBd_4core12trait_system18executable_builder17ExecutableBuilderNtB5_21UserTaskRemedyServiceB1g_INtNtB27_8api_resp12BaseResponseNtB1i_31QueryUserAllowedRemedysRespDataEE7execute
FN:84,_RNvXs1_NtNtNtNtCs532nfEa3ofR_9open_lark7service10attendance2v112archive_ruleNtNtB7_6models23DelArchiveReportRequestINtNtNtNtBd_4core12trait_system18executable_builder17ExecutableBuilderNtB5_18ArchiveRuleServiceB1c_INtNtB1W_8api_resp12BaseResponseNtB1e_24DelArchiveReportRespDataEE20execute_with_options
FN:73,_RNvXs1_NtNtNtNtCs532nfEa3ofR_9open_lark7service10attendance2v112archive_ruleNtNtB7_6models23DelArchiveReportRequestINtNtNtNtBd_4core12trait_system18executable_builder17ExecutableBuilderNtB5_18ArchiveRuleServiceB1c_INtNtB1W_8api_resp12BaseResponseNtB1e_24DelArchiveReportRespDataEE5build
FN:80,_RNvXs1_NtNtNtNtCs532nfEa3ofR_9open_lark7service10attendance2v112archive_ruleNtNtB7_6models23DelArchiveReportRequestINtNtNtNtBd_4core12trait_system18executable_builder17ExecutableBuilderNtB5_18ArchiveRuleServiceB1c_INtNtB1W_8api_resp12BaseResponseNtB1e_24DelArchiveReportRespDataEE7execute
FN:84,_RNvXs1_NtNtNtNtCs532nfEa3ofR_9open_lark7service10attendance2v115user_stats_dataNtNtB7_6models23QueryStatsFieldsRequestINtNtNtNtBd_4core12trait_system18executable_builder17ExecutableBuilderNtB5_20UserStatsDataServiceB1f_INtNtB1Z_8api_resp12BaseResponseNtB1h_24QueryStatsFieldsRespDataEE20execute_with_options
FN:73,_RNvXs1_NtNtNtNtCs532nfEa3ofR_9open_lark7service10attendance2v115user_stats_dataNtNtB7_6models23QueryStatsFieldsRequestINtNtNtNtBd_4core12trait_system18executable_builder17ExecutableBuilderNtB5_20UserStatsDataServiceB1f_INtNtB1Z_8api_resp12BaseResponseNtB1h_24QueryStatsFieldsRespDataEE5build
FN:80,_RNvXs1_NtNtNtNtCs532nfEa3ofR_9open_lark7service10attendance2v115user_stats_dataNtNtB7_6models23QueryStatsFieldsRequestINtNtNtNtBd_4core12trait_system18executable_builder17ExecutableBuilderNtB5_20UserStatsDataServiceB1f_INtNtB1Z_8api_resp12BaseResponseNtB1h_24QueryStatsFieldsRespDataEE7execute
FN:84,_RNvXs1_NtNtNtNtCs532nfEa3ofR_9open_lark7service10attendance2v116user_task_remedyNtNtB7_6models26QueryUserTaskRemedyRequestINtNtNtNtBd_4core12trait_system18executable_builder17ExecutableBuilderNtB5_21UserTaskRemedyServiceB1g_INtNtB23_8api_resp12BaseResponseNtB1i_27QueryUserTaskRemedyRespDataEE20execute_with_options
FN:73,_RNvXs1_NtNtNtNtCs532nfEa3ofR_9open_lark7service10attendance2v116user_task_remedyNtNtB7_6models26QueryUserTaskRemedyRequestINtNtNtNtBd_4core12trait_system18executable_builder17ExecutableBuilderNtB5_21UserTaskRemedyServiceB1g_INtNtB23_8api_resp12BaseResponseNtB1i_27QueryUserTaskRemedyRespDataEE5build
FN:80,_RNvXs1_NtNtNtNtCs532nfEa3ofR_9open_lark7service10attendance2v116user_task_remedyNtNtB7_6models26QueryUserTaskRemedyRequestINtNtNtNtBd_4core12trait_system18executable_builder17ExecutableBuilderNtB5_21UserTaskRemedyServiceB1g_INtNtB23_8api_resp12BaseResponseNtB1i_27QueryUserTaskRemedyRespDataEE7execute
FN:84,_RNvXs1e_NtNtNtNtNtCs532nfEa3ofR_9open_lark7service10cloud_docs5drive2v14fileNtB6_28FileUploadPartRequestBuilderINtNtNtNtBg_4core12trait_system18executable_builder17ExecutableBuilderNtB6_11FileServiceNtB6_21FileUploadPartRequestNtB6_22FileUploadPartRespDataE20execute_with_options
FN:73,_RNvXs1e_NtNtNtNtNtCs532nfEa3ofR_9open_lark7service10cloud_docs5drive2v14fileNtB6_28FileUploadPartRequestBuilderINtNtNtNtBg_4core12trait_system18executable_builder17ExecutableBuilderNtB6_11FileServiceNtB6_21FileUploadPartRequestNtB6_22FileUploadPartRespDataE5build
FN:80,_RNvXs1e_NtNtNtNtNtCs532nfEa3ofR_9open_lark7service10cloud_docs5drive2v14fileNtB6_28FileUploadPartRequestBuilderINtNtNtNtBg_4core12trait_system18executable_builder17ExecutableBuilderNtB6_11FileServiceNtB6_21FileUploadPartRequestNtB6_22FileUploadPartRespDataE7execute
FN:84,_RNvXs2_NtNtNtNtCs532nfEa3ofR_9open_lark7service10attendance2v112archive_ruleNtNtB7_6models23ListArchiveRulesRequestINtNtNtNtBd_4core12trait_system18executable_builder17ExecutableBuilderNtB5_18ArchiveRuleServiceB1c_INtNtB1W_8api_resp12BaseResponseNtB1e_24ListArchiveRulesRespDataEE20execute_with_options
FN:73,_RNvXs2_NtNtNtNtCs532nfEa3ofR_9open_lark7service10attendance2v112archive_ruleNtNtB7_6models23ListArchiveRulesRequestINtNtNtNtBd_4core12trait_system18executable_builder17ExecutableBuilderNtB5_18ArchiveRuleServiceB1c_INtNtB1W_8api_resp12BaseResponseNtB1e_24ListArchiveRulesRespDataEE5build
FN:80,_RNvXs2_NtNtNtNtCs532nfEa3ofR_9open_lark7service10attendance2v112archive_ruleNtNtB7_6models23ListArchiveRulesRequestINtNtNtNtBd_4core12trait_system18executable_builder17ExecutableBuilderNtB5_18ArchiveRuleServiceB1c_INtNtB1W_8api_resp12BaseResponseNtB1e_24ListArchiveRulesRespDataEE7execute
FN:84,_RNvXs2_NtNtNtNtCs532nfEa3ofR_9open_lark7service10attendance2v115user_stats_dataNtNtB7_6models25QueryUserStatsDataRequestINtNtNtNtBd_4core12trait_system18executable_builder17ExecutableBuilderNtB5_20UserStatsDataServiceB1f_INtNtB21_8api_resp12BaseResponseNtB1h_26QueryUserStatsDataRespDataEE20execute_with_options
FN:73,_RNvXs2_NtNtNtNtCs532nfEa3ofR_9open_lark7service10attendance2v115user_stats_dataNtNtB7_6models25QueryUserStatsDataRequestINtNtNtNtBd_4core12trait_system18executable_builder17ExecutableBuilderNtB5_20UserStatsDataServiceB1f_INtNtB21_8api_resp12BaseResponseNtB1h_26QueryUserStatsDataRespDataEE5build
FN:80,_RNvXs2_NtNtNtNtCs532nfEa3ofR_9open_lark7service10attendance2v115user_stats_dataNtNtB7_6models25QueryUserStatsDataRequestINtNtNtNtBd_4core12trait_system18executable_builder17ExecutableBuilderNtB5_20UserStatsDataServiceB1f_INtNtB21_8api_resp12BaseResponseNtB1h_26QueryUserStatsDataRespDataEE7execute
FN:84,_RNvXs4_NtNtNtNtNtNtCs532nfEa3ofR_9open_lark7service10cloud_docs4wiki2v210space_node4copyNtB5_27CopySpaceNodeRequestBuilderINtNtNtNtBh_4core12trait_system18executable_builder17ExecutableBuilderNtB7_16SpaceNodeServiceNtB5_20CopySpaceNodeRequestNtB5_21CopySpaceNodeResponseE20execute_with_options
FN:73,_RNvXs4_NtNtNtNtNtNtCs532nfEa3ofR_9open_lark7service10cloud_docs4wiki2v210space_node4copyNtB5_27CopySpaceNodeRequestBuilderINtNtNtNtBh_4core12trait_system18executable_builder17ExecutableBuilderNtB7_16SpaceNodeServiceNtB5_20CopySpaceNodeRequestNtB5_21CopySpaceNodeResponseE5build
FN:80,_RNvXs4_NtNtNtNtNtNtCs532nfEa3ofR_9open_lark7service10cloud_docs4wiki2v210space_node4copyNtB5_27CopySpaceNodeRequestBuilderINtNtNtNtBh_4core12trait_system18executable_builder17ExecutableBuilderNtB7_16SpaceNodeServiceNtB5_20CopySpaceNodeRequestNtB5_21CopySpaceNodeResponseE7execute
FN:84,_RNvXs4_NtNtNtNtNtNtCs532nfEa3ofR_9open_lark7service10cloud_docs4wiki2v210space_node4listNtB5_27ListSpaceNodeRequestBuilderINtNtNtNtBh_4core12trait_system18executable_builder17ExecutableBuilderNtB7_16SpaceNodeServiceNtB5_20ListSpaceNodeRequestNtB5_21ListSpaceNodeResponseE20execute_with_options
FN:73,_RNvXs4_NtNtNtNtNtNtCs532nfEa3ofR_9open_lark7service10cloud_docs4wiki2v210space_node4listNtB5_27ListSpaceNodeRequestBuilderINtNtNtNtBh_4core12trait_system18executable_builder17ExecutableBuilderNtB7_16SpaceNodeServiceNtB5_20ListSpaceNodeRequestNtB5_21ListSpaceNodeResponseE5build
FN:80,_RNvXs4_NtNtNtNtNtNtCs532nfEa3ofR_9open_lark7service10cloud_docs4wiki2v210space_node4listNtB5_27ListSpaceNodeRequestBuilderINtNtNtNtBh_4core12trait_system18executable_builder17ExecutableBuilderNtB7_16SpaceNodeServiceNtB5_20ListSpaceNodeRequestNtB5_21ListSpaceNodeResponseE7execute
FN:84,_RNvXs4_NtNtNtNtNtNtCs532nfEa3ofR_9open_lark7service10cloud_docs4wiki2v210space_node6createNtB5_29CreateSpaceNodeRequestBuilderINtNtNtNtBh_4core12trait_system18executable_builder17ExecutableBuilderNtB7_16SpaceNodeServiceNtB5_22CreateSpaceNodeRequestNtB5_23CreateSpaceNodeResponseE20execute_with_options
FN:73,_RNvXs4_NtNtNtNtNtNtCs532nfEa3ofR_9open_lark7service10cloud_docs4wiki2v210space_node6createNtB5_29CreateSpaceNodeRequestBuilderINtNtNtNtBh_4core12trait_system18executable_builder17ExecutableBuilderNtB7_16SpaceNodeServiceNtB5_22CreateSpaceNodeRequestNtB5_23CreateSpaceNodeResponseE5build
FN:80,_RNvXs4_NtNtNtNtNtNtCs532nfEa3ofR_9open_lark7service10cloud_docs4wiki2v210space_node6createNtB5_29CreateSpaceNodeRequestBuilderINtNtNtNtBh_4core12trait_system18executable_builder17ExecutableBuilderNtB7_16SpaceNodeServiceNtB5_22CreateSpaceNodeRequestNtB5_23CreateSpaceNodeResponseE7execute
FN:84,_RNvXs4_NtNtNtNtNtNtCs532nfEa3ofR_9open_lark7service10cloud_docs4wiki2v212space_member6createNtB5_31CreateSpaceMemberRequestBuilderINtNtNtNtBh_4core12trait_system18executable_builder17ExecutableBuilderNtB7_18SpaceMemberServiceNtB5_24CreateSpaceMemberRequestINtNtB2b_8api_resp12BaseResponseNtB5_25CreateSpaceMemberResponseEE20execute_with_options
FN:73,_RNvXs4_NtNtNtNtNtNtCs532nfEa3ofR_9open_lark7service10cloud_docs4wiki2v212space_member6createNtB5_31CreateSpaceMemberRequestBuilderINtNtNtNtBh_4core12trait_system18executable_builder17ExecutableBuilderNtB7_18SpaceMemberServiceNtB5_24CreateSpaceMemberRequestINtNtB2b_8api_resp12BaseResponseNtB5_25CreateSpaceMemberResponseEE5build
FN:80,_RNvXs4_NtNtNtNtNtNtCs532nfEa3ofR_9open_lark7service10cloud_docs4wiki2v212space_member6createNtB5_31CreateSpaceMemberRequestBuilderINtNtNtNtBh_4core12trait_system18executable_builder17ExecutableBuilderNtB7_18SpaceMemberServiceNtB5_24CreateSpaceMemberRequestINtNtB2b_8api_resp12BaseResponseNtB5_25CreateSpaceMemberResponseEE7execute
FN:84,_RNvXs4_NtNtNtNtNtNtCs532nfEa3ofR_9open_lark7service10cloud_docs4wiki2v25space6createNtB5_25CreateSpaceRequestBuilderINtNtNtNtBh_4core12trait_system18executable_builder17ExecutableBuilderNtB7_12SpaceServiceNtB5_18CreateSpaceRequestINtNtB1X_8api_resp12BaseResponseNtB5_19CreateSpaceResponseEE20execute_with_options
FN:73,_RNvXs4_NtNtNtNtNtNtCs532nfEa3ofR_9open_lark7service10cloud_docs4wiki2v25space6createNtB5_25CreateSpaceRequestBuilderINtNtNtNtBh_4core12trait_system18executable_builder17ExecutableBuilderNtB7_12SpaceServiceNtB5_18CreateSpaceRequestINtNtB1X_8api_resp12BaseResponseNtB5_19CreateSpaceResponseEE5build
FN:80,_RNvXs4_NtNtNtNtNtNtCs532nfEa3ofR_9open_lark7service10cloud_docs4wiki2v25space6createNtB5_25CreateSpaceRequestBuilderINtNtNtNtBh_4core12trait_system18executable_builder17ExecutableBuilderNtB7_12SpaceServiceNtB5_18CreateSpaceRequestINtNtB1X_8api_resp12BaseResponseNtB5_19CreateSpaceResponseEE7execute
FN:84,_RNvXs4_NtNtNtNtNtNtCs532nfEa3ofR_9open_lark7service10cloud_docs6sheets2v213sheet_row_col22insert_dimension_rangeNtB5_34InsertDimensionRangeRequestBuilderINtNtNtNtBh_4core12trait_system18executable_builder17ExecutableBuilderNtB9_18SpreadsheetServiceNtB5_27InsertDimensionRangeRequestINtNtB2y_8api_resp12BaseResponseNtB4z_13EmptyResponseEE20execute_with_options
FN:73,_RNvXs4_NtNtNtNtNtNtCs532nfEa3ofR_9open_lark7service10cloud_docs6sheets2v213sheet_row_col22insert_dimension_rangeNtB5_34InsertDimensionRangeRequestBuilderINtNtNtNtBh_4core12trait_system18executable_builder17ExecutableBuilderNtB9_18SpreadsheetServiceNtB5_27InsertDimensionRangeRequestINtNtB2y_8api_resp12BaseResponseNtB4z_13EmptyResponseEE5build
FN:80,_RNvXs4_NtNtNtNtNtNtCs532nfEa3ofR_9open_lark7service10cloud_docs6sheets2v213sheet_row_col22insert_dimension_rangeNtB5_34InsertDimensionRangeRequestBuilderINtNtNtNtBh_4core12trait_system18executable_builder17ExecutableBuilderNtB9_18SpreadsheetServiceNtB5_27InsertDimensionRangeRequestINtNtB2y_8api_resp12BaseResponseNtB4z_13EmptyResponseEE7execute
FN:84,_RNvXs4_NtNtNtNtNtNtCs532nfEa3ofR_9open_lark7service10cloud_docs6sheets2v214data_operation11append_dataNtB5_24AppendDataRequestBuilderINtNtNtNtBh_4core12trait_system18executable_builder17ExecutableBuilderNtB9_23SpreadsheetSheetServiceNtB5_17AppendDataRequestINtNtB2e_8api_resp12BaseResponseNtNtB7_5share23UpdateSheetDataResponseEE20execute_with_options
FN:73,_RNvXs4_NtNtNtNtNtNtCs532nfEa3ofR_9open_lark7service10cloud_docs6sheets2v214data_operation11append_dataNtB5_24AppendDataRequestBuilderINtNtNtNtBh_4core12trait_system18executable_builder17ExecutableBuilderNtB9_23SpreadsheetSheetServiceNtB5_17AppendDataRequestINtNtB2e_8api_resp12BaseResponseNtNtB7_5share23UpdateSheetDataResponseEE5build
FN:80,_RNvXs4_NtNtNtNtNtNtCs532nfEa3ofR_9open_lark7service10cloud_docs6sheets2v214data_operation11append_dataNtB5_24AppendDataRequestBuilderINtNtNtNtBh_4core12trait_system18executable_builder17ExecutableBuilderNtB9_23SpreadsheetSheetServiceNtB5_17AppendDataRequestINtNtB2e_8api_resp12BaseResponseNtNtB7_5share23UpdateSheetDataResponseEE7execute
FN:84,_RNvXs4_NtNtNtNtNtNtCs532nfEa3ofR_9open_lark7service10cloud_docs6sheets2v214data_operation28write_data_to_a_single_rangeNtB5_29WriteDataToSingleRangeBuilderINtNtNtNtBh_4core12trait_system18executable_builder17ExecutableBuilderNtB9_18SpreadsheetServiceNtB5_29WriteDataToSingleRangeRequestINtNtB2A_8api_resp12BaseResponseNtNtB7_5share16SheetDataUpdatesEE20execute_with_options
FN:73,_RNvXs4_NtNtNtNtNtNtCs532nfEa3ofR_9open_lark7service10cloud_docs6sheets2v214data_operation28write_data_to_a_single_rangeNtB5_29WriteDataToSingleRangeBuilderINtNtNtNtBh_4core12trait_system18executable_builder17ExecutableBuilderNtB9_18SpreadsheetServiceNtB5_29WriteDataToSingleRangeRequestINtNtB2A_8api_resp12BaseResponseNtNtB7_5share16SheetDataUpdatesEE5build
FN:80,_RNvXs4_NtNtNtNtNtNtCs532nfEa3ofR_9open_lark7service10cloud_docs6sheets2v214data_operation28write_data_to_a_single_rangeNtB5_29WriteDataToSingleRangeBuilderINtNtNtNtBh_4core12trait_system18executable_builder17ExecutableBuilderNtB9_18SpreadsheetServiceNtB5_29WriteDataToSingleRangeRequestINtNtB2A_8api_resp12BaseResponseNtNtB7_5share16SheetDataUpdatesEE7execute
FN:84,_RNvXs4_NtNtNtNtNtNtCs532nfEa3ofR_9open_lark7service10cloud_docs6sheets2v311spreadsheet5patchNtB5_30PatchSpreadSheetRequestBuilderINtNtNtNtBh_4core12trait_system18executable_builder17ExecutableBuilderNtB9_18SpreadsheetServiceNtB5_23PatchSpreadSheetRequestINtNtB2a_8api_resp12BaseResponseNtB47_11RawResponseEE20execute_with_options
FN:73,_RNvXs4_NtNtNtNtNtNtCs532nfEa3ofR_9open_lark7service10cloud_docs6sheets2v311spreadsheet5patchNtB5_30PatchSpreadSheetRequestBuilderINtNtNtNtBh_4core12trait_system18executable_builder17ExecutableBuilderNtB9_18SpreadsheetServiceNtB5_23PatchSpreadSheetRequestINtNtB2a_8api_resp12BaseResponseNtB47_11RawResponseEE5build
FN:80,_RNvXs4_NtNtNtNtNtNtCs532nfEa3ofR_9open_lark7service10cloud_docs6sheets2v311spreadsheet5patchNtB5_30PatchSpreadSheetRequestBuilderINtNtNtNtBh_4core12trait_system18executable_builder17ExecutableBuilderNtB9_18SpreadsheetServiceNtB5_23PatchSpreadSheetRequestINtNtB2a_8api_resp12BaseResponseNtB47_11RawResponseEE7execute
FN:84,_RNvXs4_NtNtNtNtNtNtCs532nfEa3ofR_9open_lark7service10cloud_docs6sheets2v324spreadsheet_sheet_filter6createNtB5_31CreateSheetFilterRequestBuilderINtNtNtNtBh_4core12trait_system18executable_builder17ExecutableBuilderNtB9_29SpreadsheetSheetFilterServiceNtB5_24CreateSheetFilterRequestINtNtB2p_8api_resp12BaseResponseNtB4y_13EmptyResponseEE20execute_with_options
FN:73,_RNvXs4_NtNtNtNtNtNtCs532nfEa3ofR_9open_lark7service10cloud_docs6sheets2v324spreadsheet_sheet_filter6createNtB5_31CreateSheetFilterRequestBuilderINtNtNtNtBh_4core12trait_system18executable_builder17ExecutableBuilderNtB9_29SpreadsheetSheetFilterServiceNtB5_24CreateSheetFilterRequestINtNtB2p_8api_resp12BaseResponseNtB4y_13EmptyResponseEE5build
FN:80,_RNvXs4_NtNtNtNtNtNtCs532nfEa3ofR_9open_lark7service10cloud_docs6sheets2v324spreadsheet_sheet_filter6createNtB5_31CreateSheetFilterRequestBuilderINtNtNtNtBh_4core12trait_system18executable_builder17ExecutableBuilderNtB9_29SpreadsheetSheetFilterServiceNtB5_24CreateSheetFilterRequestINtNtB2p_8api_resp12BaseResponseNtB4y_13EmptyResponseEE7execute
FN:84,_RNvXs4_NtNtNtNtNtNtCs532nfEa3ofR_9open_lark7service10cloud_docs7bitable2v115app_role_member12batch_deleteNtB5_35BatchDeleteRoleMemberRequestBuilderINtNtNtNtBh_4core12trait_system18executable_builder17ExecutableBuilderNtB7_20AppRoleMemberServiceNtB5_28BatchDeleteRoleMemberRequestINtNtB2s_8api_resp12BaseResponseNtB5_29BatchDeleteRoleMemberResponseEE20execute_with_options
FN:73,_RNvXs4_NtNtNtNtNtNtCs532nfEa3ofR_9open_lark7service10cloud_docs7bitable2v115app_role_member12batch_deleteNtB5_35BatchDeleteRoleMemberRequestBuilderINtNtNtNtBh_4core12trait_system18executable_builder17ExecutableBuilderNtB7_20AppRoleMemberServiceNtB5_28BatchDeleteRoleMemberRequestINtNtB2s_8api_resp12BaseResponseNtB5_29BatchDeleteRoleMemberResponseEE5build
FN:80,_RNvXs4_NtNtNtNtNtNtCs532nfEa3ofR_9open_lark7service10cloud_docs7bitable2v115app_role_member12batch_deleteNtB5_35BatchDeleteRoleMemberRequestBuilderINtNtNtNtBh_4core12trait_system18executable_builder17ExecutableBuilderNtB7_20AppRoleMemberServiceNtB5_28BatchDeleteRoleMemberRequestINtNtB2s_8api_resp12BaseResponseNtB5_29BatchDeleteRoleMemberResponseEE7execute
FN:84,_RNvXs4_NtNtNtNtNtNtCs532nfEa3ofR_9open_lark7service10cloud_docs7bitable2v115app_role_member6deleteNtB5_30DeleteRoleMemberRequestBuilderINtNtNtNtBh_4core12trait_system18executable_builder17ExecutableBuilderNtB7_20AppRoleMemberServiceNtB5_23DeleteRoleMemberRequestINtNtB2g_8api_resp12BaseResponseNtB5_24DeleteRoleMemberResponseEE20execute_with_options
FN:73,_RNvXs4_NtNtNtNtNtNtCs532nfEa3ofR_9open_lark7service10cloud_docs7bitable2v115app_role_member6deleteNtB5_30DeleteRoleMemberRequestBuilderINtNtNtNtBh_4core12trait_system18executable_builder17ExecutableBuilderNtB7_20AppRoleMemberServiceNtB5_23DeleteRoleMemberRequestINtNtB2g_8api_resp12BaseResponseNtB5_24DeleteRoleMemberResponseEE5build
FN:80,_RNvXs4_NtNtNtNtNtNtCs532nfEa3ofR_9open_lark7service10cloud_docs7bitable2v115app_role_member6deleteNtB5_30DeleteRoleMemberRequestBuilderINtNtNtNtBh_4core12trait_system18executable_builder17ExecutableBuilderNtB7_20AppRoleMemberServiceNtB5_23DeleteRoleMemberRequestINtNtB2g_8api_resp12BaseResponseNtB5_24DeleteRoleMemberResponseEE7execute
FN:84,_RNvXs4_NtNtNtNtNtNtCs532nfEa3ofR_9open_lark7service10cloud_docs7bitable2v115app_table_field6createNtB5_25CreateFieldRequestBuilderINtNtNtNtBh_4core12trait_system18executable_builder17ExecutableBuilderNtB7_20AppTableFieldServiceNtB5_18CreateFieldRequestINtNtB2b_8api_resp12BaseResponseNtB5_19CreateFieldResponseEE20execute_with_options
FN:73,_RNvXs4_NtNtNtNtNtNtCs532nfEa3ofR_9open_lark7service10cloud_docs7bitable2v115app_table_field6createNtB5_25CreateFieldRequestBuilderINtNtNtNtBh_4core12trait_system18executable_builder17ExecutableBuilderNtB7_20AppTableFieldServiceNtB5_18CreateFieldRequestINtNtB2b_8api_resp12BaseResponseNtB5_19CreateFieldResponseEE5build
FN:80,_RNvXs4_NtNtNtNtNtNtCs532nfEa3ofR_9open_lark7service10cloud_docs7bitable2v115app_table_field6createNtB5_25CreateFieldRequestBuilderINtNtNtNtBh_4core12trait_system18executable_builder17ExecutableBuilderNtB7_20AppTableFieldServiceNtB5_18CreateFieldRequestINtNtB2b_8api_resp12BaseResponseNtB5_19CreateFieldResponseEE7execute
FN:84,_RNvXs4_NtNtNtNtNtNtCs532nfEa3ofR_9open_lark7service10cloud_docs7bitable2v115app_table_field6updateNtB5_25UpdateFieldRequestBuilderINtNtNtNtBh_4core12trait_system18executable_builder17ExecutableBuilderNtB7_20AppTableFieldServiceNtB5_18UpdateFieldRequestINtNtB2b_8api_resp12BaseResponseNtB5_19UpdateFieldResponseEE20execute_with_options
FN:73,_RNvXs4_NtNtNtNtNtNtCs532nfEa3ofR_9open_lark7service10cloud_docs7bitable2v115app_table_field6updateNtB5_25UpdateFieldRequestBuilderINtNtNtNtBh_4core12trait_system18executable_builder17ExecutableBuilderNtB7_20AppTableFieldServiceNtB5_18UpdateFieldRequestINtNtB2b_8api_resp12BaseResponseNtB5_19UpdateFieldResponseEE5build
FN:80,_RNvXs4_NtNtNtNtNtNtCs532nfEa3ofR_9open_lark7service10cloud_docs7bitable2v115app_table_field6updateNtB5_25UpdateFieldRequestBuilderINtNtNtNtBh_4core12trait_system18executable_builder17ExecutableBuilderNtB7_20AppTableFieldServiceNtB5_18UpdateFieldRequestINtNtB2b_8api_resp12BaseResponseNtB5_19UpdateFieldResponseEE7execute
FN:84,_RNvXs4_NtNtNtNtNtNtCs532nfEa3ofR_9open_lark7service10cloud_docs7bitable2v14form5patchNtB5_31PatchFormQuestionRequestBuilderINtNtNtNtBh_4core12trait_system18executable_builder17ExecutableBuilderNtB7_11FormServiceNtB5_24PatchFormQuestionRequestINtNtB24_8api_resp12BaseResponseNtB5_25PatchFormQuestionResponseEE20execute_with_options
FN:73,_RNvXs4_NtNtNtNtNtNtCs532nfEa3ofR_9open_lark7service10cloud_docs7bitable2v14form5patchNtB5_31PatchFormQuestionRequestBuilderINtNtNtNtBh_4core12trait_system18executable_builder17ExecutableBuilderNtB7_11FormServiceNtB5_24PatchFormQuestionRequestINtNtB24_8api_resp12BaseResponseNtB5_25PatchFormQuestionResponseEE5build
FN:80,_RNvXs4_NtNtNtNtNtNtCs532nfEa3ofR_9open_lark7service10cloud_docs7bitable2v14form5patchNtB5_31PatchFormQuestionRequestBuilderINtNtNtNtBh_4core12trait_system18executable_builder17ExecutableBuilderNtB7_11FormServiceNtB5_24PatchFormQuestionRequestINtNtB24_8api_resp12BaseResponseNtB5_25PatchFormQuestionResponseEE7execute
FN:84,_RNvXs4_NtNtNtNtNtNtCs532nfEa3ofR_9open_lark7service10cloud_docs7bitable2v18app_role6deleteNtB5_27DeleteAppRoleRequestBuilderINtNtNtNtBh_4core12trait_system18executable_builder17ExecutableBuilderNtB7_14AppRoleServiceNtB5_20DeleteAppRoleRequestINtNtB25_8api_resp12BaseResponseNtB5_21DeleteAppRoleResponseEE20execute_with_options
FN:73,_RNvXs4_NtNtNtNtNtNtCs532nfEa3ofR_9open_lark7service10cloud_docs7bitable2v18app_role6deleteNtB5_27DeleteAppRoleRequestBuilderINtNtNtNtBh_4core12trait_system18executable_builder17ExecutableBuilderNtB7_14AppRoleServiceNtB5_20DeleteAppRoleRequestINtNtB25_8api_resp12BaseResponseNtB5_21DeleteAppRoleResponseEE5build
FN:80,_RNvXs4_NtNtNtNtNtNtCs532nfEa3ofR_9open_lark7service10cloud_docs7bitable2v18app_role6deleteNtB5_27DeleteAppRoleRequestBuilderINtNtNtNtBh_4core12trait_system18executable_builder17ExecutableBuilderNtB7_14AppRoleServiceNtB5_20DeleteAppRoleRequestINtNtB25_8api_resp12BaseResponseNtB5_21DeleteAppRoleResponseEE7execute
FN:84,_RNvXs4_NtNtNtNtNtNtCs532nfEa3ofR_9open_lark7service10cloud_docs7bitable2v18app_role6updateNtB5_27UpdateAppRoleRequestBuilderINtNtNtNtBh_4core12trait_system18executable_builder17ExecutableBuilderNtB7_14AppRoleServiceNtB5_20UpdateAppRoleRequestINtNtB25_8api_resp12BaseResponseNtB5_21UpdateAppRoleResponseEE20execute_with_options
FN:73,_RNvXs4_NtNtNtNtNtNtCs532nfEa3ofR_9open_lark7service10cloud_docs7bitable2v18app_role6updateNtB5_27UpdateAppRoleRequestBuilderINtNtNtNtBh_4core12trait_system18executable_builder17ExecutableBuilderNtB7_14AppRoleServiceNtB5_20UpdateAppRoleRequestINtNtB25_8api_resp12BaseResponseNtB5_21UpdateAppRoleResponseEE5build
FN:80,_RNvXs4_NtNtNtNtNtNtCs532nfEa3ofR_9open_lark7service10cloud_docs7bitable2v18app_role6updateNtB5_27UpdateAppRoleRequestBuilderINtNtNtNtBh_4core12trait_system18executable_builder17ExecutableBuilderNtB7_14AppRoleServiceNtB5_20UpdateAppRoleRequestINtNtB25_8api_resp12BaseResponseNtB5_21UpdateAppRoleResponseEE7execute
FN:84,_RNvXs5_NtNtNtNtNtCs532nfEa3ofR_9open_lark7service10cloud_docs4wiki2v211search_wikiNtB5_24SearchWikiRequestBuilderINtNtNtNtBf_4core12trait_system18executable_builder17ExecutableBuilderNtB7_2V2NtB5_17SearchWikiRequestNtB5_18SearchWikiResponseE20execute_with_options
FN:73,_RNvXs5_NtNtNtNtNtCs532nfEa3ofR_9open_lark7service10cloud_docs4wiki2v211search_wikiNtB5_24SearchWikiRequestBuilderINtNtNtNtBf_4core12trait_system18executable_builder17ExecutableBuilderNtB7_2V2NtB5_17SearchWikiRequestNtB5_18SearchWikiResponseE5build
FN:80,_RNvXs5_NtNtNtNtNtCs532nfEa3ofR_9open_lark7service10cloud_docs4wiki2v211search_wikiNtB5_24SearchWikiRequestBuilderINtNtNtNtBf_4core12trait_system18executable_builder17ExecutableBuilderNtB7_2V2NtB5_17SearchWikiRequestNtB5_18SearchWikiResponseE7execute
FN:84,_RNvXs5_NtNtNtNtNtCs532nfEa3ofR_9open_lark7service2im2v17message4listNtB5_25ListMessageRequestBuilderINtNtNtNtBf_4core12trait_system18executable_builder17ExecutableBuilderNtB7_14MessageServiceNtB5_18ListMessageRequestNtB5_19ListMessageRespDataE20execute_with_options
FN:73,_RNvXs5_NtNtNtNtNtCs532nfEa3ofR_9open_lark7service2im2v17message4listNtB5_25ListMessageRequestBuilderINtNtNtNtBf_4core12trait_system18executable_builder17ExecutableBuilderNtB7_14MessageServiceNtB5_18ListMessageRequestNtB5_19ListMessageRespDataE5build
FN:80,_RNvXs5_NtNtNtNtNtCs532nfEa3ofR_9open_lark7service2im2v17message4listNtB5_25ListMessageRequestBuilderINtNtNtNtBf_4core12trait_system18executable_builder17ExecutableBuilderNtB7_14MessageServiceNtB5_18ListMessageRequestNtB5_19ListMessageRespDataE7execute
FN:84,_RNvXs5_NtNtNtNtNtNtCs532nfEa3ofR_9open_lark7service10cloud_docs6sheets2v213sheet_row_col22delete_dimension_rangeNtB5_34DeleteDimensionRangeRequestBuilderINtNtNtNtBh_4core12trait_system18executable_builder17ExecutableBuilderNtB9_18SpreadsheetServiceNtB5_27DeleteDimensionRangeRequestINtNtB2y_8api_resp12BaseResponseNtB5_28DeleteDimensionRangeResponseEE20execute_with_options
FN:73,_RNvXs5_NtNtNtNtNtNtCs532nfEa3ofR_9open_lark7service10cloud_docs6sheets2v213sheet_row_col22delete_dimension_rangeNtB5_34DeleteDimensionRangeRequestBuilderINtNtNtNtBh_4core12trait_system18executable_builder17ExecutableBuilderNtB9_18SpreadsheetServiceNtB5_27DeleteDimensionRangeRequestINtNtB2y_8api_resp12BaseResponseNtB5_28DeleteDimensionRangeResponseEE5build
FN:80,_RNvXs5_NtNtNtNtNtNtCs532nfEa3ofR_9open_lark7service10cloud_docs6sheets2v213sheet_row_col22delete_dimension_rangeNtB5_34DeleteDimensionRangeRequestBuilderINtNtNtNtBh_4core12trait_system18executable_builder17ExecutableBuilderNtB9_18SpreadsheetServiceNtB5_27DeleteDimensionRangeRequestINtNtB2y_8api_resp12BaseResponseNtB5_28DeleteDimensionRangeResponseEE7execute
FN:84,_RNvXs5_NtNtNtNtNtNtCs532nfEa3ofR_9open_lark7service10cloud_docs6sheets2v311float_image3getNtB5_27GetFloatImageRequestBuilderINtNtNtNtBh_4core12trait_system18executable_builder17ExecutableBuilderNtB9_23SpreadsheetSheetServiceNtB5_20GetFloatImageRequestINtNtB25_8api_resp12BaseResponseNtB5_25GetFloatImageResponseDataEE20execute_with_options
FN:73,_RNvXs5_NtNtNtNtNtNtCs532nfEa3ofR_9open_lark7service10cloud_docs6sheets2v311float_image3getNtB5_27GetFloatImageRequestBuilderINtNtNtNtBh_4core12trait_system18executable_builder17ExecutableBuilderNtB9_23SpreadsheetSheetServiceNtB5_20GetFloatImageRequestINtNtB25_8api_resp12BaseResponseNtB5_25GetFloatImageResponseDataEE5build
FN:80,_RNvXs5_NtNtNtNtNtNtCs532nfEa3ofR_9open_lark7service10cloud_docs6sheets2v311float_image3getNtB5_27GetFloatImageRequestBuilderINtNtNtNtBh_4core12trait_system18executable_builder17ExecutableBuilderNtB9_23SpreadsheetSheetServiceNtB5_20GetFloatImageRequestINtNtB25_8api_resp12BaseResponseNtB5_25GetFloatImageResponseDataEE7execute
FN:84,_RNvXs5_NtNtNtNtNtNtCs532nfEa3ofR_9open_lark7service10cloud_docs6sheets2v311float_image5patchNtB5_30UpdateFloatImageRequestBuilderINtNtNtNtBh_4core12trait_system18executable_builder17ExecutableBuilderNtB9_23SpreadsheetSheetServiceNtB5_23UpdateFloatImageRequestINtNtB2a_8api_resp12BaseResponseNtB5_28UpdateFloatImageResponseDataEE20execute_with_options
FN:73,_RNvXs5_NtNtNtNtNtNtCs532nfEa3ofR_9open_lark7service10cloud_docs6sheets2v311float_image5patchNtB5_30UpdateFloatImageRequestBuilderINtNtNtNtBh_4core12trait_system18executable_builder17ExecutableBuilderNtB9_23SpreadsheetSheetServiceNtB5_23UpdateFloatImageRequestINtNtB2a_8api_resp12BaseResponseNtB5_28UpdateFloatImageResponseDataEE5build
FN:80,_RNvXs5_NtNtNtNtNtNtCs532nfEa3ofR_9open_lark7service10cloud_docs6sheets2v311float_image5patchNtB5_30UpdateFloatImageRequestBuilderINtNtNtNtBh_4core12trait_system18executable_builder17ExecutableBuilderNtB9_23SpreadsheetSheetServiceNtB5_23UpdateFloatImageRequestINtNtB2a_8api_resp12BaseResponseNtB5_28UpdateFloatImageResponseDataEE7execute
FN:84,_RNvXs5_NtNtNtNtNtNtCs532nfEa3ofR_9open_lark7service10cloud_docs6sheets2v311float_image5queryNtB5_30QueryFloatImagesRequestBuilderINtNtNtNtBh_4core12trait_system18executable_builder17ExecutableBuilderNtB9_23SpreadsheetSheetServiceNtB5_23QueryFloatImagesRequestINtNtB2a_8api_resp12BaseResponseNtB5_28QueryFloatImagesResponseDataEE20execute_with_options
FN:73,_RNvXs5_NtNtNtNtNtNtCs532nfEa3ofR_9open_lark7service10cloud_docs6sheets2v311float_image5queryNtB5_30QueryFloatImagesRequestBuilderINtNtNtNtBh_4core12trait_system18executable_builder17ExecutableBuilderNtB9_23SpreadsheetSheetServiceNtB5_23QueryFloatImagesRequestINtNtB2a_8api_resp12BaseResponseNtB5_28QueryFloatImagesResponseDataEE5build
FN:80,_RNvXs5_NtNtNtNtNtNtCs532nfEa3ofR_9open_lark7service10cloud_docs6sheets2v311float_image5queryNtB5_30QueryFloatImagesRequestBuilderINtNtNtNtBh_4core12trait_system18executable_builder17ExecutableBuilderNtB9_23SpreadsheetSheetServiceNtB5_23QueryFloatImagesRequestINtNtB2a_8api_resp12BaseResponseNtB5_28QueryFloatImagesResponseDataEE7execute
FN:84,_RNvXs5_NtNtNtNtNtNtCs532nfEa3ofR_9open_lark7service10cloud_docs6sheets2v311float_image6deleteNtB5_30DeleteFloatImageRequestBuilderINtNtNtNtBh_4core12trait_system18executable_builder17ExecutableBuilderNtB9_23SpreadsheetSheetServiceNtB5_23DeleteFloatImageRequestINtNtB2b_8api_resp12BaseResponseNtB5_28DeleteFloatImageResponseDataEE20execute_with_options
FN:73,_RNvXs5_NtNtNtNtNtNtCs532nfEa3ofR_9open_lark7service10cloud_docs6sheets2v311float_image6deleteNtB5_30DeleteFloatImageRequestBuilderINtNtNtNtBh_4core12trait_system18executable_builder17ExecutableBuilderNtB9_23SpreadsheetSheetServiceNtB5_23DeleteFloatImageRequestINtNtB2b_8api_resp12BaseResponseNtB5_28DeleteFloatImageResponseDataEE5build
FN:80,_RNvXs5_NtNtNtNtNtNtCs532nfEa3ofR_9open_lark7service10cloud_docs6sheets2v311float_image6deleteNtB5_30DeleteFloatImageRequestBuilderINtNtNtNtBh_4core12trait_system18executable_builder17ExecutableBuilderNtB9_23SpreadsheetSheetServiceNtB5_23DeleteFloatImageRequestINtNtB2b_8api_resp12BaseResponseNtB5_28DeleteFloatImageResponseDataEE7execute
FN:84,_RNvXs5_NtNtNtNtNtNtCs532nfEa3ofR_9open_lark7service10cloud_docs6sheets2v311spreadsheet3getNtB5_28GetSpreadsheetRequestBuilderINtNtNtNtBh_4core12trait_system18executable_builder17ExecutableBuilderNtB9_18SpreadsheetServiceNtB5_21GetSpreadsheetRequestINtNtB26_8api_resp12BaseResponseNtB5_26GetSpreadsheetResponseDataEE20execute_with_options
FN:73,_RNvXs5_NtNtNtNtNtNtCs532nfEa3ofR_9open_lark7service10cloud_docs6sheets2v311spreadsheet3getNtB5_28GetSpreadsheetRequestBuilderINtNtNtNtBh_4core12trait_system18executable_builder17ExecutableBuilderNtB9_18SpreadsheetServiceNtB5_21GetSpreadsheetRequestINtNtB26_8api_resp12BaseResponseNtB5_26GetSpreadsheetResponseDataEE5build
FN:80,_RNvXs5_NtNtNtNtNtNtCs532nfEa3ofR_9open_lark7service10cloud_docs6sheets2v311spreadsheet3getNtB5_28GetSpreadsheetRequestBuilderINtNtNtNtBh_4core12trait_system18executable_builder17ExecutableBuilderNtB9_18SpreadsheetServiceNtB5_21GetSpreadsheetRequestINtNtB26_8api_resp12BaseResponseNtB5_26GetSpreadsheetResponseDataEE7execute
FN:84,_RNvXs5_NtNtNtNtNtNtCs532nfEa3ofR_9open_lark7service10cloud_docs6sheets2v311spreadsheet6createNtB5_31CreateSpreedSheetRequestBuilderINtNtNtNtBh_4core12trait_system18executable_builder17ExecutableBuilderNtB9_18SpreadsheetServiceNtB5_24CreateSpreedSheetRequestINtNtB2c_8api_resp12BaseResponseNtB5_29CreateSpreedSheetResponseDataEE20execute_with_options
FN:73,_RNvXs5_NtNtNtNtNtNtCs532nfEa3ofR_9open_lark7service10cloud_docs6sheets2v311spreadsheet6createNtB5_31CreateSpreedSheetRequestBuilderINtNtNtNtBh_4core12trait_system18executable_builder17ExecutableBuilderNtB9_18SpreadsheetServiceNtB5_24CreateSpreedSheetRequestINtNtB2c_8api_resp12BaseResponseNtB5_29CreateSpreedSheetResponseDataEE5build
FN:80,_RNvXs5_NtNtNtNtNtNtCs532nfEa3ofR_9open_lark7service10cloud_docs6sheets2v311spreadsheet6createNtB5_31CreateSpreedSheetRequestBuilderINtNtNtNtBh_4core12trait_system18executable_builder17ExecutableBuilderNtB9_18SpreadsheetServiceNtB5_24CreateSpreedSheetRequestINtNtB2c_8api_resp12BaseResponseNtB5_29CreateSpreedSheetResponseDataEE7execute
FN:84,_RNvXs5_NtNtNtNtNtNtCs532nfEa3ofR_9open_lark7service10cloud_docs6sheets2v314data_operation10find_cellsNtB5_23FindCellsRequestBuilderINtNtNtNtBh_4core12trait_system18executable_builder17ExecutableBuilderNtB9_23SpreadsheetSheetServiceNtB5_16FindCellsRequestNtB5_17FindCellsResponseE20execute_with_options
FN:73,_RNvXs5_NtNtNtNtNtNtCs532nfEa3ofR_9open_lark7service10cloud_docs6sheets2v314data_operation10find_cellsNtB5_23FindCellsRequestBuilderINtNtNtNtBh_4core12trait_system18executable_builder17ExecutableBuilderNtB9_23SpreadsheetSheetServiceNtB5_16FindCellsRequestNtB5_17FindCellsResponseE5build
FN:80,_RNvXs5_NtNtNtNtNtNtCs532nfEa3ofR_9open_lark7service10cloud_docs6sheets2v314data_operation10find_cellsNtB5_23FindCellsRequestBuilderINtNtNtNtBh_4core12trait_system18executable_builder17ExecutableBuilderNtB9_23SpreadsheetSheetServiceNtB5_16FindCellsRequestNtB5_17FindCellsResponseE7execute
FN:84,_RNvXs5_NtNtNtNtNtNtCs532nfEa3ofR_9open_lark7service10cloud_docs6sheets2v314data_operation11append_dataNtB5_24AppendDataRequestBuilderINtNtNtNtBh_4core12trait_system18executable_builder17ExecutableBuilderNtB9_20DataOperationServiceNtB5_17AppendDataRequestNtB5_22AppendDataResponseDataE20execute_with_options
FN:73,_RNvXs5_NtNtNtNtNtNtCs532nfEa3ofR_9open_lark7service10cloud_docs6sheets2v314data_operation11append_dataNtB5_24AppendDataRequestBuilderINtNtNtNtBh_4core12trait_system18executable_builder17ExecutableBuilderNtB9_20DataOperationServiceNtB5_17AppendDataRequestNtB5_22AppendDataResponseDataE5build
FN:80,_RNvXs5_NtNtNtNtNtNtCs532nfEa3ofR_9open_lark7service10cloud_docs6sheets2v314data_operation11append_dataNtB5_24AppendDataRequestBuilderINtNtNtNtBh_4core12trait_system18executable_builder17ExecutableBuilderNtB9_20DataOperationServiceNtB5_17AppendDataRequestNtB5_22AppendDataResponseDataE7execute
FN:84,_RNvXs5_NtNtNtNtNtNtCs532nfEa3ofR_9open_lark7service10cloud_docs6sheets2v314data_operation11merge_cellsNtB5_24MergeCellsRequestBuilderINtNtNtNtBh_4core12trait_system18executable_builder17ExecutableBuilderNtB9_20DataOperationServiceNtB5_17MergeCellsRequestNtB5_22MergeCellsResponseDataE20execute_with_options
FN:73,_RNvXs5_NtNtNtNtNtNtCs532nfEa3ofR_9open_lark7service10cloud_docs6sheets2v314data_operation11merge_cellsNtB5_24MergeCellsRequestBuilderINtNtNtNtBh_4core12trait_system18executable_builder17ExecutableBuilderNtB9_20DataOperationServiceNtB5_17MergeCellsRequestNtB5_22MergeCellsResponseDataE5build
FN:80,_RNvXs5_NtNtNtNtNtNtCs532nfEa3ofR_9open_lark7service10cloud_docs6sheets2v314data_operation11merge_cellsNtB5_24MergeCellsRequestBuilderINtNtNtNtBh_4core12trait_system18executable_builder17ExecutableBuilderNtB9_20DataOperationServiceNtB5_17MergeCellsRequestNtB5_22MergeCellsResponseDataE7execute
FN:84,_RNvXs5_NtNtNtNtNtNtCs532nfEa3ofR_9open_lark7service10cloud_docs6sheets2v314data_operation12prepend_dataNtB5_25PrependDataRequestBuilderINtNtNtNtBh_4core12trait_system18executable_builder17ExecutableBuilderNtB9_20DataOperationServiceNtB5_18PrependDataRequestNtB5_23PrependDataResponseDataE20execute_with_options
FN:73,_RNvXs5_NtNtNtNtNtNtCs532nfEa3ofR_9open_lark7service10cloud_docs6sheets2v314data_operation12prepend_dataNtB5_25PrependDataRequestBuilderINtNtNtNtBh_4core12trait_system18executable_builder17ExecutableBuilderNtB9_20DataOperationServiceNtB5_18PrependDataRequestNtB5_23PrependDataResponseDataE5build
FN:80,_RNvXs5_NtNtNtNtNtNtCs532nfEa3ofR_9open_lark7service10cloud_docs6sheets2v314data_operation12prepend_dataNtB5_25PrependDataRequestBuilderINtNtNtNtBh_4core12trait_system18executable_builder17ExecutableBuilderNtB9_20DataOperationServiceNtB5_18PrependDataRequestNtB5_23PrependDataResponseDataE7execute
FN:84,_RNvXs5_NtNtNtNtNtNtCs532nfEa3ofR_9open_lark7service10cloud_docs6sheets2v314data_operation13replace_cellsNtB5_26ReplaceCellsRequestBuilderINtNtNtNtBh_4core12trait_system18executable_builder17ExecutableBuilderNtB9_23SpreadsheetSheetServiceNtB5_19ReplaceCellsRequestNtB5_20ReplaceCellsResponseE20execute_with_options
FN:73,_RNvXs5_NtNtNtNtNtNtCs532nfEa3ofR_9open_lark7service10cloud_docs6sheets2v314data_operation13replace_cellsNtB5_26ReplaceCellsRequestBuilderINtNtNtNtBh_4core12trait_system18executable_builder17ExecutableBuilderNtB9_23SpreadsheetSheetServiceNtB5_19ReplaceCellsRequestNtB5_20ReplaceCellsResponseE5build
FN:80,_RNvXs5_NtNtNtNtNtNtCs532nfEa3ofR_9open_lark7service10cloud_docs6sheets2v314data_operation13replace_cellsNtB5_26ReplaceCellsRequestBuilderINtNtNtNtBh_4core12trait_system18executable_builder17ExecutableBuilderNtB9_23SpreadsheetSheetServiceNtB5_19ReplaceCellsRequestNtB5_20ReplaceCellsResponseE7execute
FN:84,_RNvXs5_NtNtNtNtNtNtCs532nfEa3ofR_9open_lark7service10cloud_docs6sheets2v314data_operation14set_cell_styleNtB5_26SetCellStyleRequestBuilderINtNtNtNtBh_4core12trait_system18executable_builder17ExecutableBuilderNtB9_20DataOperationServiceNtB5_19SetCellStyleRequestNtB5_24SetCellStyleResponseDataE20execute_with_options
FN:73,_RNvXs5_NtNtNtNtNtNtCs532nfEa3ofR_9open_lark7service10cloud_docs6sheets2v314data_operation14set_cell_styleNtB5_26SetCellStyleRequestBuilderINtNtNtNtBh_4core12trait_system18executable_builder17ExecutableBuilderNtB9_20DataOperationServiceNtB5_19SetCellStyleRequestNtB5_24SetCellStyleResponseDataE5build
FN:80,_RNvXs5_NtNtNtNtNtNtCs532nfEa3ofR_9open_lark7service10cloud_docs6sheets2v314data_operation14set_cell_styleNtB5_26SetCellStyleRequestBuilderINtNtNtNtBh_4core12trait_system18executable_builder17ExecutableBuilderNtB9_20DataOperationServiceNtB5_19SetCellStyleRequestNtB5_24SetCellStyleResponseDataE7execute
FN:84,_RNvXs5_NtNtNtNtNtNtCs532nfEa3ofR_9open_lark7service10cloud_docs6sheets2v314data_operation20batch_set_cell_styleNtB5_31BatchSetCellStyleRequestBuilderINtNtNtNtBh_4core12trait_system18executable_builder17ExecutableBuilderNtB9_20DataOperationServiceNtB5_24BatchSetCellStyleRequestNtB5_29BatchSetCellStyleResponseDataE20execute_with_options
FN:73,_RNvXs5_NtNtNtNtNtNtCs532nfEa3ofR_9open_lark7service10cloud_docs6sheets2v314data_operation20batch_set_cell_styleNtB5_31BatchSetCellStyleRequestBuilderINtNtNtNtBh_4core12trait_system18executable_builder17ExecutableBuilderNtB9_20DataOperationServiceNtB5_24BatchSetCellStyleRequestNtB5_29BatchSetCellStyleResponseDataE5build
FN:80,_RNvXs5_NtNtNtNtNtNtCs532nfEa3ofR_9open_lark7service10cloud_docs6sheets2v314data_operation20batch_set_cell_styleNtB5_31BatchSetCellStyleRequestBuilderINtNtNtNtBh_4core12trait_system18executable_builder17ExecutableBuilderNtB9_20DataOperationServiceNtB5_24BatchSetCellStyleRequestNtB5_29BatchSetCellStyleResponseDataE7execute
FN:84,_RNvXs5_NtNtNtNtNtNtCs532nfEa3ofR_9open_lark7service10cloud_docs6sheets2v314data_operation20reading_single_rangeNtB5_32ReadingSingleRangeRequestBuilderINtNtNtNtBh_4core12trait_system18executable_builder17ExecutableBuilderNtB9_20DataOperationServiceNtB5_25ReadingSingleRangeRequestNtB5_30ReadingSingleRangeResponseDataE20execute_with_options
FN:73,_RNvXs5_NtNtNtNtNtNtCs532nfEa3ofR_9open_lark7service10cloud_docs6sheets2v314data_operation20reading_single_rangeNtB5_32ReadingSingleRangeRequestBuilderINtNtNtNtBh_4core12trait_system18executable_builder17ExecutableBuilderNtB9_20DataOperationServiceNtB5_25ReadingSingleRangeRequestNtB5_30ReadingSingleRangeResponseDataE5build
FN:80,_RNvXs5_NtNtNtNtNtNtCs532nfEa3ofR_9open_lark7service10cloud_docs6sheets2v314data_operation20reading_single_rangeNtB5_32ReadingSingleRangeRequestBuilderINtNtNtNtBh_4core12trait_system18executable_builder17ExecutableBuilderNtB9_20DataOperationServiceNtB5_25ReadingSingleRangeRequestNtB5_30ReadingSingleRangeResponseDataE7execute
FN:84,_RNvXs5_NtNtNtNtNtNtCs532nfEa3ofR_9open_lark7service10cloud_docs6sheets2v314data_operation23reading_multiple_rangesNtB5_35ReadingMultipleRangesRequestBuilderINtNtNtNtBh_4core12trait_system18executable_builder17ExecutableBuilderNtB9_20DataOperationServiceNtB5_28ReadingMultipleRangesRequestNtB5_33ReadingMultipleRangesResponseDataE20execute_with_options
FN:73,_RNvXs5_NtNtNtNtNtNtCs532nfEa3ofR_9open_lark7service10cloud_docs6sheets2v314data_operation23reading_multiple_rangesNtB5_35ReadingMultipleRangesRequestBuilderINtNtNtNtBh_4core12trait_system18executable_builder17ExecutableBuilderNtB9_20DataOperationServiceNtB5_28ReadingMultipleRangesRequestNtB5_33ReadingMultipleRangesResponseDataE5build
FN:80,_RNvXs5_NtNtNtNtNtNtCs532nfEa3ofR_9open_lark7service10cloud_docs6sheets2v314data_operation23reading_multiple_rangesNtB5_35ReadingMultipleRangesRequestBuilderINtNtNtNtBh_4core12trait_system18executable_builder17ExecutableBuilderNtB9_20DataOperationServiceNtB5_28ReadingMultipleRangesRequestNtB5_33ReadingMultipleRangesResponseDataE7execute
FN:84,_RNvXs5_NtNtNtNtNtNtCs532nfEa3ofR_9open_lark7service10cloud_docs7bitable2v112app_workflow4listNtB5_26ListWorkflowRequestBuilderINtNtNtNtBh_4core12trait_system18executable_builder17ExecutableBuilderNtB7_18AppWorkflowServiceNtB5_19ListWorkflowRequestINtNtB27_8api_resp12BaseResponseNtB5_20ListWorkflowResponseEE20execute_with_options
FN:73,_RNvXs5_NtNtNtNtNtNtCs532nfEa3ofR_9open_lark7service10cloud_docs7bitable2v112app_workflow4listNtB5_26ListWorkflowRequestBuilderINtNtNtNtBh_4core12trait_system18executable_builder17ExecutableBuilderNtB7_18AppWorkflowServiceNtB5_19ListWorkflowRequestINtNtB27_8api_resp12BaseResponseNtB5_20ListWorkflowResponseEE5build
FN:80,_RNvXs5_NtNtNtNtNtNtCs532nfEa3ofR_9open_lark7service10cloud_docs7bitable2v112app_workflow4listNtB5_26ListWorkflowRequestBuilderINtNtNtNtBh_4core12trait_system18executable_builder17ExecutableBuilderNtB7_18AppWorkflowServiceNtB5_19ListWorkflowRequestINtNtB27_8api_resp12BaseResponseNtB5_20ListWorkflowResponseEE7execute
FN:84,_RNvXs5_NtNtNtNtNtNtCs532nfEa3ofR_9open_lark7service10cloud_docs7bitable2v113app_dashboard4listNtB5_27ListDashboardRequestBuilderINtNtNtNtBh_4core12trait_system18executable_builder17ExecutableBuilderNtB5_16DashboardServiceNtB5_20ListDashboardRequestINtNtB29_8api_resp12BaseResponseNtB5_21ListDashboardResponseEE20execute_with_options
FN:73,_RNvXs5_NtNtNtNtNtNtCs532nfEa3ofR_9open_lark7service10cloud_docs7bitable2v113app_dashboard4listNtB5_27ListDashboardRequestBuilderINtNtNtNtBh_4core12trait_system18executable_builder17ExecutableBuilderNtB5_16DashboardServiceNtB5_20ListDashboardRequestINtNtB29_8api_resp12BaseResponseNtB5_21ListDashboardResponseEE5build
FN:80,_RNvXs5_NtNtNtNtNtNtCs532nfEa3ofR_9open_lark7service10cloud_docs7bitable2v113app_dashboard4listNtB5_27ListDashboardRequestBuilderINtNtNtNtBh_4core12trait_system18executable_builder17ExecutableBuilderNtB5_16DashboardServiceNtB5_20ListDashboardRequestINtNtB29_8api_resp12BaseResponseNtB5_21ListDashboardResponseEE7execute
FN:84,_RNvXs5_NtNtNtNtNtNtCs532nfEa3ofR_9open_lark7service10cloud_docs7bitable2v114app_table_view3getNtB5_21GetViewRequestBuilderINtNtNtNtBh_4core12trait_system18executable_builder17ExecutableBuilderNtB7_19AppTableViewServiceNtB5_14GetViewRequestINtNtB23_8api_resp12BaseResponseNtB5_15GetViewResponseEE20execute_with_options
FN:73,_RNvXs5_NtNtNtNtNtNtCs532nfEa3ofR_9open_lark7service10cloud_docs7bitable2v114app_table_view3getNtB5_21GetViewRequestBuilderINtNtNtNtBh_4core12trait_system18executable_builder17ExecutableBuilderNtB7_19AppTableViewServiceNtB5_14GetViewRequestINtNtB23_8api_resp12BaseResponseNtB5_15GetViewResponseEE5build
FN:80,_RNvXs5_NtNtNtNtNtNtCs532nfEa3ofR_9open_lark7service10cloud_docs7bitable2v114app_table_view3getNtB5_21GetViewRequestBuilderINtNtNtNtBh_4core12trait_system18executable_builder17ExecutableBuilderNtB7_19AppTableViewServiceNtB5_14GetViewRequestINtNtB23_8api_resp12BaseResponseNtB5_15GetViewResponseEE7execute
FN:84,_RNvXs5_NtNtNtNtNtNtCs532nfEa3ofR_9open_lark7service10cloud_docs7bitable2v114app_table_view5patchNtB5_23PatchViewRequestBuilderINtNtNtNtBh_4core12trait_system18executable_builder17ExecutableBuilderNtB7_19AppTableViewServiceNtB5_16PatchViewRequestINtNtB27_8api_resp12BaseResponseNtB5_17PatchViewResponseEE20execute_with_options
FN:73,_RNvXs5_NtNtNtNtNtNtCs532nfEa3ofR_9open_lark7service10cloud_docs7bitable2v114app_table_view5patchNtB5_23PatchViewRequestBuilderINtNtNtNtBh_4core12trait_system18executable_builder17ExecutableBuilderNtB7_19AppTableViewServiceNtB5_16PatchViewRequestINtNtB27_8api_resp12BaseResponseNtB5_17PatchViewResponseEE5build
FN:80,_RNvXs5_NtNtNtNtNtNtCs532nfEa3ofR_9open_lark7service10cloud_docs7bitable2v114app_table_view5patchNtB5_23PatchViewRequestBuilderINtNtNtNtBh_4core12trait_system18executable_builder17ExecutableBuilderNtB7_19AppTableViewServiceNtB5_16PatchViewRequestINtNtB27_8api_resp12BaseResponseNtB5_17PatchViewResponseEE7execute
FN:84,_RNvXs5_NtNtNtNtNtNtCs532nfEa3ofR_9open_lark7service10cloud_docs7bitable2v115app_role_member12batch_createNtB5_35BatchCreateRoleMemberRequestBuilderINtNtNtNtBh_4core12trait_system18executable_builder17ExecutableBuilderNtB7_20AppRoleMemberServiceNtB5_28BatchCreateRoleMemberRequestINtNtB2s_8api_resp12BaseResponseNtB5_29BatchCreateRoleMemberResponseEE20execute_with_options
FN:73,_RNvXs5_NtNtNtNtNtNtCs532nfEa3ofR_9open_lark7service10cloud_docs7bitable2v115app_role_member12batch_createNtB5_35BatchCreateRoleMemberRequestBuilderINtNtNtNtBh_4core12trait_system18executable_builder17ExecutableBuilderNtB7_20AppRoleMemberServiceNtB5_28BatchCreateRoleMemberRequestINtNtB2s_8api_resp12BaseResponseNtB5_29BatchCreateRoleMemberResponseEE5build
FN:80,_RNvXs5_NtNtNtNtNtNtCs532nfEa3ofR_9open_lark7service10cloud_docs7bitable2v115app_role_member12batch_createNtB5_35BatchCreateRoleMemberRequestBuilderINtNtNtNtBh_4core12trait_system18executable_builder17ExecutableBuilderNtB7_20AppRoleMemberServiceNtB5_28BatchCreateRoleMemberRequestINtNtB2s_8api_resp12BaseResponseNtB5_29BatchCreateRoleMemberResponseEE7execute
FN:84,_RNvXs5_NtNtNtNtNtNtCs532nfEa3ofR_9open_lark7service10cloud_docs7bitable2v115app_role_member4listNtB5_28ListRoleMemberRequestBuilderINtNtNtNtBh_4core12trait_system18executable_builder17ExecutableBuilderNtB7_20AppRoleMemberServiceNtB5_21ListRoleMemberRequestINtNtB2c_8api_resp12BaseResponseNtB5_22ListRoleMemberResponseEE20execute_with_options
FN:73,_RNvXs5_NtNtNtNtNtNtCs532nfEa3ofR_9open_lark7service10cloud_docs7bitable2v115app_role_member4listNtB5_28ListRoleMemberRequestBuilderINtNtNtNtBh_4core12trait_system18executable_builder17ExecutableBuilderNtB7_20AppRoleMemberServiceNtB5_21ListRoleMemberRequestINtNtB2c_8api_resp12BaseResponseNtB5_22ListRoleMemberResponseEE5build
FN:80,_RNvXs5_NtNtNtNtNtNtCs532nfEa3ofR_9open_lark7service10cloud_docs7bitable2v115app_role_member4listNtB5_28ListRoleMemberRequestBuilderINtNtNtNtBh_4core12trait_system18executable_builder17ExecutableBuilderNtB7_20AppRoleMemberServiceNtB5_21ListRoleMemberRequestINtNtB2c_8api_resp12BaseResponseNtB5_22ListRoleMemberResponseEE7execute
FN:84,_RNvXs5_NtNtNtNtNtNtCs532nfEa3ofR_9open_lark7service10cloud_docs7bitable2v115app_role_member6createNtB5_30CreateRoleMemberRequestBuilderINtNtNtNtBh_4core12trait_system18executable_builder17ExecutableBuilderNtB7_20AppRoleMemberServiceNtB5_23CreateRoleMemberRequestINtNtB2g_8api_resp12BaseResponseNtB5_24CreateRoleMemberResponseEE20execute_with_options
FN:73,_RNvXs5_NtNtNtNtNtNtCs532nfEa3ofR_9open_lark7service10cloud_docs7bitable2v115app_role_member6createNtB5_30CreateRoleMemberRequestBuilderINtNtNtNtBh_4core12trait_system18executable_builder17ExecutableBuilderNtB7_20AppRoleMemberServiceNtB5_23CreateRoleMemberRequestINtNtB2g_8api_resp12BaseResponseNtB5_24CreateRoleMemberResponseEE5build
FN:80,_RNvXs5_NtNtNtNtNtNtCs532nfEa3ofR_9open_lark7service10cloud_docs7bitable2v115app_role_member6createNtB5_30CreateRoleMemberRequestBuilderINtNtNtNtBh_4core12trait_system18executable_builder17ExecutableBuilderNtB7_20AppRoleMemberServiceNtB5_23CreateRoleMemberRequestINtNtB2g_8api_resp12BaseResponseNtB5_24CreateRoleMemberResponseEE7execute
FN:84,_RNvXs5_NtNtNtNtNtNtCs532nfEa3ofR_9open_lark7service10cloud_docs7bitable2v115app_table_field4listNtB5_23ListFieldRequestBuilderINtNtNtNtBh_4core12trait_system18executable_builder17ExecutableBuilderNtB7_20AppTableFieldServiceNtB5_16ListFieldRequestINtNtB27_8api_resp12BaseResponseNtB5_17ListFieldResponseEE20execute_with_options
FN:73,_RNvXs5_NtNtNtNtNtNtCs532nfEa3ofR_9open_lark7service10cloud_docs7bitable2v115app_table_field4listNtB5_23ListFieldRequestBuilderINtNtNtNtBh_4core12trait_system18executable_builder17ExecutableBuilderNtB7_20AppTableFieldServiceNtB5_16ListFieldRequestINtNtB27_8api_resp12BaseResponseNtB5_17ListFieldResponseEE5build
FN:80,_RNvXs5_NtNtNtNtNtNtCs532nfEa3ofR_9open_lark7service10cloud_docs7bitable2v115app_table_field4listNtB5_23ListFieldRequestBuilderINtNtNtNtBh_4core12trait_system18executable_builder17ExecutableBuilderNtB7_20AppTableFieldServiceNtB5_16ListFieldRequestINtNtB27_8api_resp12BaseResponseNtB5_17ListFieldResponseEE7execute
FN:84,_RNvXs5_NtNtNtNtNtNtCs532nfEa3ofR_9open_lark7service10cloud_docs7bitable2v116app_table_record12batch_createNtB5_31BatchCreateRecordRequestBuilderINtNtNtNtBh_4core12trait_system18executable_builder17ExecutableBuilderNtB7_21AppTableRecordServiceNtB5_24BatchCreateRecordRequestINtNtB2p_8api_resp12BaseResponseNtB5_25BatchCreateRecordResponseEE20execute_with_options
FN:73,_RNvXs5_NtNtNtNtNtNtCs532nfEa3ofR_9open_lark7service10cloud_docs7bitable2v116app_table_record12batch_createNtB5_31BatchCreateRecordRequestBuilderINtNtNtNtBh_4core12trait_system18executable_builder17ExecutableBuilderNtB7_21AppTableRecordServiceNtB5_24BatchCreateRecordRequestINtNtB2p_8api_resp12BaseResponseNtB5_25BatchCreateRecordResponseEE5build
FN:80,_RNvXs5_NtNtNtNtNtNtCs532nfEa3ofR_9open_lark7service10cloud_docs7bitable2v116app_table_record12batch_createNtB5_31BatchCreateRecordRequestBuilderINtNtNtNtBh_4core12trait_system18executable_builder17ExecutableBuilderNtB7_21AppTableRecordServiceNtB5_24BatchCreateRecordRequestINtNtB2p_8api_resp12BaseResponseNtB5_25BatchCreateRecordResponseEE7execute
FN:84,_RNvXs5_NtNtNtNtNtNtCs532nfEa3ofR_9open_lark7service10cloud_docs7bitable2v116app_table_record12batch_deleteNtB5_31BatchDeleteRecordRequestBuilderINtNtNtNtBh_4core12trait_system18executable_builder17ExecutableBuilderNtB7_21AppTableRecordServiceNtB5_24BatchDeleteRecordRequestINtNtB2p_8api_resp12BaseResponseNtB5_25BatchDeleteRecordResponseEE20execute_with_options
FN:73,_RNvXs5_NtNtNtNtNtNtCs532nfEa3ofR_9open_lark7service10cloud_docs7bitable2v116app_table_record12batch_deleteNtB5_31BatchDeleteRecordRequestBuilderINtNtNtNtBh_4core12trait_system18executable_builder17ExecutableBuilderNtB7_21AppTableRecordServiceNtB5_24BatchDeleteRecordRequestINtNtB2p_8api_resp12BaseResponseNtB5_25BatchDeleteRecordResponseEE5build
FN:80,_RNvXs5_NtNtNtNtNtNtCs532nfEa3ofR_9open_lark7service10cloud_docs7bitable2v116app_table_record12batch_deleteNtB5_31BatchDeleteRecordRequestBuilderINtNtNtNtBh_4core12trait_system18executable_builder17ExecutableBuilderNtB7_21AppTableRecordServiceNtB5_24BatchDeleteRecordRequestINtNtB2p_8api_resp12BaseResponseNtB5_25BatchDeleteRecordResponseEE7execute
FN:84,_RNvXs5_NtNtNtNtNtNtCs532nfEa3ofR_9open_lark7service10cloud_docs7bitable2v116app_table_record6createNtB5_26CreateRecordRequestBuilderINtNtNtNtBh_4core12trait_system18executable_builder17ExecutableBuilderNtB7_21AppTableRecordServiceNtB5_19CreateRecordRequestNtB5_20CreateRecordResponseE20execute_with_options
FN:73,_RNvXs5_NtNtNtNtNtNtCs532nfEa3ofR_9open_lark7service10cloud_docs7bitable2v116app_table_record6createNtB5_26CreateRecordRequestBuilderINtNtNtNtBh_4core12trait_system18executable_builder17ExecutableBuilderNtB7_21AppTableRecordServiceNtB5_19CreateRecordRequestNtB5_20CreateRecordResponseE5build
FN:80,_RNvXs5_NtNtNtNtNtNtCs532nfEa3ofR_9open_lark7service10cloud_docs7bitable2v116app_table_record6createNtB5_26CreateRecordRequestBuilderINtNtNtNtBh_4core12trait_system18executable_builder17ExecutableBuilderNtB7_21AppTableRecordServiceNtB5_19CreateRecordRequestNtB5_20CreateRecordResponseE7execute
FN:84,_RNvXs5_NtNtNtNtNtNtCs532nfEa3ofR_9open_lark7service10cloud_docs7bitable2v116app_table_record6deleteNtB5_26DeleteRecordRequestBuilderINtNtNtNtBh_4core12trait_system18executable_builder17ExecutableBuilderNtB7_21AppTableRecordServiceNtB5_19DeleteRecordRequestINtNtB2d_8api_resp12BaseResponseNtB5_20DeleteRecordResponseEE20execute_with_options
FN:73,_RNvXs5_NtNtNtNtNtNtCs532nfEa3ofR_9open_lark7service10cloud_docs7bitable2v116app_table_record6deleteNtB5_26DeleteRecordRequestBuilderINtNtNtNtBh_4core12trait_system18executable_builder17ExecutableBuilderNtB7_21AppTableRecordServiceNtB5_19DeleteRecordRequestINtNtB2d_8api_resp12BaseResponseNtB5_20DeleteRecordResponseEE5build
FN:80,_RNvXs5_NtNtNtNtNtNtCs532nfEa3ofR_9open_lark7service10cloud_docs7bitable2v116app_table_record6deleteNtB5_26DeleteRecordRequestBuilderINtNtNtNtBh_4core12trait_system18executable_builder17ExecutableBuilderNtB7_21AppTableRecordServiceNtB5_19DeleteRecordRequestINtNtB2d_8api_resp12BaseResponseNtB5_20DeleteRecordResponseEE7execute
FN:84,_RNvXs5_NtNtNtNtNtNtCs532nfEa3ofR_9open_lark7service10cloud_docs7bitable2v116app_table_record6updateNtB5_26UpdateRecordRequestBuilderINtNtNtNtBh_4core12trait_system18executable_builder17ExecutableBuilderNtB7_21AppTableRecordServiceNtB5_19UpdateRecordRequestINtNtB2d_8api_resp12BaseResponseNtB5_20UpdateRecordResponseEE20execute_with_options
FN:73,_RNvXs5_NtNtNtNtNtNtCs532nfEa3ofR_9open_lark7service10cloud_docs7bitable2v116app_table_record6updateNtB5_26UpdateRecordRequestBuilderINtNtNtNtBh_4core12trait_system18executable_builder17ExecutableBuilderNtB7_21AppTableRecordServiceNtB5_19UpdateRecordRequestINtNtB2d_8api_resp12BaseResponseNtB5_20UpdateRecordResponseEE5build
FN:80,_RNvXs5_NtNtNtNtNtNtCs532nfEa3ofR_9open_lark7service10cloud_docs7bitable2v116app_table_record6updateNtB5_26UpdateRecordRequestBuilderINtNtNtNtBh_4core12trait_system18executable_builder17ExecutableBuilderNtB7_21AppTableRecordServiceNtB5_19UpdateRecordRequestINtNtB2d_8api_resp12BaseResponseNtB5_20UpdateRecordResponseEE7execute
FN:84,_RNvXs5_NtNtNtNtNtNtCs532nfEa3ofR_9open_lark7service10cloud_docs7bitable2v116app_table_record9batch_getNtB5_28BatchGetRecordRequestBuilderINtNtNtNtBh_4core12trait_system18executable_builder17ExecutableBuilderNtB7_21AppTableRecordServiceNtB5_21BatchGetRecordRequestINtNtB2i_8api_resp12BaseResponseNtB5_22BatchGetRecordResponseEE20execute_with_options
FN:73,_RNvXs5_NtNtNtNtNtNtCs532nfEa3ofR_9open_lark7service10cloud_docs7bitable2v116app_table_record9batch_getNtB5_28BatchGetRecordRequestBuilderINtNtNtNtBh_4core12trait_system18executable_builder17ExecutableBuilderNtB7_21AppTableRecordServiceNtB5_21BatchGetRecordRequestINtNtB2i_8api_resp12BaseResponseNtB5_22BatchGetRecordResponseEE5build
FN:80,_RNvXs5_NtNtNtNtNtNtCs532nfEa3ofR_9open_lark7service10cloud_docs7bitable2v116app_table_record9batch_getNtB5_28BatchGetRecordRequestBuilderINtNtNtNtBh_4core12trait_system18executable_builder17ExecutableBuilderNtB7_21AppTableRecordServiceNtB5_21BatchGetRecordRequestINtNtB2i_8api_resp12BaseResponseNtB5_22BatchGetRecordResponseEE7execute
FN:84,_RNvXs5_NtNtNtNtNtNtCs532nfEa3ofR_9open_lark7service10cloud_docs7bitable2v13app3getNtB5_20GetAppRequestBuilderINtNtNtNtBh_4core12trait_system18executable_builder17ExecutableBuilderNtB7_10AppServiceNtB5_13GetAppRequestINtNtB1Q_8api_resp12BaseResponseNtB5_14GetAppResponseEE20execute_with_options
FN:73,_RNvXs5_NtNtNtNtNtNtCs532nfEa3ofR_9open_lark7service10cloud_docs7bitable2v13app3getNtB5_20GetAppRequestBuilderINtNtNtNtBh_4core12trait_system18executable_builder17ExecutableBuilderNtB7_10AppServiceNtB5_13GetAppRequestINtNtB1Q_8api_resp12BaseResponseNtB5_14GetAppResponseEE5build
FN:80,_RNvXs5_NtNtNtNtNtNtCs532nfEa3ofR_9open_lark7service10cloud_docs7bitable2v13app3getNtB5_20GetAppRequestBuilderINtNtNtNtBh_4core12trait_system18executable_builder17ExecutableBuilderNtB7_10AppServiceNtB5_13GetAppRequestINtNtB1Q_8api_resp12BaseResponseNtB5_14GetAppResponseEE7execute
FN:84,_RNvXs5_NtNtNtNtNtNtCs532nfEa3ofR_9open_lark7service10cloud_docs7bitable2v13app4copyNtB5_21CopyAppRequestBuilderINtNtNtNtBh_4core12trait_system18executable_builder17ExecutableBuilderNtB7_10AppServiceNtB5_14CopyAppRequestINtNtB1S_8api_resp12BaseResponseNtB5_15CopyAppResponseEE20execute_with_options
FN:73,_RNvXs5_NtNtNtNtNtNtCs532nfEa3ofR_9open_lark7service10cloud_docs7bitable2v13app4copyNtB5_21CopyAppRequestBuilderINtNtNtNtBh_4core12trait_system18executable_builder17ExecutableBuilderNtB7_10AppServiceNtB5_14CopyAppRequestINtNtB1S_8api_resp12BaseResponseNtB5_15CopyAppResponseEE5build
FN:80,_RNvXs5_NtNtNtNtNtNtCs532nfEa3ofR_9open_lark7service10cloud_docs7bitable2v13app4copyNtB5_21CopyAppRequestBuilderINtNtNtNtBh_4core12trait_system18executable_builder17ExecutableBuilderNtB7_10AppServiceNtB5_14CopyAppRequestINtNtB1S_8api_resp12BaseResponseNtB5_15CopyAppResponseEE7execute
FN:84,_RNvXs5_NtNtNtNtNtNtCs532nfEa3ofR_9open_lark7service10cloud_docs7bitable2v13app6createNtB5_23CreateAppRequestBuilderINtNtNtNtBh_4core12trait_system18executable_builder17ExecutableBuilderNtB7_10AppServiceNtB5_16CreateAppRequestINtNtB1W_8api_resp12BaseResponseNtB5_17CreateAppResponseEE20execute_with_options
FN:73,_RNvXs5_NtNtNtNtNtNtCs532nfEa3ofR_9open_lark7service10cloud_docs7bitable2v13app6createNtB5_23CreateAppRequestBuilderINtNtNtNtBh_4core12trait_system18executable_builder17ExecutableBuilderNtB7_10AppServiceNtB5_16CreateAppRequestINtNtB1W_8api_resp12BaseResponseNtB5_17CreateAppResponseEE5build
FN:80,_RNvXs5_NtNtNtNtNtNtCs532nfEa3ofR_9open_lark7service10cloud_docs7bitable2v13app6createNtB5_23CreateAppRequestBuilderINtNtNtNtBh_4core12trait_system18executable_builder17ExecutableBuilderNtB7_10AppServiceNtB5_16CreateAppRequestINtNtB1W_8api_resp12BaseResponseNtB5_17CreateAppResponseEE7execute
FN:84,_RNvXs5_NtNtNtNtNtNtCs532nfEa3ofR_9open_lark7service10cloud_docs7bitable2v13app6updateNtB5_23UpdateAppRequestBuilderINtNtNtNtBh_4core12trait_system18executable_builder17ExecutableBuilderNtB7_10AppServiceNtB5_16UpdateAppRequestINtNtB1W_8api_resp12BaseResponseNtB5_17UpdateAppResponseEE20execute_with_options
FN:73,_RNvXs5_NtNtNtNtNtNtCs532nfEa3ofR_9open_lark7service10cloud_docs7bitable2v13app6updateNtB5_23UpdateAppRequestBuilderINtNtNtNtBh_4core12trait_system18executable_builder17ExecutableBuilderNtB7_10AppServiceNtB5_16UpdateAppRequestINtNtB1W_8api_resp12BaseResponseNtB5_17UpdateAppResponseEE5build
FN:80,_RNvXs5_NtNtNtNtNtNtCs532nfEa3ofR_9open_lark7service10cloud_docs7bitable2v13app6updateNtB5_23UpdateAppRequestBuilderINtNtNtNtBh_4core12trait_system18executable_builder17ExecutableBuilderNtB7_10AppServiceNtB5_16UpdateAppRequestINtNtB1W_8api_resp12BaseResponseNtB5_17UpdateAppResponseEE7execute
FN:84,_RNvXs5_NtNtNtNtNtNtCs532nfEa3ofR_9open_lark7service10cloud_docs7bitable2v14form4listNtB5_30ListFormQuestionRequestBuilderINtNtNtNtBh_4core12trait_system18executable_builder17ExecutableBuilderNtB7_11FormServiceNtB5_23ListFormQuestionRequestINtNtB22_8api_resp12BaseResponseNtB5_24ListFormQuestionResponseEE20execute_with_options
FN:73,_RNvXs5_NtNtNtNtNtNtCs532nfEa3ofR_9open_lark7service10cloud_docs7bitable2v14form4listNtB5_30ListFormQuestionRequestBuilderINtNtNtNtBh_4core12trait_system18executable_builder17ExecutableBuilderNtB7_11FormServiceNtB5_23ListFormQuestionRequestINtNtB22_8api_resp12BaseResponseNtB5_24ListFormQuestionResponseEE5build
FN:80,_RNvXs5_NtNtNtNtNtNtCs532nfEa3ofR_9open_lark7service10cloud_docs7bitable2v14form4listNtB5_30ListFormQuestionRequestBuilderINtNtNtNtBh_4core12trait_system18executable_builder17ExecutableBuilderNtB7_11FormServiceNtB5_23ListFormQuestionRequestINtNtB22_8api_resp12BaseResponseNtB5_24ListFormQuestionResponseEE7execute
FN:84,_RNvXs5_NtNtNtNtNtNtCs532nfEa3ofR_9open_lark7service10cloud_docs7bitable2v18app_role4listNtB5_25ListAppRoleRequestBuilderINtNtNtNtBh_4core12trait_system18executable_builder17ExecutableBuilderNtB7_14AppRoleServiceNtB5_18ListAppRoleRequestINtNtB21_8api_resp12BaseResponseNtB5_19ListAppRoleResponseEE20execute_with_options
FN:73,_RNvXs5_NtNtNtNtNtNtCs532nfEa3ofR_9open_lark7service10cloud_docs7bitable2v18app_role4listNtB5_25ListAppRoleRequestBuilderINtNtNtNtBh_4core12trait_system18executable_builder17ExecutableBuilderNtB7_14AppRoleServiceNtB5_18ListAppRoleRequestINtNtB21_8api_resp12BaseResponseNtB5_19ListAppRoleResponseEE5build
FN:80,_RNvXs5_NtNtNtNtNtNtCs532nfEa3ofR_9open_lark7service10cloud_docs7bitable2v18app_role4listNtB5_25ListAppRoleRequestBuilderINtNtNtNtBh_4core12trait_system18executable_builder17ExecutableBuilderNtB7_14AppRoleServiceNtB5_18ListAppRoleRequestINtNtB21_8api_resp12BaseResponseNtB5_19ListAppRoleResponseEE7execute
FN:84,_RNvXs5_NtNtNtNtNtNtCs532nfEa3ofR_9open_lark7service10cloud_docs7bitable2v19app_table12batch_createNtB5_31BatchCreateTablesRequestBuilderINtNtNtNtBh_4core12trait_system18executable_builder17ExecutableBuilderNtB7_15AppTableServiceNtB5_24BatchCreateTablesRequestINtNtB2h_8api_resp12BaseResponseNtB5_25BatchCreateTablesResponseEE20execute_with_options
FN:73,_RNvXs5_NtNtNtNtNtNtCs532nfEa3ofR_9open_lark7service10cloud_docs7bitable2v19app_table12batch_createNtB5_31BatchCreateTablesRequestBuilderINtNtNtNtBh_4core12trait_system18executable_builder17ExecutableBuilderNtB7_15AppTableServiceNtB5_24BatchCreateTablesRequestINtNtB2h_8api_resp12BaseResponseNtB5_25BatchCreateTablesResponseEE5build
FN:80,_RNvXs5_NtNtNtNtNtNtCs532nfEa3ofR_9open_lark7service10cloud_docs7bitable2v19app_table12batch_createNtB5_31BatchCreateTablesRequestBuilderINtNtNtNtBh_4core12trait_system18executable_builder17ExecutableBuilderNtB7_15AppTableServiceNtB5_24BatchCreateTablesRequestINtNtB2h_8api_resp12BaseResponseNtB5_25BatchCreateTablesResponseEE7execute
FN:84,_RNvXs5_NtNtNtNtNtNtCs532nfEa3ofR_9open_lark7service10cloud_docs7bitable2v19app_table12batch_deleteNtB5_31BatchDeleteTablesRequestBuilderINtNtNtNtBh_4core12trait_system18executable_builder17ExecutableBuilderNtB7_15AppTableServiceNtB5_24BatchDeleteTablesRequestINtNtB2h_8api_resp12BaseResponseNtB5_25BatchDeleteTablesResponseEE20execute_with_options
FN:73,_RNvXs5_NtNtNtNtNtNtCs532nfEa3ofR_9open_lark7service10cloud_docs7bitable2v19app_table12batch_deleteNtB5_31BatchDeleteTablesRequestBuilderINtNtNtNtBh_4core12trait_system18executable_builder17ExecutableBuilderNtB7_15AppTableServiceNtB5_24BatchDeleteTablesRequestINtNtB2h_8api_resp12BaseResponseNtB5_25BatchDeleteTablesResponseEE5build
FN:80,_RNvXs5_NtNtNtNtNtNtCs532nfEa3ofR_9open_lark7service10cloud_docs7bitable2v19app_table12batch_deleteNtB5_31BatchDeleteTablesRequestBuilderINtNtNtNtBh_4core12trait_system18executable_builder17ExecutableBuilderNtB7_15AppTableServiceNtB5_24BatchDeleteTablesRequestINtNtB2h_8api_resp12BaseResponseNtB5_25BatchDeleteTablesResponseEE7execute
FN:84,_RNvXs5_NtNtNtNtNtNtCs532nfEa3ofR_9open_lark7service10cloud_docs7bitable2v19app_table4listNtB5_24ListTablesRequestBuilderINtNtNtNtBh_4core12trait_system18executable_builder17ExecutableBuilderNtB7_15AppTableServiceNtB5_17ListTablesRequestINtNtB21_8api_resp12BaseResponseNtB5_18ListTablesResponseEE20execute_with_options
FN:73,_RNvXs5_NtNtNtNtNtNtCs532nfEa3ofR_9open_lark7service10cloud_docs7bitable2v19app_table4listNtB5_24ListTablesRequestBuilderINtNtNtNtBh_4core12trait_system18executable_builder17ExecutableBuilderNtB7_15AppTableServiceNtB5_17ListTablesRequestINtNtB21_8api_resp12BaseResponseNtB5_18ListTablesResponseEE5build
FN:80,_RNvXs5_NtNtNtNtNtNtCs532nfEa3ofR_9open_lark7service10cloud_docs7bitable2v19app_table4listNtB5_24ListTablesRequestBuilderINtNtNtNtBh_4core12trait_system18executable_builder17ExecutableBuilderNtB7_15AppTableServiceNtB5_17ListTablesRequestINtNtB21_8api_resp12BaseResponseNtB5_18ListTablesResponseEE7execute
FN:84,_RNvXs5_NtNtNtNtNtNtCs532nfEa3ofR_9open_lark7service10cloud_docs7bitable2v19app_table5patchNtB5_24PatchTableRequestBuilderINtNtNtNtBh_4core12trait_system18executable_builder17ExecutableBuilderNtB7_15AppTableServiceNtB5_17PatchTableRequestINtNtB22_8api_resp12BaseResponseNtB5_18PatchTableResponseEE20execute_with_options
FN:73,_RNvXs5_NtNtNtNtNtNtCs532nfEa3ofR_9open_lark7service10cloud_docs7bitable2v19app_table5patchNtB5_24PatchTableRequestBuilderINtNtNtNtBh_4core12trait_system18executable_builder17ExecutableBuilderNtB7_15AppTableServiceNtB5_17PatchTableRequestINtNtB22_8api_resp12BaseResponseNtB5_18PatchTableResponseEE5build
FN:80,_RNvXs5_NtNtNtNtNtNtCs532nfEa3ofR_9open_lark7service10cloud_docs7bitable2v19app_table5patchNtB5_24PatchTableRequestBuilderINtNtNtNtBh_4core12trait_system18executable_builder17ExecutableBuilderNtB7_15AppTableServiceNtB5_17PatchTableRequestINtNtB22_8api_resp12BaseResponseNtB5_18PatchTableResponseEE7execute
FN:84,_RNvXs5_NtNtNtNtNtNtCs532nfEa3ofR_9open_lark7service10cloud_docs7bitable2v19app_table6deleteNtB5_25DeleteTableRequestBuilderINtNtNtNtBh_4core12trait_system18executable_builder17ExecutableBuilderNtB7_15AppTableServiceNtB5_18DeleteTableRequestINtNtB24_8api_resp12BaseResponseNtB5_19DeleteTableResponseEE20execute_with_options
FN:73,_RNvXs5_NtNtNtNtNtNtCs532nfEa3ofR_9open_lark7service10cloud_docs7bitable2v19app_table6deleteNtB5_25DeleteTableRequestBuilderINtNtNtNtBh_4core12trait_system18executable_builder17ExecutableBuilderNtB7_15AppTableServiceNtB5_18DeleteTableRequestINtNtB24_8api_resp12BaseResponseNtB5_19DeleteTableResponseEE5build
FN:80,_RNvXs5_NtNtNtNtNtNtCs532nfEa3ofR_9open_lark7service10cloud_docs7bitable2v19app_table6deleteNtB5_25DeleteTableRequestBuilderINtNtNtNtBh_4core12trait_system18executable_builder17ExecutableBuilderNtB7_15AppTableServiceNtB5_18DeleteTableRequestINtNtB24_8api_resp12BaseResponseNtB5_19DeleteTableResponseEE7execute
FN:84,_RNvXs6_NtNtNtNtCs532nfEa3ofR_9open_lark7service10attendance2v15shiftNtB5_25CreateShiftRequestBuilderINtNtNtNtBd_4core12trait_system18executable_builder17ExecutableBuilderNtB5_12ShiftServiceNtNtB7_6models18CreateShiftRequestINtNtB1H_8api_resp12BaseResponseNtB33_19CreateShiftRespDataEE20execute_with_options
FN:73,_RNvXs6_NtNtNtNtCs532nfEa3ofR_9open_lark7service10attendance2v15shiftNtB5_25CreateShiftRequestBuilderINtNtNtNtBd_4core12trait_system18executable_builder17ExecutableBuilderNtB5_12ShiftServiceNtNtB7_6models18CreateShiftRequestINtNtB1H_8api_resp12BaseResponseNtB33_19CreateShiftRespDataEE5build
FN:80,_RNvXs6_NtNtNtNtCs532nfEa3ofR_9open_lark7service10attendance2v15shiftNtB5_25CreateShiftRequestBuilderINtNtNtNtBd_4core12trait_system18executable_builder17ExecutableBuilderNtB5_12ShiftServiceNtNtB7_6models18CreateShiftRequestINtNtB1H_8api_resp12BaseResponseNtB33_19CreateShiftRespDataEE7execute
FN:84,_RNvXs6_NtNtNtNtCs532nfEa3ofR_9open_lark7service10cloud_docs8comments11batch_queryNtB5_32BatchQueryCommentsRequestBuilderINtNtNtNtBd_4core12trait_system18executable_builder17ExecutableBuilderNtB7_15CommentsServiceNtB5_25BatchQueryCommentsRequestINtNtB21_8api_resp12BaseResponseNtB5_26BatchQueryCommentsResponseEE20execute_with_options
FN:73,_RNvXs6_NtNtNtNtCs532nfEa3ofR_9open_lark7service10cloud_docs8comments11batch_queryNtB5_32BatchQueryCommentsRequestBuilderINtNtNtNtBd_4core12trait_system18executable_builder17ExecutableBuilderNtB7_15CommentsServiceNtB5_25BatchQueryCommentsRequestINtNtB21_8api_resp12BaseResponseNtB5_26BatchQueryCommentsResponseEE5build
FN:80,_RNvXs6_NtNtNtNtCs532nfEa3ofR_9open_lark7service10cloud_docs8comments11batch_queryNtB5_32BatchQueryCommentsRequestBuilderINtNtNtNtBd_4core12trait_system18executable_builder17ExecutableBuilderNtB7_15CommentsServiceNtB5_25BatchQueryCommentsRequestINtNtB21_8api_resp12BaseResponseNtB5_26BatchQueryCommentsResponseEE7execute
FN:84,_RNvXs6_NtNtNtNtCs532nfEa3ofR_9open_lark7service10cloud_docs8comments12list_repliesNtB5_25ListRepliesRequestBuilderINtNtNtNtBd_4core12trait_system18executable_builder17ExecutableBuilderNtB7_15CommentsServiceNtB5_18ListRepliesRequestINtNtB1V_8api_resp12BaseResponseNtB5_19ListRepliesResponseEE20execute_with_options
FN:73,_RNvXs6_NtNtNtNtCs532nfEa3ofR_9open_lark7service10cloud_docs8comments12list_repliesNtB5_25ListRepliesRequestBuilderINtNtNtNtBd_4core12trait_system18executable_builder17ExecutableBuilderNtB7_15CommentsServiceNtB5_18ListRepliesRequestINtNtB1V_8api_resp12BaseResponseNtB5_19ListRepliesResponseEE5build
FN:80,_RNvXs6_NtNtNtNtCs532nfEa3ofR_9open_lark7service10cloud_docs8comments12list_repliesNtB5_25ListRepliesRequestBuilderINtNtNtNtBd_4core12trait_system18executable_builder17ExecutableBuilderNtB7_15CommentsServiceNtB5_18ListRepliesRequestINtNtB1V_8api_resp12BaseResponseNtB5_19ListRepliesResponseEE7execute
FN:84,_RNvXs6_NtNtNtNtCs532nfEa3ofR_9open_lark7service10cloud_docs8comments3getNtB5_24GetCommentRequestBuilderINtNtNtNtBd_4core12trait_system18executable_builder17ExecutableBuilderNtB7_15CommentsServiceNtB5_17GetCommentRequestINtNtB1K_8api_resp12BaseResponseNtB5_18GetCommentResponseEE20execute_with_options
FN:73,_RNvXs6_NtNtNtNtCs532nfEa3ofR_9open_lark7service10cloud_docs8comments3getNtB5_24GetCommentRequestBuilderINtNtNtNtBd_4core12trait_system18executable_builder17ExecutableBuilderNtB7_15CommentsServiceNtB5_17GetCommentRequestINtNtB1K_8api_resp12BaseResponseNtB5_18GetCommentResponseEE5build
FN:80,_RNvXs6_NtNtNtNtCs532nfEa3ofR_9open_lark7service10cloud_docs8comments3getNtB5_24GetCommentRequestBuilderINtNtNtNtBd_4core12trait_system18executable_builder17ExecutableBuilderNtB7_15CommentsServiceNtB5_17GetCommentRequestINtNtB1K_8api_resp12BaseResponseNtB5_18GetCommentResponseEE7execute
FN:84,_RNvXs6_NtNtNtNtCs532nfEa3ofR_9open_lark7service10cloud_docs8comments5patchNtB5_26PatchCommentRequestBuilderINtNtNtNtBd_4core12trait_system18executable_builder17ExecutableBuilderNtB7_15CommentsServiceNtB5_19PatchCommentRequestINtNtB1O_8api_resp12BaseResponseNtB5_20PatchCommentResponseEE20execute_with_options
